 Cheat

 Timestamp is 5a7dd7a5 (Fri Feb  9 18:17:25 2018)

 Preferred load address is 10000000

 Start         Length     Name                   Class
 0001:00000000 000adc46H .textbss                DATA
 0002:00000000 0001ac30H .text$di                CODE
 0002:0001ac30 0014d5c0H .text$mn                CODE
 0002:001681f0 00011250H .text$x                 CODE
 0002:00179440 0000178aH .text$yd                CODE
 0003:00000000 00000104H .CRT$XCA                DATA
 0003:00000104 00000104H .CRT$XCL                DATA
 0003:00000208 0000020cH .CRT$XCU                DATA
 0003:00000414 00000104H .CRT$XCZ                DATA
 0003:00000518 00000104H .CRT$XIA                DATA
 0003:0000061c 00000104H .CRT$XIC                DATA
 0003:00000720 00000104H .CRT$XIZ                DATA
 0003:00000824 00000004H .CRT$XLA                DATA
 0003:00000828 00000004H .CRT$XLZ                DATA
 0003:0000082c 00000104H .CRT$XPA                DATA
 0003:00000930 00000104H .CRT$XPZ                DATA
 0003:00000a34 00000104H .CRT$XTA                DATA
 0003:00000b38 00000108H .CRT$XTZ                DATA
 0003:00000c40 0002a124H .rdata                  DATA
 0003:0002ad64 0000011cH .rdata$T                DATA
 0003:0002ae80 00001d74H .rdata$r                DATA
 0003:0002cbf4 00000170H .rdata$zzzdbg           DATA
 0003:0002cd64 00000104H .rtc$IAA                DATA
 0003:0002ce68 00000104H .rtc$IZZ                DATA
 0003:0002cf6c 00000104H .rtc$TAA                DATA
 0003:0002d070 00000108H .rtc$TZZ                DATA
 0003:0002d178 0000fa72H .xdata$x                DATA
 0003:0003cbea 00000000H .edata                  DATA
 0004:00000000 00005938H .data                   DATA
 0004:00005938 00001120H .data$r                 DATA
 0004:00006a58 0002ac10H .bss                    DATA
 0005:00000000 00000854H .idata$5                DATA
 0005:00000854 0000012cH .idata$2                DATA
 0005:00000980 00000014H .idata$3                DATA
 0005:00000994 00000854H .idata$4                DATA
 0005:000011e8 00003256H .idata$6                DATA
 0006:00000000 00000104H .tls                    DATA
 0006:00000104 00000104H .tls$                   DATA
 0006:00000208 00000101H .tls$ZZZ                DATA
 0007:00000000 00000104H .00cfg                  DATA
 0008:00000000 00000170H .rsrc$01                DATA
 0008:00000170 000002ccH .rsrc$02                DATA

  Address         Publics by Value              Rva+Base       Lib:Object

 0000:00000000       ___safe_se_handler_count   00000000     <absolute>
 0000:00000000       ___enclave_config          00000000     <absolute>
 0000:00000000       ___guard_longjmp_table     00000000     <absolute>
 0000:00000000       ___safe_se_handler_table   00000000     <absolute>
 0000:00000000       ___guard_fids_table        00000000     <absolute>
 0000:00000000       ___hybrid_code_map         00000000     <absolute>
 0000:00000000       ___guard_longjmp_count     00000000     <absolute>
 0000:00000000       ___guard_iat_table         00000000     <absolute>
 0000:00000000       ___hybrid_auxiliary_iat    00000000     <absolute>
 0000:00000000       ___hybrid_code_map_count   00000000     <absolute>
 0000:00000000       ___guard_iat_count         00000000     <absolute>
 0000:00000000       ___dynamic_value_reloc_table 00000000     <absolute>
 0000:00000000       ___guard_fids_count        00000000     <absolute>
 0000:0000002c       __tls_array                0000002c     <absolute>
 0000:00000100       ___guard_flags             00000100     <absolute>
 0000:00000000       ___ImageBase               10000000     <linker-defined>
 0001:00000000       __enc$textbss$begin        10001000     <linker-defined>
 0001:000adc46       __enc$textbss$end          100aec46     <linker-defined>
 0002:0001ac30       ??$?0$$V@?$_Compressed_pair@V?$allocator@D@std@@V?$_String_val@U?$_Simple_types@D@std@@@2@$00@std@@QAE@U_Zero_then_variadic_args_t@1@@Z 100c9c30 f i aim.obj
 0002:0001ac70       ??$?0$$V@?$_Compressed_pair@V?$allocator@Unetvar_table@NetvarSys@@@std@@V?$_Vector_val@U?$_Simple_types@Unetvar_table@NetvarSys@@@std@@@2@$00@std@@QAE@U_Zero_then_variadic_args_t@1@@Z 100c9c70 f i aim.obj
 0002:0001acb0       ??$?0ABV?$allocator@H@std@@$$V@?$_Compressed_pair@V?$allocator@H@std@@V?$_Vector_val@U?$_Simple_types@H@std@@@2@$00@std@@QAE@U_One_then_variadic_args_t@1@ABV?$allocator@H@1@@Z 100c9cb0 f i aim.obj
 0002:0001acf0       ??$?0ABV?$allocator@H@std@@X@?$_Vector_alloc@U?$_Vec_base_types@HV?$allocator@H@std@@@std@@@std@@QAE@ABV?$allocator@H@1@@Z 100c9cf0 f i aim.obj
 0002:0001ad30       ??$_Allocate@U?$_Default_allocate_traits@$00@std@@@std@@YAPAXIII@Z 100c9d30 f i aim.obj
 0002:0001ae10       ??$_Convert_size@I@std@@YAII@Z 100c9e10 f i aim.obj
 0002:0001ae30       ??$_Copy_memmove@PBHPAH@std@@YAPAHPBH0PAH@Z 100c9e30 f i aim.obj
 0002:0001ae90       ??$_Destroy_range1@V?$allocator@H@std@@@std@@YAXPAH0AAV?$allocator@H@0@U?$integral_constant@_N$00@0@@Z 100c9e90 f i aim.obj
 0002:0001aeb0       ??$_Destroy_range1@V?$allocator@PAVRecvProp@@@std@@@std@@YAXPAPAVRecvProp@@0AAV?$allocator@PAVRecvProp@@@0@U?$integral_constant@_N$00@0@@Z 100c9eb0 f i aim.obj
 0002:0001aed0       ??$_Destroy_range1@V?$allocator@Unetvar_table@NetvarSys@@@std@@@std@@YAXPAUnetvar_table@NetvarSys@@0AAV?$allocator@Unetvar_table@NetvarSys@@@0@U?$integral_constant@_N$0A@@0@@Z 100c9ed0 f i aim.obj
 0002:0001af20       ??$_Destroy_range@V?$allocator@H@std@@@std@@YAXPAH0AAV?$allocator@H@0@@Z 100c9f20 f i aim.obj
 0002:0001af60       ??$_Destroy_range@V?$allocator@PAVRecvProp@@@std@@@std@@YAXPAPAVRecvProp@@0AAV?$allocator@PAVRecvProp@@@0@@Z 100c9f60 f i aim.obj
 0002:0001afa0       ??$_Destroy_range@V?$allocator@Unetvar_table@NetvarSys@@@std@@@std@@YAXPAUnetvar_table@NetvarSys@@0AAV?$allocator@Unetvar_table@NetvarSys@@@0@@Z 100c9fa0 f i aim.obj
 0002:0001afe0       ??$_Distance1@PBH@std@@YAHPBH0Urandom_access_iterator_tag@0@@Z 100c9fe0 f i aim.obj
 0002:0001b000       ??$_Getvals@_W@?$time_get@DV?$istreambuf_iterator@DU?$char_traits@D@std@@@std@@@std@@IAEX_WABV_Locinfo@1@@Z 100ca000 f i aim.obj
 0002:0001b120       ??$_Getvals@_W@?$time_get@_WV?$istreambuf_iterator@_WU?$char_traits@_W@std@@@std@@@std@@IAEX_WABV_Locinfo@1@@Z 100ca120 f i aim.obj
 0002:0001b240       ??$_Maklocstr@D@std@@YAPADPBDPADABU_Cvtvec@@@Z 100ca240 f i aim.obj
 0002:0001b2e0       ??$_Maklocstr@_W@std@@YAPA_WPBDPA_WABU_Cvtvec@@@Z 100ca2e0 f i aim.obj
 0002:0001b460       ??$_Max_value@I@std@@YAABIABI0@Z 100ca460 f i aim.obj
 0002:0001b4a0       ??$_Min_value@I@std@@YAABIABI0@Z 100ca4a0 f i aim.obj
 0002:0001b4e0       ??$_Ptr_copy_cat@$$CBHH@std@@YA?AU_Really_trivial_ptr_iterator_tag@0@ABQBHABQAH@Z 100ca4e0 f i aim.obj
 0002:0001b500       ??$_Range_construct_or_tidy@PBH@?$vector@HV?$allocator@H@std@@@std@@AAEXPBH0Uforward_iterator_tag@1@@Z 100ca500 f i aim.obj
 0002:0001b740       ??$_Rechecked@PAHPAH@std@@YAAAPAHAAPAHPAH@Z 100ca740 f i aim.obj
 0002:0001b770       ??$_Ucopy@PBH@?$vector@HV?$allocator@H@std@@@std@@AAEPAHPBH0PAH@Z 100ca770 f i aim.obj
 0002:0001b7b0       ??$_Unchecked@PAH@std@@YAPAHPAH@Z 100ca7b0 f i aim.obj
 0002:0001b7d0       ??$_Unchecked@PBH@std@@YAPBHPBH@Z 100ca7d0 f i aim.obj
 0002:0001b7f0       ??$_Unfancy@D@std@@YAPADPAD@Z 100ca7f0 f i aim.obj
 0002:0001b810       ??$_Unfancy@Unetvar_table@NetvarSys@@@std@@YAPAUnetvar_table@NetvarSys@@PAU12@@Z 100ca810 f i aim.obj
 0002:0001b830       ??$_Uninitialized_copy@PBHPAHV?$allocator@H@std@@@std@@YAPAHPBH0PAHAAV?$allocator@H@0@@Z 100ca830 f i aim.obj
 0002:0001b8f0       ??$_Uninitialized_copy_al_unchecked@$$CBHHV?$allocator@H@std@@@std@@YAPAHPBH0PAHAAV?$allocator@H@0@U_Really_trivial_ptr_iterator_tag@0@U?$integral_constant@_N$00@0@@Z 100ca8f0 f i aim.obj
 0002:0001b920       ??$addressof@PAD@std@@YAPAPADAAPAD@Z 100ca920 f i aim.obj
 0002:0001b940       ??$construct@PADABQAD@?$_Default_allocator_traits@V?$allocator@D@std@@@std@@SAXAAV?$allocator@D@1@QAPADABQAD@Z 100ca940 f i aim.obj
 0002:0001b990       ??$destroy@PAD@?$_Default_allocator_traits@V?$allocator@D@std@@@std@@SAXAAV?$allocator@D@1@QAPAD@Z 100ca990 f i aim.obj
 0002:0001b9b0       ??$destroy@Unetvar_table@NetvarSys@@@?$_Default_allocator_traits@V?$allocator@Unetvar_table@NetvarSys@@@std@@@std@@SAXAAV?$allocator@Unetvar_table@NetvarSys@@@1@QAUnetvar_table@NetvarSys@@@Z 100ca9b0 f i aim.obj
 0002:0001b9d0       ??$distance@PBH@std@@YAHPBH0@Z 100ca9d0 f i aim.obj
 0002:0001ba00       ??$forward@ABQAD@std@@YAABQADABQAD@Z 100caa00 f i aim.obj
 0002:0001ba20       ??$forward@ABV?$allocator@H@std@@@std@@YAABV?$allocator@H@0@ABV10@@Z 100caa20 f i aim.obj
 0002:0001ba40       ??0?$Singleton@VNetvarSys@@@@IAE@XZ 100caa40 f i aim.obj
 0002:0001ba60       ??0?$Singleton@Vlegitbot@@@@IAE@XZ 100caa60 f i aim.obj
 0002:0001ba80       ??0?$_String_alloc@U?$_String_base_types@DV?$allocator@D@std@@@std@@@std@@QAE@XZ 100caa80 f i aim.obj
 0002:0001bab0       ??0?$_String_val@U?$_Simple_types@D@std@@@std@@QAE@XZ 100caab0 f i aim.obj
 0002:0001baf0       ??0?$_Vector_alloc@U?$_Vec_base_types@Unetvar_table@NetvarSys@@V?$allocator@Unetvar_table@NetvarSys@@@std@@@std@@@std@@QAE@XZ 100caaf0 f i aim.obj
 0002:0001bb20       ??0?$_Vector_val@U?$_Simple_types@H@std@@@std@@QAE@XZ 100cab20 f i aim.obj
 0002:0001bb60       ??0?$_Vector_val@U?$_Simple_types@Unetvar_table@NetvarSys@@@std@@@std@@QAE@XZ 100cab60 f i aim.obj
 0002:0001bba0       ??0?$allocator@D@std@@QAE@XZ 100caba0 f i aim.obj
 0002:0001bbc0       ??0?$allocator@H@std@@QAE@XZ 100cabc0 f i aim.obj
 0002:0001bbe0       ??0?$allocator@Unetvar_table@NetvarSys@@@std@@QAE@XZ 100cabe0 f i aim.obj
 0002:0001bc00       ??0?$basic_string@DU?$char_traits@D@std@@V?$allocator@D@2@@std@@QAE@QBD@Z 100cac00 f i aim.obj
 0002:0001bc90       ??0?$initializer_list@H@std@@QAE@PBH0@Z 100cac90 f i aim.obj
 0002:0001bcd0       ??0?$vector@HV?$allocator@H@std@@@std@@QAE@V?$initializer_list@H@1@ABV?$allocator@H@1@@Z 100cacd0 f i aim.obj
 0002:0001bd30       ??0?$vector@Unetvar_table@NetvarSys@@V?$allocator@Unetvar_table@NetvarSys@@@std@@@std@@QAE@XZ 100cad30 f i aim.obj
 0002:0001bd90       ??0NetvarSys@@QAE@XZ       100cad90 f i aim.obj
 0002:0001bdc0       ??0QAngle@@QAE@MMM@Z       100cadc0 f i aim.obj
 0002:0001be20       ??0QAngle@@QAE@XZ          100cae20 f i aim.obj
 0002:0001be70       ??0Vector@@QAE@MMM@Z       100cae70 f i aim.obj
 0002:0001bec0       ??0Vector@@QAE@XZ          100caec0 f i aim.obj
 0002:0001bef0       ??0_Bxty@?$_String_val@U?$_Simple_types@D@std@@@std@@QAE@XZ 100caef0 f i aim.obj
 0002:0001bf10       ??0legitbot@@QAE@XZ        100caf10 f   aim.obj
 0002:0001c170       ??1?$Singleton@VNetvarSys@@@@IAE@XZ 100cb170 f i aim.obj
 0002:0001c190       ??1?$Singleton@Vlegitbot@@@@IAE@XZ 100cb190 f i aim.obj
 0002:0001c1b0       ??1?$_Compressed_pair@V?$allocator@D@std@@V?$_String_val@U?$_Simple_types@D@std@@@2@$00@std@@QAE@XZ 100cb1b0 f i aim.obj
 0002:0001c1e0       ??1?$_String_alloc@U?$_String_base_types@DV?$allocator@D@std@@@std@@@std@@QAE@XZ 100cb1e0 f i aim.obj
 0002:0001c210       ??1?$_String_val@U?$_Simple_types@D@std@@@std@@QAE@XZ 100cb210 f i aim.obj
 0002:0001c240       ??1?$basic_string@DU?$char_traits@D@std@@V?$allocator@D@2@@std@@QAE@XZ 100cb240 f i aim.obj
 0002:0001c2a0       ??1?$vector@HV?$allocator@H@std@@@std@@QAE@XZ 100cb2a0 f i aim.obj
 0002:0001c300       ??1?$vector@PAVRecvProp@@V?$allocator@PAVRecvProp@@@std@@@std@@QAE@XZ 100cb300 f i aim.obj
 0002:0001c360       ??1?$vector@Unetvar_table@NetvarSys@@V?$allocator@Unetvar_table@NetvarSys@@@std@@@std@@QAE@XZ 100cb360 f i aim.obj
 0002:0001c3c0       ??1NetvarSys@@QAE@XZ       100cb3c0 f i aim.obj
 0002:0001c3f0       ??1_Bxty@?$_String_val@U?$_Simple_types@D@std@@@std@@QAE@XZ 100cb3f0 f i aim.obj
 0002:0001c410       ??1netvar_table@NetvarSys@@QAE@XZ 100cb410 f i aim.obj
 0002:0001c450       ??2@YAPAXIPAX@Z            100cb450 f i aim.obj
 0002:0001c470       ??4QAngle@@QAEAAV0@ABV0@@Z 100cb470 f i aim.obj
 0002:0001c4c0       ??4Vector@@QAEAAV0@ABV0@@Z 100cb4c0 f i aim.obj
 0002:0001c510       ??DQAngle@@QBE?AV0@M@Z     100cb510 f i aim.obj
 0002:0001c580       ??GQAngle@@QBE?AV0@ABV0@@Z 100cb580 f i aim.obj
 0002:0001c600       ??HQAngle@@QBE?AV0@ABV0@@Z 100cb600 f i aim.obj
 0002:0001c680       ??KQAngle@@QBE?AV0@M@Z     100cb680 f i aim.obj
 0002:0001c740       ??YQAngle@@QAEAAV0@ABV0@@Z 100cb740 f i aim.obj
 0002:0001c7c0       ??ZQAngle@@QAEAAV0@ABV0@@Z 100cb7c0 f i aim.obj
 0002:0001c840       ??_Gnetvar_table@NetvarSys@@QAEPAXI@Z 100cb840 f i aim.obj
 0002:0001c890       ?Get@?$Singleton@VNetvarSys@@@@SAAAVNetvarSys@@XZ 100cb890 f i aim.obj
 0002:0001c980       ?Init@QAngle@@QAEXMMM@Z    100cb980 f i aim.obj
 0002:0001c9d0       ?Invalidate@Vector@@QAEXXZ 100cb9d0 f i aim.obj
 0002:0001ca30       ?_Buy@?$vector@HV?$allocator@H@std@@@std@@AAE_NI@Z 100cba30 f i aim.obj
 0002:0001cb10       ?_Calculate_growth@?$basic_string@DU?$char_traits@D@std@@V?$allocator@D@2@@std@@QBEII@Z 100cbb10 f i aim.obj
 0002:0001cbd0       ?_Deallocate@std@@YAXPAXIII@Z 100cbbd0 f i aim.obj
 0002:0001ccc0       ?_Destroy@?$vector@HV?$allocator@H@std@@@std@@AAEXPAH0@Z 100cbcc0 f i aim.obj
 0002:0001cd00       ?_Destroy@?$vector@PAVRecvProp@@V?$allocator@PAVRecvProp@@@std@@@std@@AAEXPAPAVRecvProp@@0@Z 100cbd00 f i aim.obj
 0002:0001cd40       ?_Destroy@?$vector@Unetvar_table@NetvarSys@@V?$allocator@Unetvar_table@NetvarSys@@@std@@@std@@AAEXPAUnetvar_table@NetvarSys@@0@Z 100cbd40 f i aim.obj
 0002:0001cd80       ?_Fail@?$_Default_allocate_traits@$00@std@@SAXXZ 100cbd80 f i aim.obj
 0002:0001cda0       ?_Get_bytes@?$_Default_allocate_traits@$00@std@@SAPAXII@Z 100cbda0 f i aim.obj
 0002:0001cdf0       ?_Get_data@?$_String_alloc@U?$_String_base_types@DV?$allocator@D@std@@@std@@@std@@QAEAAV?$_String_val@U?$_Simple_types@D@std@@@2@XZ 100cbdf0 f i aim.obj
 0002:0001ce20       ?_Get_data@?$_String_alloc@U?$_String_base_types@DV?$allocator@D@std@@@std@@@std@@QBEABV?$_String_val@U?$_Simple_types@D@std@@@2@XZ 100cbe20 f i aim.obj
 0002:0001ce50       ?_Get_data@?$_Vector_alloc@U?$_Vec_base_types@HV?$allocator@H@std@@@std@@@std@@QAEAAV?$_Vector_val@U?$_Simple_types@H@std@@@2@XZ 100cbe50 f i aim.obj
 0002:0001ce80       ?_Get_data@?$_Vector_alloc@U?$_Vec_base_types@HV?$allocator@H@std@@@std@@@std@@QBEABV?$_Vector_val@U?$_Simple_types@H@std@@@2@XZ 100cbe80 f i aim.obj
 0002:0001ceb0       ?_Get_data@?$_Vector_alloc@U?$_Vec_base_types@PAVRecvProp@@V?$allocator@PAVRecvProp@@@std@@@std@@@std@@QAEAAV?$_Vector_val@U?$_Simple_types@PAVRecvProp@@@std@@@2@XZ 100cbeb0 f i aim.obj
 0002:0001cee0       ?_Get_data@?$_Vector_alloc@U?$_Vec_base_types@PAVRecvProp@@V?$allocator@PAVRecvProp@@@std@@@std@@@std@@QBEABV?$_Vector_val@U?$_Simple_types@PAVRecvProp@@@std@@@2@XZ 100cbee0 f i aim.obj
 0002:0001cf10       ?_Get_data@?$_Vector_alloc@U?$_Vec_base_types@Unetvar_table@NetvarSys@@V?$allocator@Unetvar_table@NetvarSys@@@std@@@std@@@std@@QAEAAV?$_Vector_val@U?$_Simple_types@Unetvar_table@NetvarSys@@@std@@@2@XZ 100cbf10 f i aim.obj
 0002:0001cf40       ?_Get_data@?$_Vector_alloc@U?$_Vec_base_types@Unetvar_table@NetvarSys@@V?$allocator@Unetvar_table@NetvarSys@@@std@@@std@@@std@@QBEABV?$_Vector_val@U?$_Simple_types@Unetvar_table@NetvarSys@@@std@@@2@XZ 100cbf40 f i aim.obj
 0002:0001cf70       ?_Get_first@?$_Compressed_pair@V?$allocator@D@std@@V?$_String_val@U?$_Simple_types@D@std@@@2@$00@std@@QAEAAV?$allocator@D@2@XZ 100cbf70 f i aim.obj
 0002:0001cf90       ?_Get_first@?$_Compressed_pair@V?$allocator@D@std@@V?$_String_val@U?$_Simple_types@D@std@@@2@$00@std@@QBEABV?$allocator@D@2@XZ 100cbf90 f i aim.obj
 0002:0001cfb0       ?_Get_first@?$_Compressed_pair@V?$allocator@H@std@@V?$_Vector_val@U?$_Simple_types@H@std@@@2@$00@std@@QAEAAV?$allocator@H@2@XZ 100cbfb0 f i aim.obj
 0002:0001cfd0       ?_Get_first@?$_Compressed_pair@V?$allocator@H@std@@V?$_Vector_val@U?$_Simple_types@H@std@@@2@$00@std@@QBEABV?$allocator@H@2@XZ 100cbfd0 f i aim.obj
 0002:0001cff0       ?_Get_first@?$_Compressed_pair@V?$allocator@PAVRecvProp@@@std@@V?$_Vector_val@U?$_Simple_types@PAVRecvProp@@@std@@@2@$00@std@@QAEAAV?$allocator@PAVRecvProp@@@2@XZ 100cbff0 f i aim.obj
 0002:0001d010       ?_Get_first@?$_Compressed_pair@V?$allocator@Unetvar_table@NetvarSys@@@std@@V?$_Vector_val@U?$_Simple_types@Unetvar_table@NetvarSys@@@std@@@2@$00@std@@QAEAAV?$allocator@Unetvar_table@NetvarSys@@@2@XZ 100cc010 f i aim.obj
 0002:0001d030       ?_Get_second@?$_Compressed_pair@V?$allocator@D@std@@V?$_String_val@U?$_Simple_types@D@std@@@2@$00@std@@QAEAAV?$_String_val@U?$_Simple_types@D@std@@@2@XZ 100cc030 f i aim.obj
 0002:0001d050       ?_Get_second@?$_Compressed_pair@V?$allocator@D@std@@V?$_String_val@U?$_Simple_types@D@std@@@2@$00@std@@QBEABV?$_String_val@U?$_Simple_types@D@std@@@2@XZ 100cc050 f i aim.obj
 0002:0001d070       ?_Get_second@?$_Compressed_pair@V?$allocator@H@std@@V?$_Vector_val@U?$_Simple_types@H@std@@@2@$00@std@@QAEAAV?$_Vector_val@U?$_Simple_types@H@std@@@2@XZ 100cc070 f i aim.obj
 0002:0001d090       ?_Get_second@?$_Compressed_pair@V?$allocator@H@std@@V?$_Vector_val@U?$_Simple_types@H@std@@@2@$00@std@@QBEABV?$_Vector_val@U?$_Simple_types@H@std@@@2@XZ 100cc090 f i aim.obj
 0002:0001d0b0       ?_Get_second@?$_Compressed_pair@V?$allocator@PAVRecvProp@@@std@@V?$_Vector_val@U?$_Simple_types@PAVRecvProp@@@std@@@2@$00@std@@QAEAAV?$_Vector_val@U?$_Simple_types@PAVRecvProp@@@std@@@2@XZ 100cc0b0 f i aim.obj
 0002:0001d0d0       ?_Get_second@?$_Compressed_pair@V?$allocator@PAVRecvProp@@@std@@V?$_Vector_val@U?$_Simple_types@PAVRecvProp@@@std@@@2@$00@std@@QBEABV?$_Vector_val@U?$_Simple_types@PAVRecvProp@@@std@@@2@XZ 100cc0d0 f i aim.obj
 0002:0001d0f0       ?_Get_second@?$_Compressed_pair@V?$allocator@Unetvar_table@NetvarSys@@@std@@V?$_Vector_val@U?$_Simple_types@Unetvar_table@NetvarSys@@@std@@@2@$00@std@@QAEAAV?$_Vector_val@U?$_Simple_types@Unetvar_table@NetvarSys@@@std@@@2@XZ 100cc0f0 f i aim.obj
 0002:0001d110       ?_Get_second@?$_Compressed_pair@V?$allocator@Unetvar_table@NetvarSys@@@std@@V?$_Vector_val@U?$_Simple_types@Unetvar_table@NetvarSys@@@std@@@2@$00@std@@QBEABV?$_Vector_val@U?$_Simple_types@Unetvar_table@NetvarSys@@@std@@@2@XZ 100cc110 f i aim.obj
 0002:0001d130       ?_Getal@?$_String_alloc@U?$_String_base_types@DV?$allocator@D@std@@@std@@@std@@QAEAAV?$allocator@D@2@XZ 100cc130 f i aim.obj
 0002:0001d160       ?_Getal@?$_String_alloc@U?$_String_base_types@DV?$allocator@D@std@@@std@@@std@@QBEABV?$allocator@D@2@XZ 100cc160 f i aim.obj
 0002:0001d190       ?_Getal@?$_Vector_alloc@U?$_Vec_base_types@HV?$allocator@H@std@@@std@@@std@@QAEAAV?$allocator@H@2@XZ 100cc190 f i aim.obj
 0002:0001d1c0       ?_Getal@?$_Vector_alloc@U?$_Vec_base_types@HV?$allocator@H@std@@@std@@@std@@QBEABV?$allocator@H@2@XZ 100cc1c0 f i aim.obj
 0002:0001d1f0       ?_Getal@?$_Vector_alloc@U?$_Vec_base_types@PAVRecvProp@@V?$allocator@PAVRecvProp@@@std@@@std@@@std@@QAEAAV?$allocator@PAVRecvProp@@@2@XZ 100cc1f0 f i aim.obj
 0002:0001d220       ?_Getal@?$_Vector_alloc@U?$_Vec_base_types@Unetvar_table@NetvarSys@@V?$allocator@Unetvar_table@NetvarSys@@@std@@@std@@@std@@QAEAAV?$allocator@Unetvar_table@NetvarSys@@@2@XZ 100cc220 f i aim.obj
 0002:0001d250       ?_Large_string_engaged@?$_String_val@U?$_Simple_types@D@std@@@std@@QBE_NXZ 100cc250 f i aim.obj
 0002:0001d290       ?_Maklocwcs@std@@YAPA_WPB_W@Z 100cc290 f i aim.obj
 0002:0001d300       ?_Myend@?$_Vector_alloc@U?$_Vec_base_types@HV?$allocator@H@std@@@std@@@std@@QAEAAPAHXZ 100cc300 f i aim.obj
 0002:0001d330       ?_Myend@?$_Vector_alloc@U?$_Vec_base_types@HV?$allocator@H@std@@@std@@@std@@QBEABQAHXZ 100cc330 f i aim.obj
 0002:0001d360       ?_Myend@?$_Vector_alloc@U?$_Vec_base_types@PAVRecvProp@@V?$allocator@PAVRecvProp@@@std@@@std@@@std@@QAEAAPAPAVRecvProp@@XZ 100cc360 f i aim.obj
 0002:0001d390       ?_Myend@?$_Vector_alloc@U?$_Vec_base_types@PAVRecvProp@@V?$allocator@PAVRecvProp@@@std@@@std@@@std@@QBEABQAPAVRecvProp@@XZ 100cc390 f i aim.obj
 0002:0001d3c0       ?_Myend@?$_Vector_alloc@U?$_Vec_base_types@Unetvar_table@NetvarSys@@V?$allocator@Unetvar_table@NetvarSys@@@std@@@std@@@std@@QAEAAPAUnetvar_table@NetvarSys@@XZ 100cc3c0 f i aim.obj
 0002:0001d3f0       ?_Myend@?$_Vector_alloc@U?$_Vec_base_types@Unetvar_table@NetvarSys@@V?$allocator@Unetvar_table@NetvarSys@@@std@@@std@@@std@@QBEABQAUnetvar_table@NetvarSys@@XZ 100cc3f0 f i aim.obj
 0002:0001d420       ?_Myfirst@?$_Vector_alloc@U?$_Vec_base_types@HV?$allocator@H@std@@@std@@@std@@QAEAAPAHXZ 100cc420 f i aim.obj
 0002:0001d450       ?_Myfirst@?$_Vector_alloc@U?$_Vec_base_types@HV?$allocator@H@std@@@std@@@std@@QBEABQAHXZ 100cc450 f i aim.obj
 0002:0001d480       ?_Myfirst@?$_Vector_alloc@U?$_Vec_base_types@PAVRecvProp@@V?$allocator@PAVRecvProp@@@std@@@std@@@std@@QAEAAPAPAVRecvProp@@XZ 100cc480 f i aim.obj
 0002:0001d4b0       ?_Myfirst@?$_Vector_alloc@U?$_Vec_base_types@PAVRecvProp@@V?$allocator@PAVRecvProp@@@std@@@std@@@std@@QBEABQAPAVRecvProp@@XZ 100cc4b0 f i aim.obj
 0002:0001d4e0       ?_Myfirst@?$_Vector_alloc@U?$_Vec_base_types@Unetvar_table@NetvarSys@@V?$allocator@Unetvar_table@NetvarSys@@@std@@@std@@@std@@QAEAAPAUnetvar_table@NetvarSys@@XZ 100cc4e0 f i aim.obj
 0002:0001d510       ?_Myfirst@?$_Vector_alloc@U?$_Vec_base_types@Unetvar_table@NetvarSys@@V?$allocator@Unetvar_table@NetvarSys@@@std@@@std@@@std@@QBEABQAUnetvar_table@NetvarSys@@XZ 100cc510 f i aim.obj
 0002:0001d540       ?_Mylast@?$_Vector_alloc@U?$_Vec_base_types@HV?$allocator@H@std@@@std@@@std@@QAEAAPAHXZ 100cc540 f i aim.obj
 0002:0001d570       ?_Mylast@?$_Vector_alloc@U?$_Vec_base_types@PAVRecvProp@@V?$allocator@PAVRecvProp@@@std@@@std@@@std@@QAEAAPAPAVRecvProp@@XZ 100cc570 f i aim.obj
 0002:0001d5a0       ?_Mylast@?$_Vector_alloc@U?$_Vec_base_types@Unetvar_table@NetvarSys@@V?$allocator@Unetvar_table@NetvarSys@@@std@@@std@@@std@@QAEAAPAUnetvar_table@NetvarSys@@XZ 100cc5a0 f i aim.obj
 0002:0001d5d0       ?_Myptr@?$_String_val@U?$_Simple_types@D@std@@@std@@QAEPADXZ 100cc5d0 f i aim.obj
 0002:0001d620       ?_Orphan_all@?$_String_alloc@U?$_String_base_types@DV?$allocator@D@std@@@std@@@std@@QAEXXZ 100cc620 f i aim.obj
 0002:0001d650       ?_Orphan_all@?$_Vector_alloc@U?$_Vec_base_types@HV?$allocator@H@std@@@std@@@std@@QAEXXZ 100cc650 f i aim.obj
 0002:0001d680       ?_Orphan_all@?$_Vector_alloc@U?$_Vec_base_types@PAVRecvProp@@V?$allocator@PAVRecvProp@@@std@@@std@@@std@@QAEXXZ 100cc680 f i aim.obj
 0002:0001d6b0       ?_Orphan_all@?$_Vector_alloc@U?$_Vec_base_types@Unetvar_table@NetvarSys@@V?$allocator@Unetvar_table@NetvarSys@@@std@@@std@@@std@@QAEXXZ 100cc6b0 f i aim.obj
 0002:0001d6e0       ?_Orphan_all@_Container_base0@std@@QAEXXZ 100cc6e0 f i aim.obj
 0002:0001d700       ?_Tidy@?$vector@HV?$allocator@H@std@@@std@@AAEXXZ 100cc700 f i aim.obj
 0002:0001d7c0       ?_Tidy@?$vector@PAVRecvProp@@V?$allocator@PAVRecvProp@@@std@@@std@@AAEXXZ 100cc7c0 f i aim.obj
 0002:0001d880       ?_Tidy@?$vector@Unetvar_table@NetvarSys@@V?$allocator@Unetvar_table@NetvarSys@@@std@@@std@@AAEXXZ 100cc880 f i aim.obj
 0002:0001d940       ?_Tidy_deallocate@?$basic_string@DU?$char_traits@D@std@@V?$allocator@D@2@@std@@QAEXXZ 100cc940 f i aim.obj
 0002:0001da10       ?_Tidy_init@?$basic_string@DU?$char_traits@D@std@@V?$allocator@D@2@@std@@QAEXXZ 100cca10 f i aim.obj
 0002:0001da80       ?_Unchecked_begin@?$vector@HV?$allocator@H@std@@@std@@QAEPAHXZ 100cca80 f i aim.obj
 0002:0001dab0       ?_Unchecked_end@?$vector@HV?$allocator@H@std@@@std@@QAEPAHXZ 100ccab0 f i aim.obj
 0002:0001dae0       ?_Xlen@?$basic_string@DU?$char_traits@D@std@@V?$allocator@D@2@@std@@SAXXZ 100ccae0 f i aim.obj
 0002:0001db00       ?_Xlength@?$vector@HV?$allocator@H@std@@@std@@CAXXZ 100ccb00 f i aim.obj
 0002:0001db20       ?__autoclassinit2@?$vector@HV?$allocator@H@std@@@std@@QAEXI@Z 100ccb20 f i aim.obj
 0002:0001db50       ?__autoclassinit2@NetvarSys@@QAEXI@Z 100ccb50 f i aim.obj
 0002:0001db80       ?allocate@?$allocator@D@std@@QAEPADI@Z 100ccb80 f i aim.obj
 0002:0001dbb0       ?allocate@?$allocator@H@std@@QAEPAHI@Z 100ccbb0 f i aim.obj
 0002:0001dbe0       ?assign@?$basic_string@DU?$char_traits@D@std@@V?$allocator@D@2@@std@@QAEAAV12@QBD@Z 100ccbe0 f i aim.obj
 0002:0001dc30       ?assign@?$basic_string@DU?$char_traits@D@std@@V?$allocator@D@2@@std@@QAEAAV12@QBDI@Z 100ccc30 f i aim.obj
 0002:0001dce0       ?assign@?$char_traits@D@std@@SAXAADABD@Z 100ccce0 f i aim.obj
 0002:0001dd00       ?begin@?$initializer_list@H@std@@QBEPBHXZ 100ccd00 f i aim.obj
 0002:0001dd20       ?capacity@?$vector@HV?$allocator@H@std@@@std@@QBEIXZ 100ccd20 f i aim.obj
 0002:0001dd60       ?capacity@?$vector@PAVRecvProp@@V?$allocator@PAVRecvProp@@@std@@@std@@QBEIXZ 100ccd60 f i aim.obj
 0002:0001dda0       ?capacity@?$vector@Unetvar_table@NetvarSys@@V?$allocator@Unetvar_table@NetvarSys@@@std@@@std@@QBEIXZ 100ccda0 f i aim.obj
 0002:0001dde0       ?copy@?$char_traits@D@std@@SAPADQADQBDI@Z 100ccde0 f i aim.obj
 0002:0001de10       ?cos@@YAMM@Z               100cce10 f i aim.obj
 0002:0001de40       ?deallocate@?$allocator@D@std@@QAEXQADI@Z 100cce40 f i aim.obj
 0002:0001de80       ?deallocate@?$allocator@H@std@@QAEXQAHI@Z 100cce80 f i aim.obj
 0002:0001dec0       ?deallocate@?$allocator@PAVRecvProp@@@std@@QAEXQAPAVRecvProp@@I@Z 100ccec0 f i aim.obj
 0002:0001df00       ?deallocate@?$allocator@Unetvar_table@NetvarSys@@@std@@QAEXQAUnetvar_table@NetvarSys@@I@Z 100ccf00 f i aim.obj
 0002:0001df40       ?do_aimbot@legitbot@@QAEXPAVC_BasePlayer@@PAVC_BaseCombatWeapon@@PAVCUserCmd@@@Z 100ccf40 f   aim.obj
 0002:0001e300       ?end@?$initializer_list@H@std@@QBEPBHXZ 100cd300 f i aim.obj
 0002:0001e320       ?get_hitbox@legitbot@@AAE_NPAVC_BasePlayer@@0AAVVector@@@Z 100cd320 f   aim.obj
 0002:0001e5e0       ?get_randomized_angles@legitbot@@QAE?AVQAngle@@PAVC_BasePlayer@@@Z 100cd5e0 f   aim.obj
 0002:0001e890       ?get_randomized_recoil@legitbot@@QAE?AVQAngle@@PAVC_BasePlayer@@@Z 100cd890 f   aim.obj
 0002:0001e9e0       ?get_target@legitbot@@AAEHPAVC_BasePlayer@@PAVC_BaseCombatWeapon@@PAVCUserCmd@@AAVVector@@@Z 100cd9e0 f   aim.obj
 0002:0001ec70       ?infinity@?$numeric_limits@M@std@@SAMXZ 100cdc70 f i aim.obj
 0002:0001ec90       ?length@?$char_traits@D@std@@SAIQBD@Z 100cdc90 f i aim.obj
 0002:0001ecc0       ?m_aimPunchAngle@C_BasePlayer@@QBEAAVQAngle@@XZ 100cdcc0 f i aim.obj
 0002:0001edf0       ?m_bGunGameImmunity@C_BasePlayer@@QBEAA_NXZ 100cddf0 f i aim.obj
 0002:0001ef20       ?m_fFlags@C_BasePlayer@@QBEAAHXZ 100cdf20 f i aim.obj
 0002:0001f050       ?m_iShotsFired@C_BasePlayer@@QBEAAHXZ 100ce050 f i aim.obj
 0002:0001f180       ?m_iTeamNum@C_BaseEntity@@QBEAAHXZ 100ce180 f i aim.obj
 0002:0001f2b0       ?m_lifeState@C_BasePlayer@@QBEAAHXZ 100ce2b0 f i aim.obj
 0002:0001f3e0       ?max@?$numeric_limits@H@std@@SAHXZ 100ce3e0 f i aim.obj
 0002:0001f400       ?max_size@?$_Default_allocator_traits@V?$allocator@D@std@@@std@@SAIABV?$allocator@D@2@@Z 100ce400 f i aim.obj
 0002:0001f420       ?max_size@?$_Default_allocator_traits@V?$allocator@H@std@@@std@@SAIABV?$allocator@H@2@@Z 100ce420 f i aim.obj
 0002:0001f440       ?max_size@?$basic_string@DU?$char_traits@D@std@@V?$allocator@D@2@@std@@QBEIXZ 100ce440 f i aim.obj
 0002:0001f4e0       ?max_size@?$vector@HV?$allocator@H@std@@@std@@QBEIXZ 100ce4e0 f i aim.obj
 0002:0001f540       ?move@?$char_traits@D@std@@SAPADQADQBDI@Z 100ce540 f i aim.obj
 0002:0001f570       ?on_create_move@legitbot@@QAEXPAVCUserCmd@@PAVC_BasePlayer@@PAVC_BaseCombatWeapon@@@Z 100ce570 f   aim.obj
 0002:0001f5b0       ?sin@@YAMM@Z               100ce5b0 f i aim.obj
 0002:0001f5e0       ?weapon_settings@legitbot@@QAEXPAVC_BaseCombatWeapon@@@Z 100ce5e0 f   aim.obj
 0002:0001f740       _cosf                      100ce740 f i aim.obj
 0002:0001f780       _sinf                      100ce780 f i aim.obj
 0002:0001f7c0       _wmemcpy                   100ce7c0 f i aim.obj
 0002:0001f7f0       ??$?0AAU?$equal_to@H@std@@M@?$_Compressed_pair@U?$equal_to@H@std@@M$00@std@@QAE@U_One_then_variadic_args_t@1@AAU?$equal_to@H@1@$$QAM@Z 100ce7f0 f i FireEventClientSide.obj
 0002:0001f840       ??$?0AAU?$hash@H@std@@U_One_then_variadic_args_t@1@AAU?$equal_to@H@1@M@?$_Compressed_pair@U?$hash@H@std@@V?$_Compressed_pair@U?$equal_to@H@std@@M$00@2@$00@std@@QAE@U_One_then_variadic_args_t@1@AAU?$hash@H@1@$$QAU21@AAU?$equal_to@H@1@$$QAM@Z 100ce840 f i FireEventClientSide.obj
 0002:0001f8b0       ??$?0ABV?$allocator@U?$pair@$$CBHUWeaponItemCfg_t@@@std@@@std@@$$V@?$_Compressed_pair@V?$allocator@U?$_List_node@U?$pair@$$CBHUWeaponItemCfg_t@@@std@@PAX@std@@@std@@V?$_List_val@U?$_List_simple_types@U?$pair@$$CBHUWeaponItemCfg_t@@@std@@@std@@@2@$00@std@@QAE@U_One_then_variadic_args_t@1@ABV?$allocator@U?$pair@$$CBHUWeaponItemCfg_t@@@std@@@1@@Z 100ce8b0 f i FireEventClientSide.obj
 0002:0001f900       ??$?0ABV?$allocator@U?$pair@$$CBHUWeaponItemCfg_t@@@std@@@std@@X@?$_List_alloc@U?$_List_base_types@U?$pair@$$CBHUWeaponItemCfg_t@@@std@@V?$allocator@U?$pair@$$CBHUWeaponItemCfg_t@@@std@@@2@@std@@@std@@QAE@ABV?$allocator@U?$pair@$$CBHUWeaponItemCfg_t@@@std@@@1@@Z 100ce900 f i FireEventClientSide.obj
 0002:0001f960       ??$?0ABV?$allocator@U?$pair@$$CBHUWeaponItemCfg_t@@@std@@@std@@X@?$_List_buy@U?$pair@$$CBHUWeaponItemCfg_t@@@std@@V?$allocator@U?$pair@$$CBHUWeaponItemCfg_t@@@std@@@2@@std@@QAE@ABV?$allocator@U?$pair@$$CBHUWeaponItemCfg_t@@@std@@@1@@Z 100ce960 f i FireEventClientSide.obj
 0002:0001f9a0       ??$?0ABV?$allocator@V?$_List_unchecked_iterator@V?$_List_val@U?$_List_simple_types@U?$pair@$$CBHUWeaponItemCfg_t@@@std@@@std@@@std@@@std@@@std@@$$V@?$_Compressed_pair@V?$allocator@V?$_List_unchecked_iterator@V?$_List_val@U?$_List_simple_types@U?$pair@$$CBHUWeaponItemCfg_t@@@std@@@std@@@std@@@std@@@std@@V?$_Vector_val@U?$_Simple_types@V?$_List_unchecked_iterator@V?$_List_val@U?$_List_simple_types@U?$pair@$$CBHUWeaponItemCfg_t@@@std@@@std@@@std@@@std@@@std@@@2@$00@std@@QAE@U_One_then_variadic_args_t@1@ABV?$allocator@V?$_List_unchecked_iterator@V?$_List_val@U?$_List_simple_types@U?$pair@$$CBHUWeaponItemCfg_t@@@std@@@std@@@std@@@std@@@1@@Z 100ce9a0 f i FireEventClientSide.obj
 0002:0001f9e0       ??$?0ABV?$allocator@V?$_List_unchecked_iterator@V?$_List_val@U?$_List_simple_types@U?$pair@$$CBHUWeaponItemCfg_t@@@std@@@std@@@std@@@std@@@std@@X@?$_Vector_alloc@U?$_Vec_base_types@V?$_List_unchecked_iterator@V?$_List_val@U?$_List_simple_types@U?$pair@$$CBHUWeaponItemCfg_t@@@std@@@std@@@std@@@std@@V?$allocator@V?$_List_unchecked_iterator@V?$_List_val@U?$_List_simple_types@U?$pair@$$CBHUWeaponItemCfg_t@@@std@@@std@@@std@@@std@@@2@@std@@@std@@QAE@ABV?$allocator@V?$_List_unchecked_iterator@V?$_List_val@U?$_List_simple_types@U?$pair@$$CBHUWeaponItemCfg_t@@@std@@@std@@@std@@@std@@@1@@Z 100ce9e0 f i FireEventClientSide.obj
 0002:0001fa20       ??$?0U?$integral_constant@_N$00@std@@@_Unused_parameter@std@@QAE@$$QAU?$integral_constant@_N$00@1@@Z 100cea20 f i FireEventClientSide.obj
 0002:0001fa40       ??$?0U?$pair@$$CBHUWeaponItemCfg_t@@@std@@@?$allocator@U?$_List_node@U?$pair@$$CBHUWeaponItemCfg_t@@@std@@PAX@std@@@std@@QAE@ABV?$allocator@U?$pair@$$CBHUWeaponItemCfg_t@@@std@@@1@@Z 100cea40 f i FireEventClientSide.obj
 0002:0001fa60       ??$?0U?$pair@$$CBHUWeaponItemCfg_t@@@std@@@?$allocator@V?$_List_unchecked_iterator@V?$_List_val@U?$_List_simple_types@U?$pair@$$CBHUWeaponItemCfg_t@@@std@@@std@@@std@@@std@@@std@@QAE@ABV?$allocator@U?$pair@$$CBHUWeaponItemCfg_t@@@std@@@1@@Z 100cea60 f i FireEventClientSide.obj
 0002:0001fa80       ??$_Destroy_range1@V?$allocator@V?$_List_unchecked_iterator@V?$_List_val@U?$_List_simple_types@U?$pair@$$CBHUWeaponItemCfg_t@@@std@@@std@@@std@@@std@@@std@@@std@@YAXPAV?$_List_unchecked_iterator@V?$_List_val@U?$_List_simple_types@U?$pair@$$CBHUWeaponItemCfg_t@@@std@@@std@@@std@@@0@0AAV?$allocator@V?$_List_unchecked_iterator@V?$_List_val@U?$_List_simple_types@U?$pair@$$CBHUWeaponItemCfg_t@@@std@@@std@@@std@@@std@@@0@U?$integral_constant@_N$00@0@@Z 100cea80 f i FireEventClientSide.obj
 0002:0001faa0       ??$_Destroy_range@V?$allocator@V?$_List_unchecked_iterator@V?$_List_val@U?$_List_simple_types@U?$pair@$$CBHUWeaponItemCfg_t@@@std@@@std@@@std@@@std@@@std@@@std@@YAXPAV?$_List_unchecked_iterator@V?$_List_val@U?$_List_simple_types@U?$pair@$$CBHUWeaponItemCfg_t@@@std@@@std@@@std@@@0@0AAV?$allocator@V?$_List_unchecked_iterator@V?$_List_val@U?$_List_simple_types@U?$pair@$$CBHUWeaponItemCfg_t@@@std@@@std@@@std@@@std@@@0@@Z 100ceaa0 f i FireEventClientSide.obj
 0002:0001fae0       ??$_Fill_memset_is_safe@PAV?$_List_unchecked_iterator@V?$_List_val@U?$_List_simple_types@U?$pair@$$CBHUWeaponItemCfg_t@@@std@@@std@@@std@@@std@@V12@@std@@YA?AU?$integral_constant@_N$0A@@0@ABQAV?$_List_unchecked_iterator@V?$_List_val@U?$_List_simple_types@U?$pair@$$CBHUWeaponItemCfg_t@@@std@@@std@@@std@@@0@ABV20@@Z 100ceae0 f i FireEventClientSide.obj
 0002:0001fb00       ??$_Fill_unchecked1@PAV?$_List_unchecked_iterator@V?$_List_val@U?$_List_simple_types@U?$pair@$$CBHUWeaponItemCfg_t@@@std@@@std@@@std@@@std@@V12@@std@@YAXPAV?$_List_unchecked_iterator@V?$_List_val@U?$_List_simple_types@U?$pair@$$CBHUWeaponItemCfg_t@@@std@@@std@@@std@@@0@0ABV10@U?$integral_constant@_N$0A@@0@@Z 100ceb00 f i FireEventClientSide.obj
 0002:0001fb40       ??$_Fill_unchecked@PAV?$_List_unchecked_iterator@V?$_List_val@U?$_List_simple_types@U?$pair@$$CBHUWeaponItemCfg_t@@@std@@@std@@@std@@@std@@V12@@std@@YAXPAV?$_List_unchecked_iterator@V?$_List_val@U?$_List_simple_types@U?$pair@$$CBHUWeaponItemCfg_t@@@std@@@std@@@std@@@0@0ABV10@@Z 100ceb40 f i FireEventClientSide.obj
 0002:0001fb90       ??$_Freenode0@V?$allocator@U?$_List_node@U?$pair@$$CBHUWeaponItemCfg_t@@@std@@PAX@std@@@std@@@?$_List_node@U?$pair@$$CBHUWeaponItemCfg_t@@@std@@PAX@std@@SAXAAV?$allocator@U?$_List_node@U?$pair@$$CBHUWeaponItemCfg_t@@@std@@PAX@std@@@1@PAU01@@Z 100ceb90 f i FireEventClientSide.obj
 0002:0001fc50       ??$_Ptr_move_cat@V?$_List_unchecked_iterator@V?$_List_val@U?$_List_simple_types@U?$pair@$$CBHUWeaponItemCfg_t@@@std@@@std@@@std@@@std@@V12@@std@@YA?AU_Trivially_copyable_ptr_iterator_tag@0@ABQAV?$_List_unchecked_iterator@V?$_List_val@U?$_List_simple_types@U?$pair@$$CBHUWeaponItemCfg_t@@@std@@@std@@@std@@@0@0@Z 100cec50 f i FireEventClientSide.obj
 0002:0001fdb0       ??$_Rechecked@PAV?$_List_unchecked_iterator@V?$_List_val@U?$_List_simple_types@U?$pair@$$CBHUWeaponItemCfg_t@@@std@@@std@@@std@@@std@@PAV12@@std@@YAAAPAV?$_List_unchecked_iterator@V?$_List_val@U?$_List_simple_types@U?$pair@$$CBHUWeaponItemCfg_t@@@std@@@std@@@std@@@0@AAPAV10@PAV10@@Z 100cedb0 f i FireEventClientSide.obj
 0002:0001fde0       ??$_Unchecked@PAV?$_List_unchecked_iterator@V?$_List_val@U?$_List_simple_types@U?$pair@$$CBHUWeaponItemCfg_t@@@std@@@std@@@std@@@std@@@std@@YAPAV?$_List_unchecked_iterator@V?$_List_val@U?$_List_simple_types@U?$pair@$$CBHUWeaponItemCfg_t@@@std@@@std@@@std@@@0@PAV10@@Z 100cede0 f i FireEventClientSide.obj
 0002:0001fe00       ??$_Unfancy@V?$_List_unchecked_iterator@V?$_List_val@U?$_List_simple_types@U?$pair@$$CBHUWeaponItemCfg_t@@@std@@@std@@@std@@@std@@@std@@YAPAV?$_List_unchecked_iterator@V?$_List_val@U?$_List_simple_types@U?$pair@$$CBHUWeaponItemCfg_t@@@std@@@std@@@std@@@0@PAV10@@Z 100cee00 f i FireEventClientSide.obj
 0002:0001fe20       ??$_Uninit_alloc_fill_n1@PAV?$_List_unchecked_iterator@V?$_List_val@U?$_List_simple_types@U?$pair@$$CBHUWeaponItemCfg_t@@@std@@@std@@@std@@@std@@IV?$allocator@V?$_List_unchecked_iterator@V?$_List_val@U?$_List_simple_types@U?$pair@$$CBHUWeaponItemCfg_t@@@std@@@std@@@std@@@std@@@2@@std@@YAPAV?$_List_unchecked_iterator@V?$_List_val@U?$_List_simple_types@U?$pair@$$CBHUWeaponItemCfg_t@@@std@@@std@@@std@@@0@PAV10@IABV10@AAV?$allocator@V?$_List_unchecked_iterator@V?$_List_val@U?$_List_simple_types@U?$pair@$$CBHUWeaponItemCfg_t@@@std@@@std@@@std@@@std@@@0@U?$integral_constant@_N$0A@@0@@Z 100cee20 f i FireEventClientSide.obj
 0002:0001ff20       ??$_Uninitialized_fill_n@PAV?$_List_unchecked_iterator@V?$_List_val@U?$_List_simple_types@U?$pair@$$CBHUWeaponItemCfg_t@@@std@@@std@@@std@@@std@@IV?$allocator@V?$_List_unchecked_iterator@V?$_List_val@U?$_List_simple_types@U?$pair@$$CBHUWeaponItemCfg_t@@@std@@@std@@@std@@@std@@@2@@std@@YAPAV?$_List_unchecked_iterator@V?$_List_val@U?$_List_simple_types@U?$pair@$$CBHUWeaponItemCfg_t@@@std@@@std@@@std@@@0@PAV10@IABV10@AAV?$allocator@V?$_List_unchecked_iterator@V?$_List_val@U?$_List_simple_types@U?$pair@$$CBHUWeaponItemCfg_t@@@std@@@std@@@std@@@std@@@0@@Z 100cef20 f i FireEventClientSide.obj
 0002:0001ff60       ??$_Uninitialized_move@PAV?$_List_unchecked_iterator@V?$_List_val@U?$_List_simple_types@U?$pair@$$CBHUWeaponItemCfg_t@@@std@@@std@@@std@@@std@@PAV12@V?$allocator@V?$_List_unchecked_iterator@V?$_List_val@U?$_List_simple_types@U?$pair@$$CBHUWeaponItemCfg_t@@@std@@@std@@@std@@@std@@@2@@std@@YAPAV?$_List_unchecked_iterator@V?$_List_val@U?$_List_simple_types@U?$pair@$$CBHUWeaponItemCfg_t@@@std@@@std@@@std@@@0@PAV10@00AAV?$allocator@V?$_List_unchecked_iterator@V?$_List_val@U?$_List_simple_types@U?$pair@$$CBHUWeaponItemCfg_t@@@std@@@std@@@std@@@std@@@0@@Z 100cef60 f i FireEventClientSide.obj
 0002:00020030       ??$_Uninitialized_move_al_unchecked@PAV?$_List_unchecked_iterator@V?$_List_val@U?$_List_simple_types@U?$pair@$$CBHUWeaponItemCfg_t@@@std@@@std@@@std@@@std@@PAV12@V?$allocator@V?$_List_unchecked_iterator@V?$_List_val@U?$_List_simple_types@U?$pair@$$CBHUWeaponItemCfg_t@@@std@@@std@@@std@@@std@@@2@@std@@YAPAV?$_List_unchecked_iterator@V?$_List_val@U?$_List_simple_types@U?$pair@$$CBHUWeaponItemCfg_t@@@std@@@std@@@std@@@0@PAV10@00AAV?$allocator@V?$_List_unchecked_iterator@V?$_List_val@U?$_List_simple_types@U?$pair@$$CBHUWeaponItemCfg_t@@@std@@@std@@@std@@@std@@@0@U_General_ptr_iterator_tag@0@U_Unused_parameter@0@@Z 100cf030 f i FireEventClientSide.obj
 0002:00020130       ??$addressof@PAU?$_List_node@U?$pair@$$CBHUWeaponItemCfg_t@@@std@@PAX@std@@@std@@YAPAPAU?$_List_node@U?$pair@$$CBHUWeaponItemCfg_t@@@std@@PAX@0@AAPAU10@@Z 100cf130 f i FireEventClientSide.obj
 0002:00020150       ??$addressof@U?$pair@$$CBHUWeaponItemCfg_t@@@std@@@std@@YAPAU?$pair@$$CBHUWeaponItemCfg_t@@@0@AAU10@@Z 100cf150 f i FireEventClientSide.obj
 0002:00020170       ??$construct@PAU?$_List_node@U?$pair@$$CBHUWeaponItemCfg_t@@@std@@PAX@std@@AAPAU12@@?$_Default_allocator_traits@V?$allocator@U?$_List_node@U?$pair@$$CBHUWeaponItemCfg_t@@@std@@PAX@std@@@std@@@std@@SAXAAV?$allocator@U?$_List_node@U?$pair@$$CBHUWeaponItemCfg_t@@@std@@PAX@std@@@1@QAPAU?$_List_node@U?$pair@$$CBHUWeaponItemCfg_t@@@std@@PAX@1@AAPAU31@@Z 100cf170 f i FireEventClientSide.obj
 0002:000201c0       ??$construct@V?$_List_unchecked_iterator@V?$_List_val@U?$_List_simple_types@U?$pair@$$CBHUWeaponItemCfg_t@@@std@@@std@@@std@@@std@@ABV12@@?$_Default_allocator_traits@V?$allocator@V?$_List_unchecked_iterator@V?$_List_val@U?$_List_simple_types@U?$pair@$$CBHUWeaponItemCfg_t@@@std@@@std@@@std@@@std@@@std@@@std@@SAXAAV?$allocator@V?$_List_unchecked_iterator@V?$_List_val@U?$_List_simple_types@U?$pair@$$CBHUWeaponItemCfg_t@@@std@@@std@@@std@@@std@@@1@QAV?$_List_unchecked_iterator@V?$_List_val@U?$_List_simple_types@U?$pair@$$CBHUWeaponItemCfg_t@@@std@@@std@@@std@@@1@ABV31@@Z 100cf1c0 f i FireEventClientSide.obj
 0002:00020210       ??$construct@V?$_List_unchecked_iterator@V?$_List_val@U?$_List_simple_types@U?$pair@$$CBHUWeaponItemCfg_t@@@std@@@std@@@std@@@std@@V12@@?$_Default_allocator_traits@V?$allocator@V?$_List_unchecked_iterator@V?$_List_val@U?$_List_simple_types@U?$pair@$$CBHUWeaponItemCfg_t@@@std@@@std@@@std@@@std@@@std@@@std@@SAXAAV?$allocator@V?$_List_unchecked_iterator@V?$_List_val@U?$_List_simple_types@U?$pair@$$CBHUWeaponItemCfg_t@@@std@@@std@@@std@@@std@@@1@QAV?$_List_unchecked_iterator@V?$_List_val@U?$_List_simple_types@U?$pair@$$CBHUWeaponItemCfg_t@@@std@@@std@@@std@@@1@$$QAV31@@Z 100cf210 f i FireEventClientSide.obj
 0002:00020260       ??$destroy@PAU?$_List_node@U?$pair@$$CBHUWeaponItemCfg_t@@@std@@PAX@std@@@?$_Default_allocator_traits@V?$allocator@U?$_List_node@U?$pair@$$CBHUWeaponItemCfg_t@@@std@@PAX@std@@@std@@@std@@SAXAAV?$allocator@U?$_List_node@U?$pair@$$CBHUWeaponItemCfg_t@@@std@@PAX@std@@@1@QAPAU?$_List_node@U?$pair@$$CBHUWeaponItemCfg_t@@@std@@PAX@1@@Z 100cf260 f i FireEventClientSide.obj
 0002:00020280       ??$destroy@U?$pair@$$CBHUWeaponItemCfg_t@@@std@@@?$_Default_allocator_traits@V?$allocator@U?$_List_node@U?$pair@$$CBHUWeaponItemCfg_t@@@std@@PAX@std@@@std@@@std@@SAXAAV?$allocator@U?$_List_node@U?$pair@$$CBHUWeaponItemCfg_t@@@std@@PAX@std@@@1@QAU?$pair@$$CBHUWeaponItemCfg_t@@@1@@Z 100cf280 f i FireEventClientSide.obj
 0002:000202a0       ??$forward@AAPAU?$_List_node@U?$pair@$$CBHUWeaponItemCfg_t@@@std@@PAX@std@@@std@@YAAAPAU?$_List_node@U?$pair@$$CBHUWeaponItemCfg_t@@@std@@PAX@0@AAPAU10@@Z 100cf2a0 f i FireEventClientSide.obj
 0002:000202c0       ??$forward@AAU?$equal_to@H@std@@@std@@YAAAU?$equal_to@H@0@AAU10@@Z 100cf2c0 f i FireEventClientSide.obj
 0002:000202e0       ??$forward@AAU?$hash@H@std@@@std@@YAAAU?$hash@H@0@AAU10@@Z 100cf2e0 f i FireEventClientSide.obj
 0002:00020300       ??$forward@ABV?$_List_unchecked_iterator@V?$_List_val@U?$_List_simple_types@U?$pair@$$CBHUWeaponItemCfg_t@@@std@@@std@@@std@@@std@@@std@@YAABV?$_List_unchecked_iterator@V?$_List_val@U?$_List_simple_types@U?$pair@$$CBHUWeaponItemCfg_t@@@std@@@std@@@std@@@0@ABV10@@Z 100cf300 f i FireEventClientSide.obj
 0002:00020320       ??$forward@ABV?$allocator@U?$pair@$$CBHUWeaponItemCfg_t@@@std@@@std@@@std@@YAABV?$allocator@U?$pair@$$CBHUWeaponItemCfg_t@@@std@@@0@ABV10@@Z 100cf320 f i FireEventClientSide.obj
 0002:00020340       ??$forward@ABV?$allocator@V?$_List_unchecked_iterator@V?$_List_val@U?$_List_simple_types@U?$pair@$$CBHUWeaponItemCfg_t@@@std@@@std@@@std@@@std@@@std@@@std@@YAABV?$allocator@V?$_List_unchecked_iterator@V?$_List_val@U?$_List_simple_types@U?$pair@$$CBHUWeaponItemCfg_t@@@std@@@std@@@std@@@std@@@0@ABV10@@Z 100cf340 f i FireEventClientSide.obj
 0002:00020360       ??$forward@M@std@@YA$$QAMAAM@Z 100cf360 f i FireEventClientSide.obj
 0002:00020380       ??$forward@U_One_then_variadic_args_t@std@@@std@@YA$$QAU_One_then_variadic_args_t@0@AAU10@@Z 100cf380 f i FireEventClientSide.obj
 0002:000203a0       ??$forward@V?$_List_unchecked_iterator@V?$_List_val@U?$_List_simple_types@U?$pair@$$CBHUWeaponItemCfg_t@@@std@@@std@@@std@@@std@@@std@@YA$$QAV?$_List_unchecked_iterator@V?$_List_val@U?$_List_simple_types@U?$pair@$$CBHUWeaponItemCfg_t@@@std@@@std@@@std@@@0@AAV10@@Z 100cf3a0 f i FireEventClientSide.obj
 0002:000203c0       ??$get_original@P6E_NPAVIGameEventManager2@@PAVIGameEvent@@@Z@vfunc_hook@@QAEP6E_NPAVIGameEventManager2@@PAVIGameEvent@@@ZH@Z 100cf3c0 f i FireEventClientSide.obj
 0002:00020400       ??$move@AAV?$_List_unchecked_iterator@V?$_List_val@U?$_List_simple_types@U?$pair@$$CBHUWeaponItemCfg_t@@@std@@@std@@@std@@@std@@@std@@YA$$QAV?$_List_unchecked_iterator@V?$_List_val@U?$_List_simple_types@U?$pair@$$CBHUWeaponItemCfg_t@@@std@@@std@@@std@@@0@AAV10@@Z 100cf400 f i FireEventClientSide.obj
 0002:00020420       ??0?$Singleton@VSkinchanger@@@@IAE@XZ 100cf420 f i FireEventClientSide.obj
 0002:00020440       ??0?$_Hash@V?$_Umap_traits@HUWeaponItemCfg_t@@V?$_Uhash_compare@HU?$hash@H@std@@U?$equal_to@H@2@@std@@V?$allocator@U?$pair@$$CBHUWeaponItemCfg_t@@@std@@@3@$0A@@std@@@std@@QAE@ABV?$_Uhash_compare@HU?$hash@H@std@@U?$equal_to@H@2@@1@ABV?$allocator@U?$pair@$$CBHUWeaponItemCfg_t@@@std@@@1@@Z 100cf440 f i FireEventClientSide.obj
 0002:00020510       ??0?$_List_unchecked_const_iterator@V?$_List_val@U?$_List_simple_types@U?$pair@$$CBHUWeaponItemCfg_t@@@std@@@std@@@std@@U_Iterator_base0@2@@std@@QAE@PAU?$_List_node@U?$pair@$$CBHUWeaponItemCfg_t@@@std@@PAX@1@PBV?$_List_val@U?$_List_simple_types@U?$pair@$$CBHUWeaponItemCfg_t@@@std@@@std@@@1@@Z 100cf510 f i FireEventClientSide.obj
 0002:00020550       ??0?$_List_unchecked_iterator@V?$_List_val@U?$_List_simple_types@U?$pair@$$CBHUWeaponItemCfg_t@@@std@@@std@@@std@@@std@@QAE@PAU?$_List_node@U?$pair@$$CBHUWeaponItemCfg_t@@@std@@PAX@1@PBV?$_List_val@U?$_List_simple_types@U?$pair@$$CBHUWeaponItemCfg_t@@@std@@@std@@@1@@Z 100cf550 f i FireEventClientSide.obj
 0002:00020590       ??0?$_List_val@U?$_List_simple_types@U?$pair@$$CBHUWeaponItemCfg_t@@@std@@@std@@@std@@QAE@XZ 100cf590 f i FireEventClientSide.obj
 0002:000205d0       ??0?$_Uhash_compare@HU?$hash@H@std@@U?$equal_to@H@2@@std@@QAE@U?$hash@H@1@U?$equal_to@H@1@@Z 100cf5d0 f i FireEventClientSide.obj
 0002:00020620       ??0?$_Umap_traits@HUWeaponItemCfg_t@@V?$_Uhash_compare@HU?$hash@H@std@@U?$equal_to@H@2@@std@@V?$allocator@U?$pair@$$CBHUWeaponItemCfg_t@@@std@@@3@$0A@@std@@QAE@ABV?$_Uhash_compare@HU?$hash@H@std@@U?$equal_to@H@2@@1@@Z 100cf620 f i FireEventClientSide.obj
 0002:00020650       ??0?$_Vector_val@U?$_Simple_types@V?$_List_unchecked_iterator@V?$_List_val@U?$_List_simple_types@U?$pair@$$CBHUWeaponItemCfg_t@@@std@@@std@@@std@@@std@@@std@@@std@@QAE@XZ 100cf650 f i FireEventClientSide.obj
 0002:00020690       ??0?$allocator@U?$pair@$$CBHUWeaponItemCfg_t@@@std@@@std@@QAE@XZ 100cf690 f i FireEventClientSide.obj
 0002:000206b0       ??0?$list@U?$pair@$$CBHUWeaponItemCfg_t@@@std@@V?$allocator@U?$pair@$$CBHUWeaponItemCfg_t@@@std@@@2@@std@@QAE@ABV?$allocator@U?$pair@$$CBHUWeaponItemCfg_t@@@std@@@1@@Z 100cf6b0 f i FireEventClientSide.obj
 0002:000206e0       ??0?$unordered_map@HUWeaponItemCfg_t@@U?$hash@H@std@@U?$equal_to@H@3@V?$allocator@U?$pair@$$CBHUWeaponItemCfg_t@@@std@@@3@@std@@QAE@XZ 100cf6e0 f i FireEventClientSide.obj
 0002:00020730       ??0?$vector@V?$_List_unchecked_iterator@V?$_List_val@U?$_List_simple_types@U?$pair@$$CBHUWeaponItemCfg_t@@@std@@@std@@@std@@@std@@V?$allocator@V?$_List_unchecked_iterator@V?$_List_val@U?$_List_simple_types@U?$pair@$$CBHUWeaponItemCfg_t@@@std@@@std@@@std@@@std@@@2@@std@@QAE@ABV?$allocator@V?$_List_unchecked_iterator@V?$_List_val@U?$_List_simple_types@U?$pair@$$CBHUWeaponItemCfg_t@@@std@@@std@@@std@@@std@@@1@@Z 100cf730 f i FireEventClientSide.obj
 0002:000207a0       ??0GloveItemCfg_t@@QAE@XZ  100cf7a0 f i FireEventClientSide.obj
 0002:00020800       ??0KnifeItemCfg_t@@QAE@XZ  100cf800 f i FireEventClientSide.obj
 0002:000208c0       ??0Skinchanger@@QAE@XZ     100cf8c0 f i FireEventClientSide.obj
 0002:00020960       ??1?$Singleton@VSkinchanger@@@@IAE@XZ 100cf960 f i FireEventClientSide.obj
 0002:00020980       ??1?$_Hash@V?$_Umap_traits@HUWeaponItemCfg_t@@V?$_Uhash_compare@HU?$hash@H@std@@U?$equal_to@H@2@@std@@V?$allocator@U?$pair@$$CBHUWeaponItemCfg_t@@@std@@@3@$0A@@std@@@std@@QAE@XZ 100cf980 f i FireEventClientSide.obj
 0002:000209c0       ??1?$_List_alloc@U?$_List_base_types@U?$pair@$$CBHUWeaponItemCfg_t@@@std@@V?$allocator@U?$pair@$$CBHUWeaponItemCfg_t@@@std@@@2@@std@@@std@@QAE@XZ 100cf9c0 f i FireEventClientSide.obj
 0002:00020a30       ??1?$_List_buy@U?$pair@$$CBHUWeaponItemCfg_t@@@std@@V?$allocator@U?$pair@$$CBHUWeaponItemCfg_t@@@std@@@2@@std@@QAE@XZ 100cfa30 f i FireEventClientSide.obj
 0002:00020a60       ??1?$list@U?$pair@$$CBHUWeaponItemCfg_t@@@std@@V?$allocator@U?$pair@$$CBHUWeaponItemCfg_t@@@std@@@2@@std@@QAE@XZ 100cfa60 f i FireEventClientSide.obj
 0002:00020ac0       ??1?$pair@$$CBHUWeaponItemCfg_t@@@std@@QAE@XZ 100cfac0 f i FireEventClientSide.obj
 0002:00020af0       ??1?$unordered_map@HUWeaponItemCfg_t@@U?$hash@H@std@@U?$equal_to@H@3@V?$allocator@U?$pair@$$CBHUWeaponItemCfg_t@@@std@@@3@@std@@QAE@XZ 100cfaf0 f i FireEventClientSide.obj
 0002:00020b20       ??1?$vector@V?$_List_unchecked_iterator@V?$_List_val@U?$_List_simple_types@U?$pair@$$CBHUWeaponItemCfg_t@@@std@@@std@@@std@@@std@@V?$allocator@V?$_List_unchecked_iterator@V?$_List_val@U?$_List_simple_types@U?$pair@$$CBHUWeaponItemCfg_t@@@std@@@std@@@std@@@std@@@2@@std@@QAE@XZ 100cfb20 f i FireEventClientSide.obj
 0002:00020b80       ??1KnifeItemCfg_t@@QAE@XZ  100cfb80 f i FireEventClientSide.obj
 0002:00020bb0       ??1Skinchanger@@QAE@XZ     100cfbb0 f i FireEventClientSide.obj
 0002:00020bf0       ??1WeaponItemCfg_t@@QAE@XZ 100cfbf0 f i FireEventClientSide.obj
 0002:00020c70       ??_G?$pair@$$CBHUWeaponItemCfg_t@@@std@@QAEPAXI@Z 100cfc70 f i FireEventClientSide.obj
 0002:00020cc0       ?Get@?$Singleton@VSkinchanger@@@@SAAAVSkinchanger@@XZ 100cfcc0 f i FireEventClientSide.obj
 0002:00020db0       ?_Adopt@_Iterator_base0@std@@QAEXPBX@Z 100cfdb0 f i FireEventClientSide.obj
 0002:00020dd0       ?_Buy@?$vector@V?$_List_unchecked_iterator@V?$_List_val@U?$_List_simple_types@U?$pair@$$CBHUWeaponItemCfg_t@@@std@@@std@@@std@@@std@@V?$allocator@V?$_List_unchecked_iterator@V?$_List_val@U?$_List_simple_types@U?$pair@$$CBHUWeaponItemCfg_t@@@std@@@std@@@std@@@std@@@2@@std@@AAE_NI@Z 100cfdd0 f i FireEventClientSide.obj
 0002:00020eb0       ?_Buyheadnode@?$_List_alloc@U?$_List_base_types@U?$pair@$$CBHUWeaponItemCfg_t@@@std@@V?$allocator@U?$pair@$$CBHUWeaponItemCfg_t@@@std@@@2@@std@@@std@@QAEPAU?$_List_node@U?$pair@$$CBHUWeaponItemCfg_t@@@std@@PAX@2@XZ 100cfeb0 f i FireEventClientSide.obj
 0002:00020ee0       ?_Buynode0@?$_List_alloc@U?$_List_base_types@U?$pair@$$CBHUWeaponItemCfg_t@@@std@@V?$allocator@U?$pair@$$CBHUWeaponItemCfg_t@@@std@@@2@@std@@@std@@QAEPAU?$_List_node@U?$pair@$$CBHUWeaponItemCfg_t@@@std@@PAX@2@PAU32@0@Z 100cfee0 f i FireEventClientSide.obj
 0002:00021010       ?_Calculate_growth@?$vector@V?$_List_unchecked_iterator@V?$_List_val@U?$_List_simple_types@U?$pair@$$CBHUWeaponItemCfg_t@@@std@@@std@@@std@@@std@@V?$allocator@V?$_List_unchecked_iterator@V?$_List_val@U?$_List_simple_types@U?$pair@$$CBHUWeaponItemCfg_t@@@std@@@std@@@std@@@std@@@2@@std@@ABEII@Z 100d0010 f i FireEventClientSide.obj
 0002:00021080       ?_Change_array@?$vector@V?$_List_unchecked_iterator@V?$_List_val@U?$_List_simple_types@U?$pair@$$CBHUWeaponItemCfg_t@@@std@@@std@@@std@@@std@@V?$allocator@V?$_List_unchecked_iterator@V?$_List_val@U?$_List_simple_types@U?$pair@$$CBHUWeaponItemCfg_t@@@std@@@std@@@std@@@std@@@2@@std@@AAEXQAV?$_List_unchecked_iterator@V?$_List_val@U?$_List_simple_types@U?$pair@$$CBHUWeaponItemCfg_t@@@std@@@std@@@std@@@2@II@Z 100d0080 f i FireEventClientSide.obj
 0002:00021150       ?_Destroy@?$vector@V?$_List_unchecked_iterator@V?$_List_val@U?$_List_simple_types@U?$pair@$$CBHUWeaponItemCfg_t@@@std@@@std@@@std@@@std@@V?$allocator@V?$_List_unchecked_iterator@V?$_List_val@U?$_List_simple_types@U?$pair@$$CBHUWeaponItemCfg_t@@@std@@@std@@@std@@@std@@@2@@std@@AAEXPAV?$_List_unchecked_iterator@V?$_List_val@U?$_List_simple_types@U?$pair@$$CBHUWeaponItemCfg_t@@@std@@@std@@@std@@@2@0@Z 100d0150 f i FireEventClientSide.obj
 0002:00021190       ?_Freeheadnode@?$_List_alloc@U?$_List_base_types@U?$pair@$$CBHUWeaponItemCfg_t@@@std@@V?$allocator@U?$pair@$$CBHUWeaponItemCfg_t@@@std@@@2@@std@@@std@@QAEXPAU?$_List_node@U?$pair@$$CBHUWeaponItemCfg_t@@@std@@PAX@2@@Z 100d0190 f i FireEventClientSide.obj
 0002:000211d0       ?_Freenode@?$_List_buy@U?$pair@$$CBHUWeaponItemCfg_t@@@std@@V?$allocator@U?$pair@$$CBHUWeaponItemCfg_t@@@std@@@2@@std@@QAEXPAU?$_List_node@U?$pair@$$CBHUWeaponItemCfg_t@@@std@@PAX@2@@Z 100d01d0 f i FireEventClientSide.obj
 0002:00021230       ?_Get_data@?$_List_alloc@U?$_List_base_types@U?$pair@$$CBHUWeaponItemCfg_t@@@std@@V?$allocator@U?$pair@$$CBHUWeaponItemCfg_t@@@std@@@2@@std@@@std@@QAEAAV?$_List_val@U?$_List_simple_types@U?$pair@$$CBHUWeaponItemCfg_t@@@std@@@std@@@2@XZ 100d0230 f i FireEventClientSide.obj
 0002:00021260       ?_Get_data@?$_Vector_alloc@U?$_Vec_base_types@V?$_List_unchecked_iterator@V?$_List_val@U?$_List_simple_types@U?$pair@$$CBHUWeaponItemCfg_t@@@std@@@std@@@std@@@std@@V?$allocator@V?$_List_unchecked_iterator@V?$_List_val@U?$_List_simple_types@U?$pair@$$CBHUWeaponItemCfg_t@@@std@@@std@@@std@@@std@@@2@@std@@@std@@QAEAAV?$_Vector_val@U?$_Simple_types@V?$_List_unchecked_iterator@V?$_List_val@U?$_List_simple_types@U?$pair@$$CBHUWeaponItemCfg_t@@@std@@@std@@@std@@@std@@@std@@@2@XZ 100d0260 f i FireEventClientSide.obj
 0002:00021290       ?_Get_data@?$_Vector_alloc@U?$_Vec_base_types@V?$_List_unchecked_iterator@V?$_List_val@U?$_List_simple_types@U?$pair@$$CBHUWeaponItemCfg_t@@@std@@@std@@@std@@@std@@V?$allocator@V?$_List_unchecked_iterator@V?$_List_val@U?$_List_simple_types@U?$pair@$$CBHUWeaponItemCfg_t@@@std@@@std@@@std@@@std@@@2@@std@@@std@@QBEABV?$_Vector_val@U?$_Simple_types@V?$_List_unchecked_iterator@V?$_List_val@U?$_List_simple_types@U?$pair@$$CBHUWeaponItemCfg_t@@@std@@@std@@@std@@@std@@@std@@@2@XZ 100d0290 f i FireEventClientSide.obj
 0002:000212c0       ?_Get_first@?$_Compressed_pair@V?$allocator@U?$_List_node@U?$pair@$$CBHUWeaponItemCfg_t@@@std@@PAX@std@@@std@@V?$_List_val@U?$_List_simple_types@U?$pair@$$CBHUWeaponItemCfg_t@@@std@@@std@@@2@$00@std@@QAEAAV?$allocator@U?$_List_node@U?$pair@$$CBHUWeaponItemCfg_t@@@std@@PAX@std@@@2@XZ 100d02c0 f i FireEventClientSide.obj
 0002:000212e0       ?_Get_first@?$_Compressed_pair@V?$allocator@V?$_List_unchecked_iterator@V?$_List_val@U?$_List_simple_types@U?$pair@$$CBHUWeaponItemCfg_t@@@std@@@std@@@std@@@std@@@std@@V?$_Vector_val@U?$_Simple_types@V?$_List_unchecked_iterator@V?$_List_val@U?$_List_simple_types@U?$pair@$$CBHUWeaponItemCfg_t@@@std@@@std@@@std@@@std@@@std@@@2@$00@std@@QAEAAV?$allocator@V?$_List_unchecked_iterator@V?$_List_val@U?$_List_simple_types@U?$pair@$$CBHUWeaponItemCfg_t@@@std@@@std@@@std@@@std@@@2@XZ 100d02e0 f i FireEventClientSide.obj
 0002:00021300       ?_Get_first@?$_Compressed_pair@V?$allocator@V?$_List_unchecked_iterator@V?$_List_val@U?$_List_simple_types@U?$pair@$$CBHUWeaponItemCfg_t@@@std@@@std@@@std@@@std@@@std@@V?$_Vector_val@U?$_Simple_types@V?$_List_unchecked_iterator@V?$_List_val@U?$_List_simple_types@U?$pair@$$CBHUWeaponItemCfg_t@@@std@@@std@@@std@@@std@@@std@@@2@$00@std@@QBEABV?$allocator@V?$_List_unchecked_iterator@V?$_List_val@U?$_List_simple_types@U?$pair@$$CBHUWeaponItemCfg_t@@@std@@@std@@@std@@@std@@@2@XZ 100d0300 f i FireEventClientSide.obj
 0002:00021320       ?_Get_max_bucket_size@?$_Uhash_compare@HU?$hash@H@std@@U?$equal_to@H@2@@std@@QAEAAMXZ 100d0320 f i FireEventClientSide.obj
 0002:00021350       ?_Get_second@?$_Compressed_pair@U?$equal_to@H@std@@M$00@std@@QAEAAMXZ 100d0350 f i FireEventClientSide.obj
 0002:00021370       ?_Get_second@?$_Compressed_pair@U?$hash@H@std@@V?$_Compressed_pair@U?$equal_to@H@std@@M$00@2@$00@std@@QAEAAV?$_Compressed_pair@U?$equal_to@H@std@@M$00@2@XZ 100d0370 f i FireEventClientSide.obj
 0002:00021390       ?_Get_second@?$_Compressed_pair@V?$allocator@U?$_List_node@U?$pair@$$CBHUWeaponItemCfg_t@@@std@@PAX@std@@@std@@V?$_List_val@U?$_List_simple_types@U?$pair@$$CBHUWeaponItemCfg_t@@@std@@@std@@@2@$00@std@@QAEAAV?$_List_val@U?$_List_simple_types@U?$pair@$$CBHUWeaponItemCfg_t@@@std@@@std@@@2@XZ 100d0390 f i FireEventClientSide.obj
 0002:000213b0       ?_Get_second@?$_Compressed_pair@V?$allocator@V?$_List_unchecked_iterator@V?$_List_val@U?$_List_simple_types@U?$pair@$$CBHUWeaponItemCfg_t@@@std@@@std@@@std@@@std@@@std@@V?$_Vector_val@U?$_Simple_types@V?$_List_unchecked_iterator@V?$_List_val@U?$_List_simple_types@U?$pair@$$CBHUWeaponItemCfg_t@@@std@@@std@@@std@@@std@@@std@@@2@$00@std@@QAEAAV?$_Vector_val@U?$_Simple_types@V?$_List_unchecked_iterator@V?$_List_val@U?$_List_simple_types@U?$pair@$$CBHUWeaponItemCfg_t@@@std@@@std@@@std@@@std@@@std@@@2@XZ 100d03b0 f i FireEventClientSide.obj
 0002:000213d0       ?_Get_second@?$_Compressed_pair@V?$allocator@V?$_List_unchecked_iterator@V?$_List_val@U?$_List_simple_types@U?$pair@$$CBHUWeaponItemCfg_t@@@std@@@std@@@std@@@std@@@std@@V?$_Vector_val@U?$_Simple_types@V?$_List_unchecked_iterator@V?$_List_val@U?$_List_simple_types@U?$pair@$$CBHUWeaponItemCfg_t@@@std@@@std@@@std@@@std@@@std@@@2@$00@std@@QBEABV?$_Vector_val@U?$_Simple_types@V?$_List_unchecked_iterator@V?$_List_val@U?$_List_simple_types@U?$pair@$$CBHUWeaponItemCfg_t@@@std@@@std@@@std@@@std@@@std@@@2@XZ 100d03d0 f i FireEventClientSide.obj
 0002:000213f0       ?_Getal@?$_List_alloc@U?$_List_base_types@U?$pair@$$CBHUWeaponItemCfg_t@@@std@@V?$allocator@U?$pair@$$CBHUWeaponItemCfg_t@@@std@@@2@@std@@@std@@QAEAAV?$allocator@U?$_List_node@U?$pair@$$CBHUWeaponItemCfg_t@@@std@@PAX@std@@@2@XZ 100d03f0 f i FireEventClientSide.obj
 0002:00021420       ?_Getal@?$_Vector_alloc@U?$_Vec_base_types@V?$_List_unchecked_iterator@V?$_List_val@U?$_List_simple_types@U?$pair@$$CBHUWeaponItemCfg_t@@@std@@@std@@@std@@@std@@V?$allocator@V?$_List_unchecked_iterator@V?$_List_val@U?$_List_simple_types@U?$pair@$$CBHUWeaponItemCfg_t@@@std@@@std@@@std@@@std@@@2@@std@@@std@@QAEAAV?$allocator@V?$_List_unchecked_iterator@V?$_List_val@U?$_List_simple_types@U?$pair@$$CBHUWeaponItemCfg_t@@@std@@@std@@@std@@@std@@@2@XZ 100d0420 f i FireEventClientSide.obj
 0002:00021450       ?_Getal@?$_Vector_alloc@U?$_Vec_base_types@V?$_List_unchecked_iterator@V?$_List_val@U?$_List_simple_types@U?$pair@$$CBHUWeaponItemCfg_t@@@std@@@std@@@std@@@std@@V?$allocator@V?$_List_unchecked_iterator@V?$_List_val@U?$_List_simple_types@U?$pair@$$CBHUWeaponItemCfg_t@@@std@@@std@@@std@@@std@@@2@@std@@@std@@QBEABV?$allocator@V?$_List_unchecked_iterator@V?$_List_val@U?$_List_simple_types@U?$pair@$$CBHUWeaponItemCfg_t@@@std@@@std@@@std@@@std@@@2@XZ 100d0450 f i FireEventClientSide.obj
 0002:00021480       ?_Init@?$_Hash@V?$_Umap_traits@HUWeaponItemCfg_t@@V?$_Uhash_compare@HU?$hash@H@std@@U?$equal_to@H@2@@std@@V?$allocator@U?$pair@$$CBHUWeaponItemCfg_t@@@std@@@3@$0A@@std@@@std@@IAEXI@Z 100d0480 f i FireEventClientSide.obj
 0002:000214f0       ?_Max_bucket_size@?$_Hash@V?$_Umap_traits@HUWeaponItemCfg_t@@V?$_Uhash_compare@HU?$hash@H@std@@U?$equal_to@H@2@@std@@V?$allocator@U?$pair@$$CBHUWeaponItemCfg_t@@@std@@@3@$0A@@std@@@std@@IAEAAMXZ 100d04f0 f i FireEventClientSide.obj
 0002:00021520       ?_Myend@?$_Vector_alloc@U?$_Vec_base_types@V?$_List_unchecked_iterator@V?$_List_val@U?$_List_simple_types@U?$pair@$$CBHUWeaponItemCfg_t@@@std@@@std@@@std@@@std@@V?$allocator@V?$_List_unchecked_iterator@V?$_List_val@U?$_List_simple_types@U?$pair@$$CBHUWeaponItemCfg_t@@@std@@@std@@@std@@@std@@@2@@std@@@std@@QAEAAPAV?$_List_unchecked_iterator@V?$_List_val@U?$_List_simple_types@U?$pair@$$CBHUWeaponItemCfg_t@@@std@@@std@@@std@@@2@XZ 100d0520 f i FireEventClientSide.obj
 0002:00021550       ?_Myend@?$_Vector_alloc@U?$_Vec_base_types@V?$_List_unchecked_iterator@V?$_List_val@U?$_List_simple_types@U?$pair@$$CBHUWeaponItemCfg_t@@@std@@@std@@@std@@@std@@V?$allocator@V?$_List_unchecked_iterator@V?$_List_val@U?$_List_simple_types@U?$pair@$$CBHUWeaponItemCfg_t@@@std@@@std@@@std@@@std@@@2@@std@@@std@@QBEABQAV?$_List_unchecked_iterator@V?$_List_val@U?$_List_simple_types@U?$pair@$$CBHUWeaponItemCfg_t@@@std@@@std@@@std@@@2@XZ 100d0550 f i FireEventClientSide.obj
 0002:00021580       ?_Myfirst@?$_Vector_alloc@U?$_Vec_base_types@V?$_List_unchecked_iterator@V?$_List_val@U?$_List_simple_types@U?$pair@$$CBHUWeaponItemCfg_t@@@std@@@std@@@std@@@std@@V?$allocator@V?$_List_unchecked_iterator@V?$_List_val@U?$_List_simple_types@U?$pair@$$CBHUWeaponItemCfg_t@@@std@@@std@@@std@@@std@@@2@@std@@@std@@QAEAAPAV?$_List_unchecked_iterator@V?$_List_val@U?$_List_simple_types@U?$pair@$$CBHUWeaponItemCfg_t@@@std@@@std@@@std@@@2@XZ 100d0580 f i FireEventClientSide.obj
 0002:000215b0       ?_Myfirst@?$_Vector_alloc@U?$_Vec_base_types@V?$_List_unchecked_iterator@V?$_List_val@U?$_List_simple_types@U?$pair@$$CBHUWeaponItemCfg_t@@@std@@@std@@@std@@@std@@V?$allocator@V?$_List_unchecked_iterator@V?$_List_val@U?$_List_simple_types@U?$pair@$$CBHUWeaponItemCfg_t@@@std@@@std@@@std@@@std@@@2@@std@@@std@@QBEABQAV?$_List_unchecked_iterator@V?$_List_val@U?$_List_simple_types@U?$pair@$$CBHUWeaponItemCfg_t@@@std@@@std@@@std@@@2@XZ 100d05b0 f i FireEventClientSide.obj
 0002:000215e0       ?_Myhead@?$_List_alloc@U?$_List_base_types@U?$pair@$$CBHUWeaponItemCfg_t@@@std@@V?$allocator@U?$pair@$$CBHUWeaponItemCfg_t@@@std@@@2@@std@@@std@@QAEAAPAU?$_List_node@U?$pair@$$CBHUWeaponItemCfg_t@@@std@@PAX@2@XZ 100d05e0 f i FireEventClientSide.obj
 0002:00021610       ?_Mylast@?$_Vector_alloc@U?$_Vec_base_types@V?$_List_unchecked_iterator@V?$_List_val@U?$_List_simple_types@U?$pair@$$CBHUWeaponItemCfg_t@@@std@@@std@@@std@@@std@@V?$allocator@V?$_List_unchecked_iterator@V?$_List_val@U?$_List_simple_types@U?$pair@$$CBHUWeaponItemCfg_t@@@std@@@std@@@std@@@std@@@2@@std@@@std@@QAEAAPAV?$_List_unchecked_iterator@V?$_List_val@U?$_List_simple_types@U?$pair@$$CBHUWeaponItemCfg_t@@@std@@@std@@@std@@@2@XZ 100d0610 f i FireEventClientSide.obj
 0002:00021640       ?_Mylast@?$_Vector_alloc@U?$_Vec_base_types@V?$_List_unchecked_iterator@V?$_List_val@U?$_List_simple_types@U?$pair@$$CBHUWeaponItemCfg_t@@@std@@@std@@@std@@@std@@V?$allocator@V?$_List_unchecked_iterator@V?$_List_val@U?$_List_simple_types@U?$pair@$$CBHUWeaponItemCfg_t@@@std@@@std@@@std@@@std@@@2@@std@@@std@@QBEABQAV?$_List_unchecked_iterator@V?$_List_val@U?$_List_simple_types@U?$pair@$$CBHUWeaponItemCfg_t@@@std@@@std@@@std@@@2@XZ 100d0640 f i FireEventClientSide.obj
 0002:00021670       ?_Mysize@?$_List_alloc@U?$_List_base_types@U?$pair@$$CBHUWeaponItemCfg_t@@@std@@V?$allocator@U?$pair@$$CBHUWeaponItemCfg_t@@@std@@@2@@std@@@std@@QAEAAIXZ 100d0670 f i FireEventClientSide.obj
 0002:000216a0       ?_Orphan_all@?$_Vector_alloc@U?$_Vec_base_types@V?$_List_unchecked_iterator@V?$_List_val@U?$_List_simple_types@U?$pair@$$CBHUWeaponItemCfg_t@@@std@@@std@@@std@@@std@@V?$allocator@V?$_List_unchecked_iterator@V?$_List_val@U?$_List_simple_types@U?$pair@$$CBHUWeaponItemCfg_t@@@std@@@std@@@std@@@std@@@2@@std@@@std@@QAEXXZ 100d06a0 f i FireEventClientSide.obj
 0002:000216d0       ?_Reallocate_exactly@?$vector@V?$_List_unchecked_iterator@V?$_List_val@U?$_List_simple_types@U?$pair@$$CBHUWeaponItemCfg_t@@@std@@@std@@@std@@@std@@V?$allocator@V?$_List_unchecked_iterator@V?$_List_val@U?$_List_simple_types@U?$pair@$$CBHUWeaponItemCfg_t@@@std@@@std@@@std@@@std@@@2@@std@@AAEXI@Z 100d06d0 f i FireEventClientSide.obj
 0002:000217e0       ?_Tidy@?$list@U?$pair@$$CBHUWeaponItemCfg_t@@@std@@V?$allocator@U?$pair@$$CBHUWeaponItemCfg_t@@@std@@@2@@std@@QAEXXZ 100d07e0 f i FireEventClientSide.obj
 0002:00021810       ?_Tidy@?$vector@V?$_List_unchecked_iterator@V?$_List_val@U?$_List_simple_types@U?$pair@$$CBHUWeaponItemCfg_t@@@std@@@std@@@std@@@std@@V?$allocator@V?$_List_unchecked_iterator@V?$_List_val@U?$_List_simple_types@U?$pair@$$CBHUWeaponItemCfg_t@@@std@@@std@@@std@@@std@@@2@@std@@AAEXXZ 100d0810 f i FireEventClientSide.obj
 0002:000218d0       ?_Ufill@?$vector@V?$_List_unchecked_iterator@V?$_List_val@U?$_List_simple_types@U?$pair@$$CBHUWeaponItemCfg_t@@@std@@@std@@@std@@@std@@V?$allocator@V?$_List_unchecked_iterator@V?$_List_val@U?$_List_simple_types@U?$pair@$$CBHUWeaponItemCfg_t@@@std@@@std@@@std@@@std@@@2@@std@@AAEPAV?$_List_unchecked_iterator@V?$_List_val@U?$_List_simple_types@U?$pair@$$CBHUWeaponItemCfg_t@@@std@@@std@@@std@@@2@PAV32@IABV32@@Z 100d08d0 f i FireEventClientSide.obj
 0002:00021910       ?_Umove_if_noexcept1@?$vector@V?$_List_unchecked_iterator@V?$_List_val@U?$_List_simple_types@U?$pair@$$CBHUWeaponItemCfg_t@@@std@@@std@@@std@@@std@@V?$allocator@V?$_List_unchecked_iterator@V?$_List_val@U?$_List_simple_types@U?$pair@$$CBHUWeaponItemCfg_t@@@std@@@std@@@std@@@std@@@2@@std@@AAEXPAV?$_List_unchecked_iterator@V?$_List_val@U?$_List_simple_types@U?$pair@$$CBHUWeaponItemCfg_t@@@std@@@std@@@std@@@2@00U?$integral_constant@_N$00@2@@Z 100d0910 f i FireEventClientSide.obj
 0002:00021950       ?_Umove_if_noexcept@?$vector@V?$_List_unchecked_iterator@V?$_List_val@U?$_List_simple_types@U?$pair@$$CBHUWeaponItemCfg_t@@@std@@@std@@@std@@@std@@V?$allocator@V?$_List_unchecked_iterator@V?$_List_val@U?$_List_simple_types@U?$pair@$$CBHUWeaponItemCfg_t@@@std@@@std@@@std@@@std@@@2@@std@@AAEXPAV?$_List_unchecked_iterator@V?$_List_val@U?$_List_simple_types@U?$pair@$$CBHUWeaponItemCfg_t@@@std@@@std@@@std@@@2@00@Z 100d0950 f i FireEventClientSide.obj
 0002:00021990       ?_Unchecked_end@?$_Hash@V?$_Umap_traits@HUWeaponItemCfg_t@@V?$_Uhash_compare@HU?$hash@H@std@@U?$equal_to@H@2@@std@@V?$allocator@U?$pair@$$CBHUWeaponItemCfg_t@@@std@@@3@$0A@@std@@@std@@QAE?AV?$_List_unchecked_iterator@V?$_List_val@U?$_List_simple_types@U?$pair@$$CBHUWeaponItemCfg_t@@@std@@@std@@@std@@@2@XZ 100d0990 f i FireEventClientSide.obj
 0002:000219c0       ?_Unchecked_end@?$list@U?$pair@$$CBHUWeaponItemCfg_t@@@std@@V?$allocator@U?$pair@$$CBHUWeaponItemCfg_t@@@std@@@2@@std@@QAE?AV?$_List_unchecked_iterator@V?$_List_val@U?$_List_simple_types@U?$pair@$$CBHUWeaponItemCfg_t@@@std@@@std@@@std@@@2@XZ 100d09c0 f i FireEventClientSide.obj
 0002:00021a00       ?_Xlength@?$vector@V?$_List_unchecked_iterator@V?$_List_val@U?$_List_simple_types@U?$pair@$$CBHUWeaponItemCfg_t@@@std@@@std@@@std@@@std@@V?$allocator@V?$_List_unchecked_iterator@V?$_List_val@U?$_List_simple_types@U?$pair@$$CBHUWeaponItemCfg_t@@@std@@@std@@@std@@@std@@@2@@std@@CAXXZ 100d0a00 f i FireEventClientSide.obj
 0002:00021a20       ?__autoclassinit2@Skinchanger@@QAEXI@Z 100d0a20 f i FireEventClientSide.obj
 0002:00021a50       ?allocate@?$allocator@U?$_List_node@U?$pair@$$CBHUWeaponItemCfg_t@@@std@@PAX@std@@@std@@QAEPAU?$_List_node@U?$pair@$$CBHUWeaponItemCfg_t@@@std@@PAX@2@I@Z 100d0a50 f i FireEventClientSide.obj
 0002:00021a80       ?allocate@?$allocator@V?$_List_unchecked_iterator@V?$_List_val@U?$_List_simple_types@U?$pair@$$CBHUWeaponItemCfg_t@@@std@@@std@@@std@@@std@@@std@@QAEPAV?$_List_unchecked_iterator@V?$_List_val@U?$_List_simple_types@U?$pair@$$CBHUWeaponItemCfg_t@@@std@@@std@@@std@@@2@I@Z 100d0a80 f i FireEventClientSide.obj
 0002:00021ab0       ?assign@?$vector@V?$_List_unchecked_iterator@V?$_List_val@U?$_List_simple_types@U?$pair@$$CBHUWeaponItemCfg_t@@@std@@@std@@@std@@@std@@V?$allocator@V?$_List_unchecked_iterator@V?$_List_val@U?$_List_simple_types@U?$pair@$$CBHUWeaponItemCfg_t@@@std@@@std@@@std@@@std@@@2@@std@@QAEXIABV?$_List_unchecked_iterator@V?$_List_val@U?$_List_simple_types@U?$pair@$$CBHUWeaponItemCfg_t@@@std@@@std@@@std@@@2@@Z 100d0ab0 f i FireEventClientSide.obj
 0002:00021ca0       ?capacity@?$vector@V?$_List_unchecked_iterator@V?$_List_val@U?$_List_simple_types@U?$pair@$$CBHUWeaponItemCfg_t@@@std@@@std@@@std@@@std@@V?$allocator@V?$_List_unchecked_iterator@V?$_List_val@U?$_List_simple_types@U?$pair@$$CBHUWeaponItemCfg_t@@@std@@@std@@@std@@@std@@@2@@std@@QBEIXZ 100d0ca0 f i FireEventClientSide.obj
 0002:00021ce0       ?clear@?$list@U?$pair@$$CBHUWeaponItemCfg_t@@@std@@V?$allocator@U?$pair@$$CBHUWeaponItemCfg_t@@@std@@@2@@std@@QAEXXZ 100d0ce0 f i FireEventClientSide.obj
 0002:00021dd0       ?deallocate@?$_Default_allocator_traits@V?$allocator@U?$_List_node@U?$pair@$$CBHUWeaponItemCfg_t@@@std@@PAX@std@@@std@@@std@@SAXAAV?$allocator@U?$_List_node@U?$pair@$$CBHUWeaponItemCfg_t@@@std@@PAX@std@@@2@QAU?$_List_node@U?$pair@$$CBHUWeaponItemCfg_t@@@std@@PAX@2@I@Z 100d0dd0 f i FireEventClientSide.obj
 0002:00021e00       ?deallocate@?$allocator@U?$_List_node@U?$pair@$$CBHUWeaponItemCfg_t@@@std@@PAX@std@@@std@@QAEXQAU?$_List_node@U?$pair@$$CBHUWeaponItemCfg_t@@@std@@PAX@2@I@Z 100d0e00 f i FireEventClientSide.obj
 0002:00021e40       ?deallocate@?$allocator@V?$_List_unchecked_iterator@V?$_List_val@U?$_List_simple_types@U?$pair@$$CBHUWeaponItemCfg_t@@@std@@@std@@@std@@@std@@@std@@QAEXQAV?$_List_unchecked_iterator@V?$_List_val@U?$_List_simple_types@U?$pair@$$CBHUWeaponItemCfg_t@@@std@@@std@@@std@@@2@I@Z 100d0e40 f i FireEventClientSide.obj
 0002:00021e80       ?hkFireEventClientSide@Hooks@@YG_NPAVIGameEvent@@@Z 100d0e80 f   FireEventClientSide.obj
 0002:00022080       ?max_size@?$_Default_allocator_traits@V?$allocator@V?$_List_unchecked_iterator@V?$_List_val@U?$_List_simple_types@U?$pair@$$CBHUWeaponItemCfg_t@@@std@@@std@@@std@@@std@@@std@@@std@@SAIABV?$allocator@V?$_List_unchecked_iterator@V?$_List_val@U?$_List_simple_types@U?$pair@$$CBHUWeaponItemCfg_t@@@std@@@std@@@std@@@std@@@2@@Z 100d1080 f i FireEventClientSide.obj
 0002:000220a0       ?max_size@?$vector@V?$_List_unchecked_iterator@V?$_List_val@U?$_List_simple_types@U?$pair@$$CBHUWeaponItemCfg_t@@@std@@@std@@@std@@@std@@V?$allocator@V?$_List_unchecked_iterator@V?$_List_val@U?$_List_simple_types@U?$pair@$$CBHUWeaponItemCfg_t@@@std@@@std@@@std@@@std@@@2@@std@@QBEIXZ 100d10a0 f i FireEventClientSide.obj
 0002:00022100       ?reserve@?$vector@V?$_List_unchecked_iterator@V?$_List_val@U?$_List_simple_types@U?$pair@$$CBHUWeaponItemCfg_t@@@std@@@std@@@std@@@std@@V?$allocator@V?$_List_unchecked_iterator@V?$_List_val@U?$_List_simple_types@U?$pair@$$CBHUWeaponItemCfg_t@@@std@@@std@@@std@@@std@@@2@@std@@QAEXI@Z 100d1100 f i FireEventClientSide.obj
 0002:00022150       ?size@?$vector@V?$_List_unchecked_iterator@V?$_List_val@U?$_List_simple_types@U?$pair@$$CBHUWeaponItemCfg_t@@@std@@@std@@@std@@@std@@V?$allocator@V?$_List_unchecked_iterator@V?$_List_val@U?$_List_simple_types@U?$pair@$$CBHUWeaponItemCfg_t@@@std@@@std@@@std@@@std@@@2@@std@@QBEIXZ 100d1150 f i FireEventClientSide.obj
 0002:00022190       ??$?0$$CBIUItem_t@ItemDefinitions@@$0A@@?$pair@$$CBIUItem_t@ItemDefinitions@@@std@@QAE@ABIABUItem_t@ItemDefinitions@@@Z 100d1190 f i ItemDefinitions.obj
 0002:000221d0       ??$?0$$V@?$_Compressed_pair@V?$allocator@U?$_Tree_node@U?$pair@$$CBIUItem_t@ItemDefinitions@@@std@@PAX@std@@@std@@V?$_Tree_val@U?$_Tree_simple_types@U?$pair@$$CBIUItem_t@ItemDefinitions@@@std@@@std@@@2@$00@std@@QAE@U_Zero_then_variadic_args_t@1@@Z 100d11d0 f i ItemDefinitions.obj
 0002:00022210       ??$?0AAV?$_Tree_iterator@V?$_Tree_val@U?$_Tree_simple_types@U?$pair@$$CBIUItem_t@ItemDefinitions@@@std@@@std@@@std@@@std@@_N$0A@@?$pair@V?$_Tree_iterator@V?$_Tree_val@U?$_Tree_simple_types@U?$pair@$$CBIUItem_t@ItemDefinitions@@@std@@@std@@@std@@@std@@_N@std@@QAE@AAV?$_Tree_iterator@V?$_Tree_val@U?$_Tree_simple_types@U?$pair@$$CBIUItem_t@ItemDefinitions@@@std@@@std@@@std@@@1@$$QA_N@Z 100d1210 f i ItemDefinitions.obj
 0002:00022260       ??$?0ABU?$less@I@std@@U_Zero_then_variadic_args_t@1@@?$_Compressed_pair@U?$less@I@std@@V?$_Compressed_pair@V?$allocator@U?$_Tree_node@U?$pair@$$CBIUItem_t@ItemDefinitions@@@std@@PAX@std@@@std@@V?$_Tree_val@U?$_Tree_simple_types@U?$pair@$$CBIUItem_t@ItemDefinitions@@@std@@@std@@@2@$00@2@$00@std@@QAE@U_One_then_variadic_args_t@1@ABU?$less@I@1@$$QAU_Zero_then_variadic_args_t@1@@Z 100d1260 f i ItemDefinitions.obj
 0002:000222b0       ??$?0ABV?$allocator@UQualityName_t@ItemDefinitions@@@std@@$$V@?$_Compressed_pair@V?$allocator@UQualityName_t@ItemDefinitions@@@std@@V?$_Vector_val@U?$_Simple_types@UQualityName_t@ItemDefinitions@@@std@@@2@$00@std@@QAE@U_One_then_variadic_args_t@1@ABV?$allocator@UQualityName_t@ItemDefinitions@@@1@@Z 100d12b0 f i ItemDefinitions.obj
 0002:000222f0       ??$?0ABV?$allocator@UQualityName_t@ItemDefinitions@@@std@@X@?$_Vector_alloc@U?$_Vec_base_types@UQualityName_t@ItemDefinitions@@V?$allocator@UQualityName_t@ItemDefinitions@@@std@@@std@@@std@@QAE@ABV?$allocator@UQualityName_t@ItemDefinitions@@@1@@Z 100d12f0 f i ItemDefinitions.obj
 0002:00022330       ??$?0ABV?$allocator@UWeaponName_t@ItemDefinitions@@@std@@$$V@?$_Compressed_pair@V?$allocator@UWeaponName_t@ItemDefinitions@@@std@@V?$_Vector_val@U?$_Simple_types@UWeaponName_t@ItemDefinitions@@@std@@@2@$00@std@@QAE@U_One_then_variadic_args_t@1@ABV?$allocator@UWeaponName_t@ItemDefinitions@@@1@@Z 100d1330 f i ItemDefinitions.obj
 0002:00022370       ??$?0ABV?$allocator@UWeaponName_t@ItemDefinitions@@@std@@X@?$_Vector_alloc@U?$_Vec_base_types@UWeaponName_t@ItemDefinitions@@V?$allocator@UWeaponName_t@ItemDefinitions@@@std@@@std@@@std@@QAE@ABV?$allocator@UWeaponName_t@ItemDefinitions@@@1@@Z 100d1370 f i ItemDefinitions.obj
 0002:000223b0       ??$?0V?$_Tree_iterator@V?$_Tree_val@U?$_Tree_simple_types@U?$pair@$$CBIUItem_t@ItemDefinitions@@@std@@@std@@@std@@@std@@_N$0A@@?$pair@V?$_Tree_iterator@V?$_Tree_val@U?$_Tree_simple_types@U?$pair@$$CBIUItem_t@ItemDefinitions@@@std@@@std@@@std@@@std@@_N@std@@QAE@$$QAV?$_Tree_iterator@V?$_Tree_val@U?$_Tree_simple_types@U?$pair@$$CBIUItem_t@ItemDefinitions@@@std@@@std@@@std@@@1@$$QA_N@Z 100d13b0 f i ItemDefinitions.obj
 0002:00022400       ??$_Buy_if_not_node@AAU?$pair@$$CBIUItem_t@ItemDefinitions@@@std@@@?$_Tree@V?$_Tmap_traits@IUItem_t@ItemDefinitions@@U?$less@I@std@@V?$allocator@U?$pair@$$CBIUItem_t@ItemDefinitions@@@std@@@4@$0A@@std@@@std@@IAEPAU?$_Tree_node@U?$pair@$$CBIUItem_t@ItemDefinitions@@@std@@PAX@1@PAU21@AAU?$pair@$$CBIUItem_t@ItemDefinitions@@@1@@Z 100d1400 f i ItemDefinitions.obj
 0002:00022420       ??$_Buynode@ABU?$pair@$$CBIUItem_t@ItemDefinitions@@@std@@@?$_Tree_comp_alloc@V?$_Tmap_traits@IUItem_t@ItemDefinitions@@U?$less@I@std@@V?$allocator@U?$pair@$$CBIUItem_t@ItemDefinitions@@@std@@@4@$0A@@std@@@std@@QAEPAU?$_Tree_node@U?$pair@$$CBIUItem_t@ItemDefinitions@@@std@@PAX@1@ABU?$pair@$$CBIUItem_t@ItemDefinitions@@@1@@Z 100d1420 f i ItemDefinitions.obj
 0002:00022520       ??$_Destroy_range1@V?$allocator@UQualityName_t@ItemDefinitions@@@std@@@std@@YAXPAUQualityName_t@ItemDefinitions@@0AAV?$allocator@UQualityName_t@ItemDefinitions@@@0@U?$integral_constant@_N$00@0@@Z 100d1520 f i ItemDefinitions.obj
 0002:00022540       ??$_Destroy_range1@V?$allocator@UWeaponName_t@ItemDefinitions@@@std@@@std@@YAXPAUWeaponName_t@ItemDefinitions@@0AAV?$allocator@UWeaponName_t@ItemDefinitions@@@0@U?$integral_constant@_N$00@0@@Z 100d1540 f i ItemDefinitions.obj
 0002:00022560       ??$_Destroy_range@V?$allocator@UQualityName_t@ItemDefinitions@@@std@@@std@@YAXPAUQualityName_t@ItemDefinitions@@0AAV?$allocator@UQualityName_t@ItemDefinitions@@@0@@Z 100d1560 f i ItemDefinitions.obj
 0002:000225a0       ??$_Destroy_range@V?$allocator@UWeaponName_t@ItemDefinitions@@@std@@@std@@YAXPAUWeaponName_t@ItemDefinitions@@0AAV?$allocator@UWeaponName_t@ItemDefinitions@@@0@@Z 100d15a0 f i ItemDefinitions.obj
 0002:000225e0       ??$_Distance1@PBUQualityName_t@ItemDefinitions@@@std@@YAHPBUQualityName_t@ItemDefinitions@@0Urandom_access_iterator_tag@0@@Z 100d15e0 f i ItemDefinitions.obj
 0002:00022600       ??$_Distance1@PBUWeaponName_t@ItemDefinitions@@@std@@YAHPBUWeaponName_t@ItemDefinitions@@0Urandom_access_iterator_tag@0@@Z 100d1600 f i ItemDefinitions.obj
 0002:00022620       ??$_Freenode0@V?$allocator@U?$_Tree_node@U?$pair@$$CBIUItem_t@ItemDefinitions@@@std@@PAX@std@@@std@@@?$_Tree_node@U?$pair@$$CBIUItem_t@ItemDefinitions@@@std@@PAX@std@@SAXAAV?$allocator@U?$_Tree_node@U?$pair@$$CBIUItem_t@ItemDefinitions@@@std@@PAX@std@@@1@PAU01@@Z 100d1620 f i ItemDefinitions.obj
 0002:00022700       ??$_Insert_at@AAU?$pair@$$CBIUItem_t@ItemDefinitions@@@std@@PAU?$_Tree_node@U?$pair@$$CBIUItem_t@ItemDefinitions@@@std@@PAX@2@@?$_Tree@V?$_Tmap_traits@IUItem_t@ItemDefinitions@@U?$less@I@std@@V?$allocator@U?$pair@$$CBIUItem_t@ItemDefinitions@@@std@@@4@$0A@@std@@@std@@IAE?AV?$_Tree_iterator@V?$_Tree_val@U?$_Tree_simple_types@U?$pair@$$CBIUItem_t@ItemDefinitions@@@std@@@std@@@std@@@1@_NPAU?$_Tree_node@U?$pair@$$CBIUItem_t@ItemDefinitions@@@std@@PAX@1@AAU?$pair@$$CBIUItem_t@ItemDefinitions@@@1@1@Z 100d1700 f i ItemDefinitions.obj
 0002:00022a40       ??$_Insert_hint@AAU?$pair@$$CBIUItem_t@ItemDefinitions@@@std@@PAU?$_Tree_node@U?$pair@$$CBIUItem_t@ItemDefinitions@@@std@@PAX@2@@?$_Tree@V?$_Tmap_traits@IUItem_t@ItemDefinitions@@U?$less@I@std@@V?$allocator@U?$pair@$$CBIUItem_t@ItemDefinitions@@@std@@@4@$0A@@std@@@std@@IAE?AV?$_Tree_iterator@V?$_Tree_val@U?$_Tree_simple_types@U?$pair@$$CBIUItem_t@ItemDefinitions@@@std@@@std@@@std@@@1@V?$_Tree_const_iterator@V?$_Tree_val@U?$_Tree_simple_types@U?$pair@$$CBIUItem_t@ItemDefinitions@@@std@@@std@@@std@@@1@AAU?$pair@$$CBIUItem_t@ItemDefinitions@@@1@PAU?$_Tree_node@U?$pair@$$CBIUItem_t@ItemDefinitions@@@std@@PAX@1@@Z 100d1a40 f i ItemDefinitions.obj
 0002:00023590       ??$_Insert_nohint@AAU?$pair@$$CBIUItem_t@ItemDefinitions@@@std@@PAU?$_Tree_node@U?$pair@$$CBIUItem_t@ItemDefinitions@@@std@@PAX@2@@?$_Tree@V?$_Tmap_traits@IUItem_t@ItemDefinitions@@U?$less@I@std@@V?$allocator@U?$pair@$$CBIUItem_t@ItemDefinitions@@@std@@@4@$0A@@std@@@std@@IAE?AU?$pair@V?$_Tree_iterator@V?$_Tree_val@U?$_Tree_simple_types@U?$pair@$$CBIUItem_t@ItemDefinitions@@@std@@@std@@@std@@@std@@_N@1@_NAAU?$pair@$$CBIUItem_t@ItemDefinitions@@@1@PAU?$_Tree_node@U?$pair@$$CBIUItem_t@ItemDefinitions@@@std@@PAX@1@@Z 100d2590 f i ItemDefinitions.obj
 0002:00023a00       ??$_Kfn@$$CBIUItem_t@ItemDefinitions@@@?$_Tmap_traits@IUItem_t@ItemDefinitions@@U?$less@I@std@@V?$allocator@U?$pair@$$CBIUItem_t@ItemDefinitions@@@std@@@4@$0A@@std@@SAABIABU?$pair@$$CBIUItem_t@ItemDefinitions@@@1@@Z 100d2a00 f i ItemDefinitions.obj
 0002:00023a20       ??$_Ptr_copy_cat@$$CBUQualityName_t@ItemDefinitions@@U12@@std@@YA?AU_Trivially_copyable_ptr_iterator_tag@0@ABQBUQualityName_t@ItemDefinitions@@ABQAU23@@Z 100d2a20 f i ItemDefinitions.obj
 0002:00023a40       ??$_Ptr_copy_cat@$$CBUWeaponName_t@ItemDefinitions@@U12@@std@@YA?AU_Trivially_copyable_ptr_iterator_tag@0@ABQBUWeaponName_t@ItemDefinitions@@ABQAU23@@Z 100d2a40 f i ItemDefinitions.obj
 0002:00023a60       ??$_Range_construct_or_tidy@PBUQualityName_t@ItemDefinitions@@@?$vector@UQualityName_t@ItemDefinitions@@V?$allocator@UQualityName_t@ItemDefinitions@@@std@@@std@@AAEXPBUQualityName_t@ItemDefinitions@@0Uforward_iterator_tag@1@@Z 100d2a60 f i ItemDefinitions.obj
 0002:00023b60       ??$_Range_construct_or_tidy@PBUWeaponName_t@ItemDefinitions@@@?$vector@UWeaponName_t@ItemDefinitions@@V?$allocator@UWeaponName_t@ItemDefinitions@@@std@@@std@@AAEXPBUWeaponName_t@ItemDefinitions@@0Uforward_iterator_tag@1@@Z 100d2b60 f i ItemDefinitions.obj
 0002:00023da0       ??$_Rechecked@PAUQualityName_t@ItemDefinitions@@PAU12@@std@@YAAAPAUQualityName_t@ItemDefinitions@@AAPAU12@PAU12@@Z 100d2da0 f i ItemDefinitions.obj
 0002:00023dd0       ??$_Rechecked@PAUWeaponName_t@ItemDefinitions@@PAU12@@std@@YAAAPAUWeaponName_t@ItemDefinitions@@AAPAU12@PAU12@@Z 100d2dd0 f i ItemDefinitions.obj
 0002:00023e00       ??$_Ucopy@PBUQualityName_t@ItemDefinitions@@@?$vector@UQualityName_t@ItemDefinitions@@V?$allocator@UQualityName_t@ItemDefinitions@@@std@@@std@@AAEPAUQualityName_t@ItemDefinitions@@PBU23@0PAU23@@Z 100d2e00 f i ItemDefinitions.obj
 0002:00023e40       ??$_Ucopy@PBUWeaponName_t@ItemDefinitions@@@?$vector@UWeaponName_t@ItemDefinitions@@V?$allocator@UWeaponName_t@ItemDefinitions@@@std@@@std@@AAEPAUWeaponName_t@ItemDefinitions@@PBU23@0PAU23@@Z 100d2e40 f i ItemDefinitions.obj
 0002:00023e80       ??$_Unchecked@PAUQualityName_t@ItemDefinitions@@@std@@YAPAUQualityName_t@ItemDefinitions@@PAU12@@Z 100d2e80 f i ItemDefinitions.obj
 0002:00023ea0       ??$_Unchecked@PAUWeaponName_t@ItemDefinitions@@@std@@YAPAUWeaponName_t@ItemDefinitions@@PAU12@@Z 100d2ea0 f i ItemDefinitions.obj
 0002:00023ec0       ??$_Unchecked@PBUQualityName_t@ItemDefinitions@@@std@@YAPBUQualityName_t@ItemDefinitions@@PBU12@@Z 100d2ec0 f i ItemDefinitions.obj
 0002:00023ee0       ??$_Unchecked@PBUWeaponName_t@ItemDefinitions@@@std@@YAPBUWeaponName_t@ItemDefinitions@@PBU12@@Z 100d2ee0 f i ItemDefinitions.obj
 0002:00023f00       ??$_Unfancy@UQualityName_t@ItemDefinitions@@@std@@YAPAUQualityName_t@ItemDefinitions@@PAU12@@Z 100d2f00 f i ItemDefinitions.obj
 0002:00023f20       ??$_Unfancy@UWeaponName_t@ItemDefinitions@@@std@@YAPAUWeaponName_t@ItemDefinitions@@PAU12@@Z 100d2f20 f i ItemDefinitions.obj
 0002:00023f40       ??$_Uninitialized_copy@PBUQualityName_t@ItemDefinitions@@PAU12@V?$allocator@UQualityName_t@ItemDefinitions@@@std@@@std@@YAPAUQualityName_t@ItemDefinitions@@PBU12@0PAU12@AAV?$allocator@UQualityName_t@ItemDefinitions@@@0@@Z 100d2f40 f i ItemDefinitions.obj
 0002:00024010       ??$_Uninitialized_copy@PBUWeaponName_t@ItemDefinitions@@PAU12@V?$allocator@UWeaponName_t@ItemDefinitions@@@std@@@std@@YAPAUWeaponName_t@ItemDefinitions@@PBU12@0PAU12@AAV?$allocator@UWeaponName_t@ItemDefinitions@@@0@@Z 100d3010 f i ItemDefinitions.obj
 0002:000240e0       ??$_Uninitialized_copy_al_unchecked@PBUQualityName_t@ItemDefinitions@@PAU12@V?$allocator@UQualityName_t@ItemDefinitions@@@std@@@std@@YAPAUQualityName_t@ItemDefinitions@@PBU12@0PAU12@AAV?$allocator@UQualityName_t@ItemDefinitions@@@0@U_General_ptr_iterator_tag@0@U_Unused_parameter@0@@Z 100d30e0 f i ItemDefinitions.obj
 0002:000241e0       ??$_Uninitialized_copy_al_unchecked@PBUWeaponName_t@ItemDefinitions@@PAU12@V?$allocator@UWeaponName_t@ItemDefinitions@@@std@@@std@@YAPAUWeaponName_t@ItemDefinitions@@PBU12@0PAU12@AAV?$allocator@UWeaponName_t@ItemDefinitions@@@0@U_General_ptr_iterator_tag@0@U_Unused_parameter@0@@Z 100d31e0 f i ItemDefinitions.obj
 0002:000242e0       ??$addressof@PAU?$_Tree_node@U?$pair@$$CBIUItem_t@ItemDefinitions@@@std@@PAX@std@@@std@@YAPAPAU?$_Tree_node@U?$pair@$$CBIUItem_t@ItemDefinitions@@@std@@PAX@0@AAPAU10@@Z 100d32e0 f i ItemDefinitions.obj
 0002:00024300       ??$addressof@U?$pair@$$CBIUItem_t@ItemDefinitions@@@std@@@std@@YAPAU?$pair@$$CBIUItem_t@ItemDefinitions@@@0@AAU10@@Z 100d3300 f i ItemDefinitions.obj
 0002:00024320       ??$addressof@V?$_Tree_val@U?$_Tree_simple_types@U?$pair@$$CBIUItem_t@ItemDefinitions@@@std@@@std@@@std@@@std@@YAPAV?$_Tree_val@U?$_Tree_simple_types@U?$pair@$$CBIUItem_t@ItemDefinitions@@@std@@@std@@@0@AAV10@@Z 100d3320 f i ItemDefinitions.obj
 0002:00024340       ??$construct@PAU?$_Tree_node@U?$pair@$$CBIUItem_t@ItemDefinitions@@@std@@PAX@std@@AAPAU12@@?$_Default_allocator_traits@V?$allocator@U?$_Tree_node@U?$pair@$$CBIUItem_t@ItemDefinitions@@@std@@PAX@std@@@std@@@std@@SAXAAV?$allocator@U?$_Tree_node@U?$pair@$$CBIUItem_t@ItemDefinitions@@@std@@PAX@std@@@1@QAPAU?$_Tree_node@U?$pair@$$CBIUItem_t@ItemDefinitions@@@std@@PAX@1@AAPAU31@@Z 100d3340 f i ItemDefinitions.obj
 0002:00024390       ??$construct@U?$pair@$$CBIUItem_t@ItemDefinitions@@@std@@ABU12@@?$_Default_allocator_traits@V?$allocator@U?$_Tree_node@U?$pair@$$CBIUItem_t@ItemDefinitions@@@std@@PAX@std@@@std@@@std@@SAXAAV?$allocator@U?$_Tree_node@U?$pair@$$CBIUItem_t@ItemDefinitions@@@std@@PAX@std@@@1@QAU?$pair@$$CBIUItem_t@ItemDefinitions@@@1@ABU31@@Z 100d3390 f i ItemDefinitions.obj
 0002:000243e0       ??$construct@UQualityName_t@ItemDefinitions@@ABU12@@?$_Default_allocator_traits@V?$allocator@UQualityName_t@ItemDefinitions@@@std@@@std@@SAXAAV?$allocator@UQualityName_t@ItemDefinitions@@@1@QAUQualityName_t@ItemDefinitions@@ABU34@@Z 100d33e0 f i ItemDefinitions.obj
 0002:00024430       ??$construct@UWeaponName_t@ItemDefinitions@@ABU12@@?$_Default_allocator_traits@V?$allocator@UWeaponName_t@ItemDefinitions@@@std@@@std@@SAXAAV?$allocator@UWeaponName_t@ItemDefinitions@@@1@QAUWeaponName_t@ItemDefinitions@@ABU34@@Z 100d3430 f i ItemDefinitions.obj
 0002:00024480       ??$destroy@PAU?$_Tree_node@U?$pair@$$CBIUItem_t@ItemDefinitions@@@std@@PAX@std@@@?$_Default_allocator_traits@V?$allocator@U?$_Tree_node@U?$pair@$$CBIUItem_t@ItemDefinitions@@@std@@PAX@std@@@std@@@std@@SAXAAV?$allocator@U?$_Tree_node@U?$pair@$$CBIUItem_t@ItemDefinitions@@@std@@PAX@std@@@1@QAPAU?$_Tree_node@U?$pair@$$CBIUItem_t@ItemDefinitions@@@std@@PAX@1@@Z 100d3480 f i ItemDefinitions.obj
 0002:000244a0       ??$destroy@U?$pair@$$CBIUItem_t@ItemDefinitions@@@std@@@?$_Default_allocator_traits@V?$allocator@U?$_Tree_node@U?$pair@$$CBIUItem_t@ItemDefinitions@@@std@@PAX@std@@@std@@@std@@SAXAAV?$allocator@U?$_Tree_node@U?$pair@$$CBIUItem_t@ItemDefinitions@@@std@@PAX@std@@@1@QAU?$pair@$$CBIUItem_t@ItemDefinitions@@@1@@Z 100d34a0 f i ItemDefinitions.obj
 0002:000244c0       ??$distance@PBUQualityName_t@ItemDefinitions@@@std@@YAHPBUQualityName_t@ItemDefinitions@@0@Z 100d34c0 f i ItemDefinitions.obj
 0002:000244f0       ??$distance@PBUWeaponName_t@ItemDefinitions@@@std@@YAHPBUWeaponName_t@ItemDefinitions@@0@Z 100d34f0 f i ItemDefinitions.obj
 0002:00024520       ??$emplace_hint@ABU?$pair@$$CBIUItem_t@ItemDefinitions@@@std@@@?$_Tree@V?$_Tmap_traits@IUItem_t@ItemDefinitions@@U?$less@I@std@@V?$allocator@U?$pair@$$CBIUItem_t@ItemDefinitions@@@std@@@4@$0A@@std@@@std@@QAE?AV?$_Tree_iterator@V?$_Tree_val@U?$_Tree_simple_types@U?$pair@$$CBIUItem_t@ItemDefinitions@@@std@@@std@@@std@@@1@V?$_Tree_const_iterator@V?$_Tree_val@U?$_Tree_simple_types@U?$pair@$$CBIUItem_t@ItemDefinitions@@@std@@@std@@@std@@@1@ABU?$pair@$$CBIUItem_t@ItemDefinitions@@@1@@Z 100d3520 f i ItemDefinitions.obj
 0002:00024580       ??$forward@AAPAU?$_Tree_node@U?$pair@$$CBIUItem_t@ItemDefinitions@@@std@@PAX@std@@@std@@YAAAPAU?$_Tree_node@U?$pair@$$CBIUItem_t@ItemDefinitions@@@std@@PAX@0@AAPAU10@@Z 100d3580 f i ItemDefinitions.obj
 0002:000245a0       ??$forward@AAU?$pair@$$CBIUItem_t@ItemDefinitions@@@std@@@std@@YAAAU?$pair@$$CBIUItem_t@ItemDefinitions@@@0@AAU10@@Z 100d35a0 f i ItemDefinitions.obj
 0002:000245c0       ??$forward@AAV?$_Tree_iterator@V?$_Tree_val@U?$_Tree_simple_types@U?$pair@$$CBIUItem_t@ItemDefinitions@@@std@@@std@@@std@@@std@@@std@@YAAAV?$_Tree_iterator@V?$_Tree_val@U?$_Tree_simple_types@U?$pair@$$CBIUItem_t@ItemDefinitions@@@std@@@std@@@std@@@0@AAV10@@Z 100d35c0 f i ItemDefinitions.obj
 0002:000245e0       ??$forward@ABU?$less@I@std@@@std@@YAABU?$less@I@0@ABU10@@Z 100d35e0 f i ItemDefinitions.obj
 0002:00024600       ??$forward@ABU?$pair@$$CBIUItem_t@ItemDefinitions@@@std@@@std@@YAABU?$pair@$$CBIUItem_t@ItemDefinitions@@@0@ABU10@@Z 100d3600 f i ItemDefinitions.obj
 0002:00024620       ??$forward@ABUQualityName_t@ItemDefinitions@@@std@@YAABUQualityName_t@ItemDefinitions@@ABU12@@Z 100d3620 f i ItemDefinitions.obj
 0002:00024640       ??$forward@ABUWeaponName_t@ItemDefinitions@@@std@@YAABUWeaponName_t@ItemDefinitions@@ABU12@@Z 100d3640 f i ItemDefinitions.obj
 0002:00024660       ??$forward@ABV?$allocator@UQualityName_t@ItemDefinitions@@@std@@@std@@YAABV?$allocator@UQualityName_t@ItemDefinitions@@@0@ABV10@@Z 100d3660 f i ItemDefinitions.obj
 0002:00024680       ??$forward@ABV?$allocator@UWeaponName_t@ItemDefinitions@@@std@@@std@@YAABV?$allocator@UWeaponName_t@ItemDefinitions@@@0@ABV10@@Z 100d3680 f i ItemDefinitions.obj
 0002:000246a0       ??$forward@U_Zero_then_variadic_args_t@std@@@std@@YA$$QAU_Zero_then_variadic_args_t@0@AAU10@@Z 100d36a0 f i ItemDefinitions.obj
 0002:000246c0       ??$forward@V?$_Tree_iterator@V?$_Tree_val@U?$_Tree_simple_types@U?$pair@$$CBIUItem_t@ItemDefinitions@@@std@@@std@@@std@@@std@@@std@@YA$$QAV?$_Tree_iterator@V?$_Tree_val@U?$_Tree_simple_types@U?$pair@$$CBIUItem_t@ItemDefinitions@@@std@@@std@@@std@@@0@AAV10@@Z 100d36c0 f i ItemDefinitions.obj
 0002:000246e0       ??$forward@_N@std@@YA$$QA_NAA_N@Z 100d36e0 f i ItemDefinitions.obj
 0002:00024700       ??$insert@PBU?$pair@$$CBIUItem_t@ItemDefinitions@@@std@@@?$_Tree@V?$_Tmap_traits@IUItem_t@ItemDefinitions@@U?$less@I@std@@V?$allocator@U?$pair@$$CBIUItem_t@ItemDefinitions@@@std@@@4@$0A@@std@@@std@@QAEXPBU?$pair@$$CBIUItem_t@ItemDefinitions@@@1@0@Z 100d3700 f i ItemDefinitions.obj
 0002:00024770       ??$move@AAD@std@@YA$$QADAAD@Z 100d3770 f i ItemDefinitions.obj
 0002:00024790       ??$swap@DX@std@@YAXAAD0@Z  100d3790 f i ItemDefinitions.obj
 0002:00024810       ??0?$_Tree@V?$_Tmap_traits@IUItem_t@ItemDefinitions@@U?$less@I@std@@V?$allocator@U?$pair@$$CBIUItem_t@ItemDefinitions@@@std@@@4@$0A@@std@@@std@@QAE@ABU?$less@I@1@@Z 100d3810 f i ItemDefinitions.obj
 0002:00024840       ??0?$_Tree_comp_alloc@V?$_Tmap_traits@IUItem_t@ItemDefinitions@@U?$less@I@std@@V?$allocator@U?$pair@$$CBIUItem_t@ItemDefinitions@@@std@@@4@$0A@@std@@@std@@QAE@ABU?$less@I@1@@Z 100d3840 f i ItemDefinitions.obj
 0002:00024890       ??0?$_Tree_const_iterator@V?$_Tree_val@U?$_Tree_simple_types@U?$pair@$$CBIUItem_t@ItemDefinitions@@@std@@@std@@@std@@@std@@QAE@PAU?$_Tree_node@U?$pair@$$CBIUItem_t@ItemDefinitions@@@std@@PAX@1@PBV?$_Tree_val@U?$_Tree_simple_types@U?$pair@$$CBIUItem_t@ItemDefinitions@@@std@@@std@@@1@@Z 100d3890 f i ItemDefinitions.obj
 0002:000248d0       ??0?$_Tree_const_iterator@V?$_Tree_val@U?$_Tree_simple_types@U?$pair@$$CBIUItem_t@ItemDefinitions@@@std@@@std@@@std@@@std@@QAE@XZ 100d38d0 f i ItemDefinitions.obj
 0002:00024900       ??0?$_Tree_iterator@V?$_Tree_val@U?$_Tree_simple_types@U?$pair@$$CBIUItem_t@ItemDefinitions@@@std@@@std@@@std@@@std@@QAE@PAU?$_Tree_node@U?$pair@$$CBIUItem_t@ItemDefinitions@@@std@@PAX@1@PBV?$_Tree_val@U?$_Tree_simple_types@U?$pair@$$CBIUItem_t@ItemDefinitions@@@std@@@std@@@1@@Z 100d3900 f i ItemDefinitions.obj
 0002:00024940       ??0?$_Tree_unchecked_const_iterator@V?$_Tree_val@U?$_Tree_simple_types@U?$pair@$$CBIUItem_t@ItemDefinitions@@@std@@@std@@@std@@U_Iterator_base0@2@@std@@QAE@PAU?$_Tree_node@U?$pair@$$CBIUItem_t@ItemDefinitions@@@std@@PAX@1@PBV?$_Tree_val@U?$_Tree_simple_types@U?$pair@$$CBIUItem_t@ItemDefinitions@@@std@@@std@@@1@@Z 100d3940 f i ItemDefinitions.obj
 0002:00024980       ??0?$_Tree_unchecked_const_iterator@V?$_Tree_val@U?$_Tree_simple_types@U?$pair@$$CBIUItem_t@ItemDefinitions@@@std@@@std@@@std@@U_Iterator_base0@2@@std@@QAE@XZ 100d3980 f i ItemDefinitions.obj
 0002:000249b0       ??0?$_Tree_val@U?$_Tree_simple_types@U?$pair@$$CBIUItem_t@ItemDefinitions@@@std@@@std@@@std@@QAE@XZ 100d39b0 f i ItemDefinitions.obj
 0002:000249f0       ??0?$_Vector_val@U?$_Simple_types@UQualityName_t@ItemDefinitions@@@std@@@std@@QAE@XZ 100d39f0 f i ItemDefinitions.obj
 0002:00024a30       ??0?$_Vector_val@U?$_Simple_types@UWeaponName_t@ItemDefinitions@@@std@@@std@@QAE@XZ 100d3a30 f i ItemDefinitions.obj
 0002:00024a70       ??0?$allocator@U?$_Tree_node@U?$pair@$$CBIUItem_t@ItemDefinitions@@@std@@PAX@std@@@std@@QAE@XZ 100d3a70 f i ItemDefinitions.obj
 0002:00024a90       ??0?$allocator@UQualityName_t@ItemDefinitions@@@std@@QAE@XZ 100d3a90 f i ItemDefinitions.obj
 0002:00024ab0       ??0?$allocator@UWeaponName_t@ItemDefinitions@@@std@@QAE@XZ 100d3ab0 f i ItemDefinitions.obj
 0002:00024ad0       ??0?$initializer_list@U?$pair@$$CBIUItem_t@ItemDefinitions@@@std@@@std@@QAE@PBU?$pair@$$CBIUItem_t@ItemDefinitions@@@1@0@Z 100d3ad0 f i ItemDefinitions.obj
 0002:00024b10       ??0?$initializer_list@UQualityName_t@ItemDefinitions@@@std@@QAE@PBUQualityName_t@ItemDefinitions@@0@Z 100d3b10 f i ItemDefinitions.obj
 0002:00024b50       ??0?$initializer_list@UWeaponName_t@ItemDefinitions@@@std@@QAE@PBUWeaponName_t@ItemDefinitions@@0@Z 100d3b50 f i ItemDefinitions.obj
 0002:00024b90       ??0?$map@IUItem_t@ItemDefinitions@@U?$less@I@std@@V?$allocator@U?$pair@$$CBIUItem_t@ItemDefinitions@@@std@@@4@@std@@QAE@V?$initializer_list@U?$pair@$$CBIUItem_t@ItemDefinitions@@@std@@@1@@Z 100d3b90 f i ItemDefinitions.obj
 0002:00024c20       ??0?$vector@UQualityName_t@ItemDefinitions@@V?$allocator@UQualityName_t@ItemDefinitions@@@std@@@std@@QAE@V?$initializer_list@UQualityName_t@ItemDefinitions@@@1@ABV?$allocator@UQualityName_t@ItemDefinitions@@@1@@Z 100d3c20 f i ItemDefinitions.obj
 0002:00024c80       ??0?$vector@UWeaponName_t@ItemDefinitions@@V?$allocator@UWeaponName_t@ItemDefinitions@@@std@@@std@@QAE@V?$initializer_list@UWeaponName_t@ItemDefinitions@@@1@ABV?$allocator@UWeaponName_t@ItemDefinitions@@@1@@Z 100d3c80 f i ItemDefinitions.obj
 0002:00024ce0       ??0Item_t@ItemDefinitions@@QAE@PBD0@Z 100d3ce0 f i ItemDefinitions.obj
 0002:00024d20       ??0QualityName_t@ItemDefinitions@@QAE@HPBD@Z 100d3d20 f i ItemDefinitions.obj
 0002:00024d60       ??0WeaponName_t@ItemDefinitions@@QAE@HPBD@Z 100d3d60 f i ItemDefinitions.obj
 0002:00024da0       ??1?$_Tree@V?$_Tmap_traits@IUItem_t@ItemDefinitions@@U?$less@I@std@@V?$allocator@U?$pair@$$CBIUItem_t@ItemDefinitions@@@std@@@4@$0A@@std@@@std@@QAE@XZ 100d3da0 f i ItemDefinitions.obj
 0002:00024e00       ??1?$_Tree_comp_alloc@V?$_Tmap_traits@IUItem_t@ItemDefinitions@@U?$less@I@std@@V?$allocator@U?$pair@$$CBIUItem_t@ItemDefinitions@@@std@@@4@$0A@@std@@@std@@QAE@XZ 100d3e00 f i ItemDefinitions.obj
 0002:00024e70       ??1?$map@IUItem_t@ItemDefinitions@@U?$less@I@std@@V?$allocator@U?$pair@$$CBIUItem_t@ItemDefinitions@@@std@@@4@@std@@QAE@XZ 100d3e70 f i ItemDefinitions.obj
 0002:00024ea0       ??1?$vector@UQualityName_t@ItemDefinitions@@V?$allocator@UQualityName_t@ItemDefinitions@@@std@@@std@@QAE@XZ 100d3ea0 f i ItemDefinitions.obj
 0002:00024f00       ??1?$vector@UWeaponName_t@ItemDefinitions@@V?$allocator@UWeaponName_t@ItemDefinitions@@@std@@@std@@QAE@XZ 100d3f00 f i ItemDefinitions.obj
 0002:00024f60       ??8?$_Tree_const_iterator@V?$_Tree_val@U?$_Tree_simple_types@U?$pair@$$CBIUItem_t@ItemDefinitions@@@std@@@std@@@std@@@std@@QBE_NABV01@@Z 100d3f60 f i ItemDefinitions.obj
 0002:00024fb0       ??9?$_Tree_const_iterator@V?$_Tree_val@U?$_Tree_simple_types@U?$pair@$$CBIUItem_t@ItemDefinitions@@@std@@@std@@@std@@@std@@QBE_NABV01@@Z 100d3fb0 f i ItemDefinitions.obj
 0002:00025000       ??E?$_Tree_const_iterator@V?$_Tree_val@U?$_Tree_simple_types@U?$pair@$$CBIUItem_t@ItemDefinitions@@@std@@@std@@@std@@@std@@QAE?AV01@H@Z 100d4000 f i ItemDefinitions.obj
 0002:00025070       ??E?$_Tree_const_iterator@V?$_Tree_val@U?$_Tree_simple_types@U?$pair@$$CBIUItem_t@ItemDefinitions@@@std@@@std@@@std@@@std@@QAEAAV01@XZ 100d4070 f i ItemDefinitions.obj
 0002:000250a0       ??E?$_Tree_unchecked_const_iterator@V?$_Tree_val@U?$_Tree_simple_types@U?$pair@$$CBIUItem_t@ItemDefinitions@@@std@@@std@@@std@@U_Iterator_base0@2@@std@@QAEAAV01@XZ 100d40a0 f i ItemDefinitions.obj
 0002:00025150       ??F?$_Tree_const_iterator@V?$_Tree_val@U?$_Tree_simple_types@U?$pair@$$CBIUItem_t@ItemDefinitions@@@std@@@std@@@std@@@std@@QAEAAV01@XZ 100d4150 f i ItemDefinitions.obj
 0002:00025180       ??F?$_Tree_iterator@V?$_Tree_val@U?$_Tree_simple_types@U?$pair@$$CBIUItem_t@ItemDefinitions@@@std@@@std@@@std@@@std@@QAEAAV01@XZ 100d4180 f i ItemDefinitions.obj
 0002:000251b0       ??F?$_Tree_unchecked_const_iterator@V?$_Tree_val@U?$_Tree_simple_types@U?$pair@$$CBIUItem_t@ItemDefinitions@@@std@@@std@@@std@@U_Iterator_base0@2@@std@@QAEAAV01@XZ 100d41b0 f i ItemDefinitions.obj
 0002:000252d0       ??R?$less@I@std@@QBE_NABI0@Z 100d42d0 f i ItemDefinitions.obj
 0002:00025320       ?_Buy@?$vector@UQualityName_t@ItemDefinitions@@V?$allocator@UQualityName_t@ItemDefinitions@@@std@@@std@@AAE_NI@Z 100d4320 f i ItemDefinitions.obj
 0002:00025400       ?_Buy@?$vector@UWeaponName_t@ItemDefinitions@@V?$allocator@UWeaponName_t@ItemDefinitions@@@std@@@std@@AAE_NI@Z 100d4400 f i ItemDefinitions.obj
 0002:000254e0       ?_Buyheadnode@?$_Tree_comp_alloc@V?$_Tmap_traits@IUItem_t@ItemDefinitions@@U?$less@I@std@@V?$allocator@U?$pair@$$CBIUItem_t@ItemDefinitions@@@std@@@4@$0A@@std@@@std@@QAEPAU?$_Tree_node@U?$pair@$$CBIUItem_t@ItemDefinitions@@@std@@PAX@2@XZ 100d44e0 f i ItemDefinitions.obj
 0002:00025630       ?_Buynode0@?$_Tree_comp_alloc@V?$_Tmap_traits@IUItem_t@ItemDefinitions@@U?$less@I@std@@V?$allocator@U?$pair@$$CBIUItem_t@ItemDefinitions@@@std@@@4@$0A@@std@@@std@@QAEPAU?$_Tree_node@U?$pair@$$CBIUItem_t@ItemDefinitions@@@std@@PAX@2@XZ 100d4630 f i ItemDefinitions.obj
 0002:00025770       ?_Construct@?$_Tree_comp_alloc@V?$_Tmap_traits@IUItem_t@ItemDefinitions@@U?$less@I@std@@V?$allocator@U?$pair@$$CBIUItem_t@ItemDefinitions@@@std@@@4@$0A@@std@@@std@@QAEXXZ 100d4770 f i ItemDefinitions.obj
 0002:000257a0       ?_Destroy@?$vector@UQualityName_t@ItemDefinitions@@V?$allocator@UQualityName_t@ItemDefinitions@@@std@@@std@@AAEXPAUQualityName_t@ItemDefinitions@@0@Z 100d47a0 f i ItemDefinitions.obj
 0002:000257e0       ?_Destroy@?$vector@UWeaponName_t@ItemDefinitions@@V?$allocator@UWeaponName_t@ItemDefinitions@@@std@@@std@@AAEXPAUWeaponName_t@ItemDefinitions@@0@Z 100d47e0 f i ItemDefinitions.obj
 0002:00025820       ?_Destroy_if_node@?$_Tree@V?$_Tmap_traits@IUItem_t@ItemDefinitions@@U?$less@I@std@@V?$allocator@U?$pair@$$CBIUItem_t@ItemDefinitions@@@std@@@4@$0A@@std@@@std@@IAEXPAU?$_Tree_node@U?$pair@$$CBIUItem_t@ItemDefinitions@@@std@@PAX@2@@Z 100d4820 f i ItemDefinitions.obj
 0002:00025880       ?_Erase@?$_Tree@V?$_Tmap_traits@IUItem_t@ItemDefinitions@@U?$less@I@std@@V?$allocator@U?$pair@$$CBIUItem_t@ItemDefinitions@@@std@@@4@$0A@@std@@@std@@IAEXPAU?$_Tree_node@U?$pair@$$CBIUItem_t@ItemDefinitions@@@std@@PAX@2@@Z 100d4880 f i ItemDefinitions.obj
 0002:00025920       ?_Extract@?$_Tree@V?$_Tmap_traits@IUItem_t@ItemDefinitions@@U?$less@I@std@@V?$allocator@U?$pair@$$CBIUItem_t@ItemDefinitions@@@std@@@4@$0A@@std@@@std@@QAEPAU?$_Tree_node@U?$pair@$$CBIUItem_t@ItemDefinitions@@@std@@PAX@2@V?$_Tree_const_iterator@V?$_Tree_val@U?$_Tree_simple_types@U?$pair@$$CBIUItem_t@ItemDefinitions@@@std@@@std@@@std@@@2@@Z 100d4920 f i ItemDefinitions.obj
 0002:00025e80       ?_Freeheadnode@?$_Tree_comp_alloc@V?$_Tmap_traits@IUItem_t@ItemDefinitions@@U?$less@I@std@@V?$allocator@U?$pair@$$CBIUItem_t@ItemDefinitions@@@std@@@4@$0A@@std@@@std@@QAEXPAU?$_Tree_node@U?$pair@$$CBIUItem_t@ItemDefinitions@@@std@@PAX@2@@Z 100d4e80 f i ItemDefinitions.obj
 0002:00025ec0       ?_Freenode0@?$_Tree_comp_alloc@V?$_Tmap_traits@IUItem_t@ItemDefinitions@@U?$less@I@std@@V?$allocator@U?$pair@$$CBIUItem_t@ItemDefinitions@@@std@@@4@$0A@@std@@@std@@QAEXPAU?$_Tree_node@U?$pair@$$CBIUItem_t@ItemDefinitions@@@std@@PAX@2@@Z 100d4ec0 f i ItemDefinitions.obj
 0002:00025f00       ?_Get_data@?$_Tree_comp_alloc@V?$_Tmap_traits@IUItem_t@ItemDefinitions@@U?$less@I@std@@V?$allocator@U?$pair@$$CBIUItem_t@ItemDefinitions@@@std@@@4@$0A@@std@@@std@@QAEAAV?$_Tree_val@U?$_Tree_simple_types@U?$pair@$$CBIUItem_t@ItemDefinitions@@@std@@@std@@@2@XZ 100d4f00 f i ItemDefinitions.obj
 0002:00025f30       ?_Get_data@?$_Tree_comp_alloc@V?$_Tmap_traits@IUItem_t@ItemDefinitions@@U?$less@I@std@@V?$allocator@U?$pair@$$CBIUItem_t@ItemDefinitions@@@std@@@4@$0A@@std@@@std@@QBEABV?$_Tree_val@U?$_Tree_simple_types@U?$pair@$$CBIUItem_t@ItemDefinitions@@@std@@@std@@@2@XZ 100d4f30 f i ItemDefinitions.obj
 0002:00025f60       ?_Get_data@?$_Vector_alloc@U?$_Vec_base_types@UQualityName_t@ItemDefinitions@@V?$allocator@UQualityName_t@ItemDefinitions@@@std@@@std@@@std@@QAEAAV?$_Vector_val@U?$_Simple_types@UQualityName_t@ItemDefinitions@@@std@@@2@XZ 100d4f60 f i ItemDefinitions.obj
 0002:00025f90       ?_Get_data@?$_Vector_alloc@U?$_Vec_base_types@UQualityName_t@ItemDefinitions@@V?$allocator@UQualityName_t@ItemDefinitions@@@std@@@std@@@std@@QBEABV?$_Vector_val@U?$_Simple_types@UQualityName_t@ItemDefinitions@@@std@@@2@XZ 100d4f90 f i ItemDefinitions.obj
 0002:00025fc0       ?_Get_data@?$_Vector_alloc@U?$_Vec_base_types@UWeaponName_t@ItemDefinitions@@V?$allocator@UWeaponName_t@ItemDefinitions@@@std@@@std@@@std@@QAEAAV?$_Vector_val@U?$_Simple_types@UWeaponName_t@ItemDefinitions@@@std@@@2@XZ 100d4fc0 f i ItemDefinitions.obj
 0002:00025ff0       ?_Get_data@?$_Vector_alloc@U?$_Vec_base_types@UWeaponName_t@ItemDefinitions@@V?$allocator@UWeaponName_t@ItemDefinitions@@@std@@@std@@@std@@QBEABV?$_Vector_val@U?$_Simple_types@UWeaponName_t@ItemDefinitions@@@std@@@2@XZ 100d4ff0 f i ItemDefinitions.obj
 0002:00026020       ?_Get_first@?$_Compressed_pair@U?$less@I@std@@V?$_Compressed_pair@V?$allocator@U?$_Tree_node@U?$pair@$$CBIUItem_t@ItemDefinitions@@@std@@PAX@std@@@std@@V?$_Tree_val@U?$_Tree_simple_types@U?$pair@$$CBIUItem_t@ItemDefinitions@@@std@@@std@@@2@$00@2@$00@std@@QAEAAU?$less@I@2@XZ 100d5020 f i ItemDefinitions.obj
 0002:00026040       ?_Get_first@?$_Compressed_pair@V?$allocator@U?$_Tree_node@U?$pair@$$CBIUItem_t@ItemDefinitions@@@std@@PAX@std@@@std@@V?$_Tree_val@U?$_Tree_simple_types@U?$pair@$$CBIUItem_t@ItemDefinitions@@@std@@@std@@@2@$00@std@@QAEAAV?$allocator@U?$_Tree_node@U?$pair@$$CBIUItem_t@ItemDefinitions@@@std@@PAX@std@@@2@XZ 100d5040 f i ItemDefinitions.obj
 0002:00026060       ?_Get_first@?$_Compressed_pair@V?$allocator@U?$_Tree_node@U?$pair@$$CBIUItem_t@ItemDefinitions@@@std@@PAX@std@@@std@@V?$_Tree_val@U?$_Tree_simple_types@U?$pair@$$CBIUItem_t@ItemDefinitions@@@std@@@std@@@2@$00@std@@QBEABV?$allocator@U?$_Tree_node@U?$pair@$$CBIUItem_t@ItemDefinitions@@@std@@PAX@std@@@2@XZ 100d5060 f i ItemDefinitions.obj
 0002:00026080       ?_Get_first@?$_Compressed_pair@V?$allocator@UQualityName_t@ItemDefinitions@@@std@@V?$_Vector_val@U?$_Simple_types@UQualityName_t@ItemDefinitions@@@std@@@2@$00@std@@QAEAAV?$allocator@UQualityName_t@ItemDefinitions@@@2@XZ 100d5080 f i ItemDefinitions.obj
 0002:000260a0       ?_Get_first@?$_Compressed_pair@V?$allocator@UQualityName_t@ItemDefinitions@@@std@@V?$_Vector_val@U?$_Simple_types@UQualityName_t@ItemDefinitions@@@std@@@2@$00@std@@QBEABV?$allocator@UQualityName_t@ItemDefinitions@@@2@XZ 100d50a0 f i ItemDefinitions.obj
 0002:000260c0       ?_Get_first@?$_Compressed_pair@V?$allocator@UWeaponName_t@ItemDefinitions@@@std@@V?$_Vector_val@U?$_Simple_types@UWeaponName_t@ItemDefinitions@@@std@@@2@$00@std@@QAEAAV?$allocator@UWeaponName_t@ItemDefinitions@@@2@XZ 100d50c0 f i ItemDefinitions.obj
 0002:000260e0       ?_Get_first@?$_Compressed_pair@V?$allocator@UWeaponName_t@ItemDefinitions@@@std@@V?$_Vector_val@U?$_Simple_types@UWeaponName_t@ItemDefinitions@@@std@@@2@$00@std@@QBEABV?$allocator@UWeaponName_t@ItemDefinitions@@@2@XZ 100d50e0 f i ItemDefinitions.obj
 0002:00026100       ?_Get_second@?$_Compressed_pair@U?$less@I@std@@V?$_Compressed_pair@V?$allocator@U?$_Tree_node@U?$pair@$$CBIUItem_t@ItemDefinitions@@@std@@PAX@std@@@std@@V?$_Tree_val@U?$_Tree_simple_types@U?$pair@$$CBIUItem_t@ItemDefinitions@@@std@@@std@@@2@$00@2@$00@std@@QAEAAV?$_Compressed_pair@V?$allocator@U?$_Tree_node@U?$pair@$$CBIUItem_t@ItemDefinitions@@@std@@PAX@std@@@std@@V?$_Tree_val@U?$_Tree_simple_types@U?$pair@$$CBIUItem_t@ItemDefinitions@@@std@@@std@@@2@$00@2@XZ 100d5100 f i ItemDefinitions.obj
 0002:00026120       ?_Get_second@?$_Compressed_pair@U?$less@I@std@@V?$_Compressed_pair@V?$allocator@U?$_Tree_node@U?$pair@$$CBIUItem_t@ItemDefinitions@@@std@@PAX@std@@@std@@V?$_Tree_val@U?$_Tree_simple_types@U?$pair@$$CBIUItem_t@ItemDefinitions@@@std@@@std@@@2@$00@2@$00@std@@QBEABV?$_Compressed_pair@V?$allocator@U?$_Tree_node@U?$pair@$$CBIUItem_t@ItemDefinitions@@@std@@PAX@std@@@std@@V?$_Tree_val@U?$_Tree_simple_types@U?$pair@$$CBIUItem_t@ItemDefinitions@@@std@@@std@@@2@$00@2@XZ 100d5120 f i ItemDefinitions.obj
 0002:00026140       ?_Get_second@?$_Compressed_pair@V?$allocator@U?$_Tree_node@U?$pair@$$CBIUItem_t@ItemDefinitions@@@std@@PAX@std@@@std@@V?$_Tree_val@U?$_Tree_simple_types@U?$pair@$$CBIUItem_t@ItemDefinitions@@@std@@@std@@@2@$00@std@@QAEAAV?$_Tree_val@U?$_Tree_simple_types@U?$pair@$$CBIUItem_t@ItemDefinitions@@@std@@@std@@@2@XZ 100d5140 f i ItemDefinitions.obj
 0002:00026160       ?_Get_second@?$_Compressed_pair@V?$allocator@U?$_Tree_node@U?$pair@$$CBIUItem_t@ItemDefinitions@@@std@@PAX@std@@@std@@V?$_Tree_val@U?$_Tree_simple_types@U?$pair@$$CBIUItem_t@ItemDefinitions@@@std@@@std@@@2@$00@std@@QBEABV?$_Tree_val@U?$_Tree_simple_types@U?$pair@$$CBIUItem_t@ItemDefinitions@@@std@@@std@@@2@XZ 100d5160 f i ItemDefinitions.obj
 0002:00026180       ?_Get_second@?$_Compressed_pair@V?$allocator@UQualityName_t@ItemDefinitions@@@std@@V?$_Vector_val@U?$_Simple_types@UQualityName_t@ItemDefinitions@@@std@@@2@$00@std@@QAEAAV?$_Vector_val@U?$_Simple_types@UQualityName_t@ItemDefinitions@@@std@@@2@XZ 100d5180 f i ItemDefinitions.obj
 0002:000261a0       ?_Get_second@?$_Compressed_pair@V?$allocator@UQualityName_t@ItemDefinitions@@@std@@V?$_Vector_val@U?$_Simple_types@UQualityName_t@ItemDefinitions@@@std@@@2@$00@std@@QBEABV?$_Vector_val@U?$_Simple_types@UQualityName_t@ItemDefinitions@@@std@@@2@XZ 100d51a0 f i ItemDefinitions.obj
 0002:000261c0       ?_Get_second@?$_Compressed_pair@V?$allocator@UWeaponName_t@ItemDefinitions@@@std@@V?$_Vector_val@U?$_Simple_types@UWeaponName_t@ItemDefinitions@@@std@@@2@$00@std@@QAEAAV?$_Vector_val@U?$_Simple_types@UWeaponName_t@ItemDefinitions@@@std@@@2@XZ 100d51c0 f i ItemDefinitions.obj
 0002:000261e0       ?_Get_second@?$_Compressed_pair@V?$allocator@UWeaponName_t@ItemDefinitions@@@std@@V?$_Vector_val@U?$_Simple_types@UWeaponName_t@ItemDefinitions@@@std@@@2@$00@std@@QBEABV?$_Vector_val@U?$_Simple_types@UWeaponName_t@ItemDefinitions@@@std@@@2@XZ 100d51e0 f i ItemDefinitions.obj
 0002:00026200       ?_Getal@?$_Tree_comp_alloc@V?$_Tmap_traits@IUItem_t@ItemDefinitions@@U?$less@I@std@@V?$allocator@U?$pair@$$CBIUItem_t@ItemDefinitions@@@std@@@4@$0A@@std@@@std@@QAEAAV?$allocator@U?$_Tree_node@U?$pair@$$CBIUItem_t@ItemDefinitions@@@std@@PAX@std@@@2@XZ 100d5200 f i ItemDefinitions.obj
 0002:00026230       ?_Getal@?$_Tree_comp_alloc@V?$_Tmap_traits@IUItem_t@ItemDefinitions@@U?$less@I@std@@V?$allocator@U?$pair@$$CBIUItem_t@ItemDefinitions@@@std@@@4@$0A@@std@@@std@@QBEABV?$allocator@U?$_Tree_node@U?$pair@$$CBIUItem_t@ItemDefinitions@@@std@@PAX@std@@@2@XZ 100d5230 f i ItemDefinitions.obj
 0002:00026260       ?_Getal@?$_Vector_alloc@U?$_Vec_base_types@UQualityName_t@ItemDefinitions@@V?$allocator@UQualityName_t@ItemDefinitions@@@std@@@std@@@std@@QAEAAV?$allocator@UQualityName_t@ItemDefinitions@@@2@XZ 100d5260 f i ItemDefinitions.obj
 0002:00026290       ?_Getal@?$_Vector_alloc@U?$_Vec_base_types@UQualityName_t@ItemDefinitions@@V?$allocator@UQualityName_t@ItemDefinitions@@@std@@@std@@@std@@QBEABV?$allocator@UQualityName_t@ItemDefinitions@@@2@XZ 100d5290 f i ItemDefinitions.obj
 0002:000262c0       ?_Getal@?$_Vector_alloc@U?$_Vec_base_types@UWeaponName_t@ItemDefinitions@@V?$allocator@UWeaponName_t@ItemDefinitions@@@std@@@std@@@std@@QAEAAV?$allocator@UWeaponName_t@ItemDefinitions@@@2@XZ 100d52c0 f i ItemDefinitions.obj
 0002:000262f0       ?_Getal@?$_Vector_alloc@U?$_Vec_base_types@UWeaponName_t@ItemDefinitions@@V?$allocator@UWeaponName_t@ItemDefinitions@@@std@@@std@@@std@@QBEABV?$allocator@UWeaponName_t@ItemDefinitions@@@2@XZ 100d52f0 f i ItemDefinitions.obj
 0002:00026320       ?_Getcomp@?$_Tree_comp_alloc@V?$_Tmap_traits@IUItem_t@ItemDefinitions@@U?$less@I@std@@V?$allocator@U?$pair@$$CBIUItem_t@ItemDefinitions@@@std@@@4@$0A@@std@@@std@@QAEAAU?$less@I@2@XZ 100d5320 f i ItemDefinitions.obj
 0002:00026350       ?_Key@?$_Tree@V?$_Tmap_traits@IUItem_t@ItemDefinitions@@U?$less@I@std@@V?$allocator@U?$pair@$$CBIUItem_t@ItemDefinitions@@@std@@@4@$0A@@std@@@std@@IBEABIPAU?$_Tree_node@U?$pair@$$CBIUItem_t@ItemDefinitions@@@std@@PAX@2@@Z 100d5350 f i ItemDefinitions.obj
 0002:00026380       ?_Kfn@?$_Tree@V?$_Tmap_traits@IUItem_t@ItemDefinitions@@U?$less@I@std@@V?$allocator@U?$pair@$$CBIUItem_t@ItemDefinitions@@@std@@@4@$0A@@std@@@std@@IBEABIABU?$pair@$$CBIUItem_t@ItemDefinitions@@@2@@Z 100d5380 f i ItemDefinitions.obj
 0002:000263b0       ?_Lmost@?$_Tree@V?$_Tmap_traits@IUItem_t@ItemDefinitions@@U?$less@I@std@@V?$allocator@U?$pair@$$CBIUItem_t@ItemDefinitions@@@std@@@4@$0A@@std@@@std@@IBEAAPAU?$_Tree_node@U?$pair@$$CBIUItem_t@ItemDefinitions@@@std@@PAX@2@XZ 100d53b0 f i ItemDefinitions.obj
 0002:000263e0       ?_Lrotate@?$_Tree@V?$_Tmap_traits@IUItem_t@ItemDefinitions@@U?$less@I@std@@V?$allocator@U?$pair@$$CBIUItem_t@ItemDefinitions@@@std@@@4@$0A@@std@@@std@@IAEXPAU?$_Tree_node@U?$pair@$$CBIUItem_t@ItemDefinitions@@@std@@PAX@2@@Z 100d53e0 f i ItemDefinitions.obj
 0002:000264b0       ?_Max@?$_Tree_comp_alloc@V?$_Tmap_traits@IUItem_t@ItemDefinitions@@U?$less@I@std@@V?$allocator@U?$pair@$$CBIUItem_t@ItemDefinitions@@@std@@@4@$0A@@std@@@std@@SAPAU?$_Tree_node@U?$pair@$$CBIUItem_t@ItemDefinitions@@@std@@PAX@2@PAU32@@Z 100d54b0 f i ItemDefinitions.obj
 0002:000264e0       ?_Max@?$_Tree_val@U?$_Tree_simple_types@U?$pair@$$CBIUItem_t@ItemDefinitions@@@std@@@std@@@std@@SAPAU?$_Tree_node@U?$pair@$$CBIUItem_t@ItemDefinitions@@@std@@PAX@2@PAU32@@Z 100d54e0 f i ItemDefinitions.obj
 0002:00026520       ?_Min@?$_Tree_comp_alloc@V?$_Tmap_traits@IUItem_t@ItemDefinitions@@U?$less@I@std@@V?$allocator@U?$pair@$$CBIUItem_t@ItemDefinitions@@@std@@@4@$0A@@std@@@std@@SAPAU?$_Tree_node@U?$pair@$$CBIUItem_t@ItemDefinitions@@@std@@PAX@2@PAU32@@Z 100d5520 f i ItemDefinitions.obj
 0002:00026550       ?_Min@?$_Tree_val@U?$_Tree_simple_types@U?$pair@$$CBIUItem_t@ItemDefinitions@@@std@@@std@@@std@@SAPAU?$_Tree_node@U?$pair@$$CBIUItem_t@ItemDefinitions@@@std@@PAX@2@PAU32@@Z 100d5550 f i ItemDefinitions.obj
 0002:00026590       ?_Myend@?$_Vector_alloc@U?$_Vec_base_types@UQualityName_t@ItemDefinitions@@V?$allocator@UQualityName_t@ItemDefinitions@@@std@@@std@@@std@@QAEAAPAUQualityName_t@ItemDefinitions@@XZ 100d5590 f i ItemDefinitions.obj
 0002:000265c0       ?_Myend@?$_Vector_alloc@U?$_Vec_base_types@UQualityName_t@ItemDefinitions@@V?$allocator@UQualityName_t@ItemDefinitions@@@std@@@std@@@std@@QBEABQAUQualityName_t@ItemDefinitions@@XZ 100d55c0 f i ItemDefinitions.obj
 0002:000265f0       ?_Myend@?$_Vector_alloc@U?$_Vec_base_types@UWeaponName_t@ItemDefinitions@@V?$allocator@UWeaponName_t@ItemDefinitions@@@std@@@std@@@std@@QAEAAPAUWeaponName_t@ItemDefinitions@@XZ 100d55f0 f i ItemDefinitions.obj
 0002:00026620       ?_Myend@?$_Vector_alloc@U?$_Vec_base_types@UWeaponName_t@ItemDefinitions@@V?$allocator@UWeaponName_t@ItemDefinitions@@@std@@@std@@@std@@QBEABQAUWeaponName_t@ItemDefinitions@@XZ 100d5620 f i ItemDefinitions.obj
 0002:00026650       ?_Myfirst@?$_Vector_alloc@U?$_Vec_base_types@UQualityName_t@ItemDefinitions@@V?$allocator@UQualityName_t@ItemDefinitions@@@std@@@std@@@std@@QAEAAPAUQualityName_t@ItemDefinitions@@XZ 100d5650 f i ItemDefinitions.obj
 0002:00026680       ?_Myfirst@?$_Vector_alloc@U?$_Vec_base_types@UQualityName_t@ItemDefinitions@@V?$allocator@UQualityName_t@ItemDefinitions@@@std@@@std@@@std@@QBEABQAUQualityName_t@ItemDefinitions@@XZ 100d5680 f i ItemDefinitions.obj
 0002:000266b0       ?_Myfirst@?$_Vector_alloc@U?$_Vec_base_types@UWeaponName_t@ItemDefinitions@@V?$allocator@UWeaponName_t@ItemDefinitions@@@std@@@std@@@std@@QAEAAPAUWeaponName_t@ItemDefinitions@@XZ 100d56b0 f i ItemDefinitions.obj
 0002:000266e0       ?_Myfirst@?$_Vector_alloc@U?$_Vec_base_types@UWeaponName_t@ItemDefinitions@@V?$allocator@UWeaponName_t@ItemDefinitions@@@std@@@std@@@std@@QBEABQAUWeaponName_t@ItemDefinitions@@XZ 100d56e0 f i ItemDefinitions.obj
 0002:00026710       ?_Myhead@?$_Tree_comp_alloc@V?$_Tmap_traits@IUItem_t@ItemDefinitions@@U?$less@I@std@@V?$allocator@U?$pair@$$CBIUItem_t@ItemDefinitions@@@std@@@4@$0A@@std@@@std@@QAEAAPAU?$_Tree_node@U?$pair@$$CBIUItem_t@ItemDefinitions@@@std@@PAX@2@XZ 100d5710 f i ItemDefinitions.obj
 0002:00026740       ?_Myhead@?$_Tree_comp_alloc@V?$_Tmap_traits@IUItem_t@ItemDefinitions@@U?$less@I@std@@V?$allocator@U?$pair@$$CBIUItem_t@ItemDefinitions@@@std@@@4@$0A@@std@@@std@@QBEABQAU?$_Tree_node@U?$pair@$$CBIUItem_t@ItemDefinitions@@@std@@PAX@2@XZ 100d5740 f i ItemDefinitions.obj
 0002:00026770       ?_Mylast@?$_Vector_alloc@U?$_Vec_base_types@UQualityName_t@ItemDefinitions@@V?$allocator@UQualityName_t@ItemDefinitions@@@std@@@std@@@std@@QAEAAPAUQualityName_t@ItemDefinitions@@XZ 100d5770 f i ItemDefinitions.obj
 0002:000267a0       ?_Mylast@?$_Vector_alloc@U?$_Vec_base_types@UWeaponName_t@ItemDefinitions@@V?$allocator@UWeaponName_t@ItemDefinitions@@@std@@@std@@@std@@QAEAAPAUWeaponName_t@ItemDefinitions@@XZ 100d57a0 f i ItemDefinitions.obj
 0002:000267d0       ?_Mysize@?$_Tree_comp_alloc@V?$_Tmap_traits@IUItem_t@ItemDefinitions@@U?$less@I@std@@V?$allocator@U?$pair@$$CBIUItem_t@ItemDefinitions@@@std@@@4@$0A@@std@@@std@@QAEAAIXZ 100d57d0 f i ItemDefinitions.obj
 0002:00026800       ?_Mysize@?$_Tree_comp_alloc@V?$_Tmap_traits@IUItem_t@ItemDefinitions@@U?$less@I@std@@V?$allocator@U?$pair@$$CBIUItem_t@ItemDefinitions@@@std@@@4@$0A@@std@@@std@@QBEABIXZ 100d5800 f i ItemDefinitions.obj
 0002:00026830       ?_Orphan_all@?$_Vector_alloc@U?$_Vec_base_types@UQualityName_t@ItemDefinitions@@V?$allocator@UQualityName_t@ItemDefinitions@@@std@@@std@@@std@@QAEXXZ 100d5830 f i ItemDefinitions.obj
 0002:00026860       ?_Orphan_all@?$_Vector_alloc@U?$_Vec_base_types@UWeaponName_t@ItemDefinitions@@V?$allocator@UWeaponName_t@ItemDefinitions@@@std@@@std@@@std@@QAEXXZ 100d5860 f i ItemDefinitions.obj
 0002:00026890       ?_Rmost@?$_Tree@V?$_Tmap_traits@IUItem_t@ItemDefinitions@@U?$less@I@std@@V?$allocator@U?$pair@$$CBIUItem_t@ItemDefinitions@@@std@@@4@$0A@@std@@@std@@IBEAAPAU?$_Tree_node@U?$pair@$$CBIUItem_t@ItemDefinitions@@@std@@PAX@2@XZ 100d5890 f i ItemDefinitions.obj
 0002:000268c0       ?_Root@?$_Tree@V?$_Tmap_traits@IUItem_t@ItemDefinitions@@U?$less@I@std@@V?$allocator@U?$pair@$$CBIUItem_t@ItemDefinitions@@@std@@@4@$0A@@std@@@std@@IBEAAPAU?$_Tree_node@U?$pair@$$CBIUItem_t@ItemDefinitions@@@std@@PAX@2@XZ 100d58c0 f i ItemDefinitions.obj
 0002:000268f0       ?_Rrotate@?$_Tree@V?$_Tmap_traits@IUItem_t@ItemDefinitions@@U?$less@I@std@@V?$allocator@U?$pair@$$CBIUItem_t@ItemDefinitions@@@std@@@4@$0A@@std@@@std@@IAEXPAU?$_Tree_node@U?$pair@$$CBIUItem_t@ItemDefinitions@@@std@@PAX@2@@Z 100d58f0 f i ItemDefinitions.obj
 0002:000269c0       ?_Tidy@?$_Tree@V?$_Tmap_traits@IUItem_t@ItemDefinitions@@U?$less@I@std@@V?$allocator@U?$pair@$$CBIUItem_t@ItemDefinitions@@@std@@@4@$0A@@std@@@std@@IAEXXZ 100d59c0 f i ItemDefinitions.obj
 0002:00026a20       ?_Tidy@?$vector@UQualityName_t@ItemDefinitions@@V?$allocator@UQualityName_t@ItemDefinitions@@@std@@@std@@AAEXXZ 100d5a20 f i ItemDefinitions.obj
 0002:00026ae0       ?_Tidy@?$vector@UWeaponName_t@ItemDefinitions@@V?$allocator@UWeaponName_t@ItemDefinitions@@@std@@@std@@AAEXXZ 100d5ae0 f i ItemDefinitions.obj
 0002:00026ba0       ?_Xlength@?$vector@UQualityName_t@ItemDefinitions@@V?$allocator@UQualityName_t@ItemDefinitions@@@std@@@std@@CAXXZ 100d5ba0 f i ItemDefinitions.obj
 0002:00026bc0       ?_Xlength@?$vector@UWeaponName_t@ItemDefinitions@@V?$allocator@UWeaponName_t@ItemDefinitions@@@std@@@std@@CAXXZ 100d5bc0 f i ItemDefinitions.obj
 0002:00026be0       ?__autoclassinit2@?$_Tree_const_iterator@V?$_Tree_val@U?$_Tree_simple_types@U?$pair@$$CBIUItem_t@ItemDefinitions@@@std@@@std@@@std@@@std@@QAEXI@Z 100d5be0 f i ItemDefinitions.obj
 0002:00026c10       ?__autoclassinit2@?$_Tree_iterator@V?$_Tree_val@U?$_Tree_simple_types@U?$pair@$$CBIUItem_t@ItemDefinitions@@@std@@@std@@@std@@@std@@QAEXI@Z 100d5c10 f i ItemDefinitions.obj
 0002:00026c40       ?__autoclassinit2@?$map@IUItem_t@ItemDefinitions@@U?$less@I@std@@V?$allocator@U?$pair@$$CBIUItem_t@ItemDefinitions@@@std@@@4@@std@@QAEXI@Z 100d5c40 f i ItemDefinitions.obj
 0002:00026c70       ?__autoclassinit2@?$vector@UQualityName_t@ItemDefinitions@@V?$allocator@UQualityName_t@ItemDefinitions@@@std@@@std@@QAEXI@Z 100d5c70 f i ItemDefinitions.obj
 0002:00026ca0       ?__autoclassinit2@?$vector@UWeaponName_t@ItemDefinitions@@V?$allocator@UWeaponName_t@ItemDefinitions@@@std@@@std@@QAEXI@Z 100d5ca0 f i ItemDefinitions.obj
 0002:00026cd0       ?allocate@?$allocator@U?$_Tree_node@U?$pair@$$CBIUItem_t@ItemDefinitions@@@std@@PAX@std@@@std@@QAEPAU?$_Tree_node@U?$pair@$$CBIUItem_t@ItemDefinitions@@@std@@PAX@2@I@Z 100d5cd0 f i ItemDefinitions.obj
 0002:00026d00       ?allocate@?$allocator@UQualityName_t@ItemDefinitions@@@std@@QAEPAUQualityName_t@ItemDefinitions@@I@Z 100d5d00 f i ItemDefinitions.obj
 0002:00026d30       ?allocate@?$allocator@UWeaponName_t@ItemDefinitions@@@std@@QAEPAUWeaponName_t@ItemDefinitions@@I@Z 100d5d30 f i ItemDefinitions.obj
 0002:00026d60       ?begin@?$_Tree@V?$_Tmap_traits@IUItem_t@ItemDefinitions@@U?$less@I@std@@V?$allocator@U?$pair@$$CBIUItem_t@ItemDefinitions@@@std@@@4@$0A@@std@@@std@@QAE?AV?$_Tree_iterator@V?$_Tree_val@U?$_Tree_simple_types@U?$pair@$$CBIUItem_t@ItemDefinitions@@@std@@@std@@@std@@@2@XZ 100d5d60 f i ItemDefinitions.obj
 0002:00026de0       ?begin@?$initializer_list@U?$pair@$$CBIUItem_t@ItemDefinitions@@@std@@@std@@QBEPBU?$pair@$$CBIUItem_t@ItemDefinitions@@@2@XZ 100d5de0 f i ItemDefinitions.obj
 0002:00026e00       ?begin@?$initializer_list@UQualityName_t@ItemDefinitions@@@std@@QBEPBUQualityName_t@ItemDefinitions@@XZ 100d5e00 f i ItemDefinitions.obj
 0002:00026e20       ?begin@?$initializer_list@UWeaponName_t@ItemDefinitions@@@std@@QBEPBUWeaponName_t@ItemDefinitions@@XZ 100d5e20 f i ItemDefinitions.obj
 0002:00026e40       ?capacity@?$vector@UQualityName_t@ItemDefinitions@@V?$allocator@UQualityName_t@ItemDefinitions@@@std@@@std@@QBEIXZ 100d5e40 f i ItemDefinitions.obj
 0002:00026e80       ?capacity@?$vector@UWeaponName_t@ItemDefinitions@@V?$allocator@UWeaponName_t@ItemDefinitions@@@std@@@std@@QBEIXZ 100d5e80 f i ItemDefinitions.obj
 0002:00026ec0       ?clear@?$_Tree@V?$_Tmap_traits@IUItem_t@ItemDefinitions@@U?$less@I@std@@V?$allocator@U?$pair@$$CBIUItem_t@ItemDefinitions@@@std@@@4@$0A@@std@@@std@@QAEXXZ 100d5ec0 f i ItemDefinitions.obj
 0002:00026f90       ?deallocate@?$_Default_allocator_traits@V?$allocator@U?$_Tree_node@U?$pair@$$CBIUItem_t@ItemDefinitions@@@std@@PAX@std@@@std@@@std@@SAXAAV?$allocator@U?$_Tree_node@U?$pair@$$CBIUItem_t@ItemDefinitions@@@std@@PAX@std@@@2@QAU?$_Tree_node@U?$pair@$$CBIUItem_t@ItemDefinitions@@@std@@PAX@2@I@Z 100d5f90 f i ItemDefinitions.obj
 0002:00026fc0       ?deallocate@?$allocator@U?$_Tree_node@U?$pair@$$CBIUItem_t@ItemDefinitions@@@std@@PAX@std@@@std@@QAEXQAU?$_Tree_node@U?$pair@$$CBIUItem_t@ItemDefinitions@@@std@@PAX@2@I@Z 100d5fc0 f i ItemDefinitions.obj
 0002:00027000       ?deallocate@?$allocator@UQualityName_t@ItemDefinitions@@@std@@QAEXQAUQualityName_t@ItemDefinitions@@I@Z 100d6000 f i ItemDefinitions.obj
 0002:00027040       ?deallocate@?$allocator@UWeaponName_t@ItemDefinitions@@@std@@QAEXQAUWeaponName_t@ItemDefinitions@@I@Z 100d6040 f i ItemDefinitions.obj
 0002:00027080       ?end@?$_Tree@V?$_Tmap_traits@IUItem_t@ItemDefinitions@@U?$less@I@std@@V?$allocator@U?$pair@$$CBIUItem_t@ItemDefinitions@@@std@@@4@$0A@@std@@@std@@QAE?AV?$_Tree_iterator@V?$_Tree_val@U?$_Tree_simple_types@U?$pair@$$CBIUItem_t@ItemDefinitions@@@std@@@std@@@std@@@2@XZ 100d6080 f i ItemDefinitions.obj
 0002:00027100       ?end@?$initializer_list@U?$pair@$$CBIUItem_t@ItemDefinitions@@@std@@@std@@QBEPBU?$pair@$$CBIUItem_t@ItemDefinitions@@@2@XZ 100d6100 f i ItemDefinitions.obj
 0002:00027120       ?end@?$initializer_list@UQualityName_t@ItemDefinitions@@@std@@QBEPBUQualityName_t@ItemDefinitions@@XZ 100d6120 f i ItemDefinitions.obj
 0002:00027140       ?end@?$initializer_list@UWeaponName_t@ItemDefinitions@@@std@@QBEPBUWeaponName_t@ItemDefinitions@@XZ 100d6140 f i ItemDefinitions.obj
 0002:00027160       ?erase@?$_Tree@V?$_Tmap_traits@IUItem_t@ItemDefinitions@@U?$less@I@std@@V?$allocator@U?$pair@$$CBIUItem_t@ItemDefinitions@@@std@@@4@$0A@@std@@@std@@QAE?AV?$_Tree_iterator@V?$_Tree_val@U?$_Tree_simple_types@U?$pair@$$CBIUItem_t@ItemDefinitions@@@std@@@std@@@std@@@2@V?$_Tree_const_iterator@V?$_Tree_val@U?$_Tree_simple_types@U?$pair@$$CBIUItem_t@ItemDefinitions@@@std@@@std@@@std@@@2@0@Z 100d6160 f i ItemDefinitions.obj
 0002:00027250       ?erase@?$_Tree@V?$_Tmap_traits@IUItem_t@ItemDefinitions@@U?$less@I@std@@V?$allocator@U?$pair@$$CBIUItem_t@ItemDefinitions@@@std@@@4@$0A@@std@@@std@@QAE?AV?$_Tree_iterator@V?$_Tree_val@U?$_Tree_simple_types@U?$pair@$$CBIUItem_t@ItemDefinitions@@@std@@@std@@@std@@@2@V?$_Tree_const_iterator@V?$_Tree_val@U?$_Tree_simple_types@U?$pair@$$CBIUItem_t@ItemDefinitions@@@std@@@std@@@std@@@2@@Z 100d6250 f i ItemDefinitions.obj
 0002:00027330       ?insert@?$_Tree@V?$_Tmap_traits@IUItem_t@ItemDefinitions@@U?$less@I@std@@V?$allocator@U?$pair@$$CBIUItem_t@ItemDefinitions@@@std@@@4@$0A@@std@@@std@@QAEXV?$initializer_list@U?$pair@$$CBIUItem_t@ItemDefinitions@@@std@@@2@@Z 100d6330 f i ItemDefinitions.obj
 0002:00027370       ?max_size@?$_Default_allocator_traits@V?$allocator@U?$_Tree_node@U?$pair@$$CBIUItem_t@ItemDefinitions@@@std@@PAX@std@@@std@@@std@@SAIABV?$allocator@U?$_Tree_node@U?$pair@$$CBIUItem_t@ItemDefinitions@@@std@@PAX@std@@@2@@Z 100d6370 f i ItemDefinitions.obj
 0002:00027390       ?max_size@?$_Default_allocator_traits@V?$allocator@UQualityName_t@ItemDefinitions@@@std@@@std@@SAIABV?$allocator@UQualityName_t@ItemDefinitions@@@2@@Z 100d6390 f i ItemDefinitions.obj
 0002:000273b0       ?max_size@?$_Default_allocator_traits@V?$allocator@UWeaponName_t@ItemDefinitions@@@std@@@std@@SAIABV?$allocator@UWeaponName_t@ItemDefinitions@@@2@@Z 100d63b0 f i ItemDefinitions.obj
 0002:000273d0       ?max_size@?$_Tree@V?$_Tmap_traits@IUItem_t@ItemDefinitions@@U?$less@I@std@@V?$allocator@U?$pair@$$CBIUItem_t@ItemDefinitions@@@std@@@4@$0A@@std@@@std@@QBEIXZ 100d63d0 f i ItemDefinitions.obj
 0002:00027400       ?max_size@?$vector@UQualityName_t@ItemDefinitions@@V?$allocator@UQualityName_t@ItemDefinitions@@@std@@@std@@QBEIXZ 100d6400 f i ItemDefinitions.obj
 0002:00027460       ?max_size@?$vector@UWeaponName_t@ItemDefinitions@@V?$allocator@UWeaponName_t@ItemDefinitions@@@std@@@std@@QBEIXZ 100d6460 f i ItemDefinitions.obj
 0002:000274c0       ?size@?$_Tree@V?$_Tmap_traits@IUItem_t@ItemDefinitions@@U?$less@I@std@@V?$allocator@U?$pair@$$CBIUItem_t@ItemDefinitions@@@std@@@4@$0A@@std@@@std@@QBEIXZ 100d64c0 f i ItemDefinitions.obj
 0002:000274f0       ??$?0$$CBV?$basic_string@DU?$char_traits@D@std@@V?$allocator@D@2@@std@@V01@$0A@@?$pair@$$CBV?$basic_string@DU?$char_traits@D@std@@V?$allocator@D@2@@std@@V?$basic_json@Vmap@std@@Vvector@2@V?$basic_string@DU?$char_traits@D@std@@V?$allocator@D@2@@2@_N_J_KNVallocator@2@Uadl_serializer@nlohmann@@@nlohmann@@@std@@QAE@ABU?$pair@$$CBV?$basic_string@DU?$char_traits@D@std@@V?$allocator@D@2@@std@@V12@@1@@Z 100d64f0 f i KitParser.obj
 0002:00027580       ??$?0$$QAV?$basic_string@DU?$char_traits@D@std@@V?$allocator@D@2@@std@@$$Z$$V@?$pair@$$CBV?$basic_string@DU?$char_traits@D@std@@V?$allocator@D@2@@std@@V12@@std@@QAE@Upiecewise_construct_t@1@V?$tuple@$$QAV?$basic_string@DU?$char_traits@D@std@@V?$allocator@D@2@@std@@@1@V?$tuple@$$V@1@@Z 100d6580 f i KitParser.obj
 0002:000275c0       ??$?0$$V@?$_Compressed_pair@V?$allocator@U?$_Tree_node@U?$pair@$$CBV?$basic_string@DU?$char_traits@D@std@@V?$allocator@D@2@@std@@V?$basic_json@Vmap@std@@Vvector@2@V?$basic_string@DU?$char_traits@D@std@@V?$allocator@D@2@@2@_N_J_KNVallocator@2@Uadl_serializer@nlohmann@@@nlohmann@@@std@@PAX@std@@@std@@V?$_Tree_val@U?$_Tree_simple_types@U?$pair@$$CBV?$basic_string@DU?$char_traits@D@std@@V?$allocator@D@2@@std@@V?$basic_json@Vmap@std@@Vvector@2@V?$basic_string@DU?$char_traits@D@std@@V?$allocator@D@2@@2@_N_J_KNVallocator@2@Uadl_serializer@nlohmann@@@nlohmann@@@std@@@std@@@2@$00@std@@QAE@U_Zero_then_variadic_args_t@1@@Z 100d65c0 f i KitParser.obj
 0002:00027600       ??$?0$$V@?$_Compressed_pair@V?$allocator@_W@std@@V?$_String_val@U?$_Simple_types@_W@std@@@2@$00@std@@QAE@U_Zero_then_variadic_args_t@1@@Z 100d6600 f i KitParser.obj
 0002:00027640       ??$?0AAV?$_Tree_iterator@V?$_Tree_val@U?$_Tree_simple_types@U?$pair@$$CBV?$basic_string@DU?$char_traits@D@std@@V?$allocator@D@2@@std@@V12@@std@@@std@@@std@@@std@@_N$0A@@?$pair@V?$_Tree_iterator@V?$_Tree_val@U?$_Tree_simple_types@U?$pair@$$CBV?$basic_string@DU?$char_traits@D@std@@V?$allocator@D@2@@std@@V12@@std@@@std@@@std@@@std@@_N@std@@QAE@AAV?$_Tree_iterator@V?$_Tree_val@U?$_Tree_simple_types@U?$pair@$$CBV?$basic_string@DU?$char_traits@D@std@@V?$allocator@D@2@@std@@V12@@std@@@std@@@std@@@1@$$QA_N@Z 100d6640 f i KitParser.obj
 0002:00027690       ??$?0AAV?$_Tree_iterator@V?$_Tree_val@U?$_Tree_simple_types@U?$pair@$$CBV?$basic_string@DU?$char_traits@D@std@@V?$allocator@D@2@@std@@V?$basic_json@Vmap@std@@Vvector@2@V?$basic_string@DU?$char_traits@D@std@@V?$allocator@D@2@@2@_N_J_KNVallocator@2@Uadl_serializer@nlohmann@@@nlohmann@@@std@@@std@@@std@@@std@@_N$0A@@?$pair@V?$_Tree_iterator@V?$_Tree_val@U?$_Tree_simple_types@U?$pair@$$CBV?$basic_string@DU?$char_traits@D@std@@V?$allocator@D@2@@std@@V?$basic_json@Vmap@std@@Vvector@2@V?$basic_string@DU?$char_traits@D@std@@V?$allocator@D@2@@2@_N_J_KNVallocator@2@Uadl_serializer@nlohmann@@@nlohmann@@@std@@@std@@@std@@@std@@_N@std@@QAE@AAV?$_Tree_iterator@V?$_Tree_val@U?$_Tree_simple_types@U?$pair@$$CBV?$basic_string@DU?$char_traits@D@std@@V?$allocator@D@2@@std@@V?$basic_json@Vmap@std@@Vvector@2@V?$basic_string@DU?$char_traits@D@std@@V?$allocator@D@2@@2@_N_J_KNVallocator@2@Uadl_serializer@nlohmann@@@nlohmann@@@std@@@std@@@std@@@1@$$QA_N@Z 100d6690 f i KitParser.obj
 0002:000276e0       ??$?0AAV?$basic_ostream@DU?$char_traits@D@std@@@std@@@?$_Ref_count_obj@V?$output_stream_adapter@D@detail@nlohmann@@@std@@QAE@AAV?$basic_ostream@DU?$char_traits@D@std@@@1@@Z 100d66e0 f i KitParser.obj
 0002:000277a0       ??$?0AAV?$map@V?$basic_string@DU?$char_traits@D@std@@V?$allocator@D@2@@std@@V12@U?$less@V?$basic_string@DU?$char_traits@D@std@@V?$allocator@D@2@@std@@@2@V?$allocator@U?$pair@$$CBV?$basic_string@DU?$char_traits@D@std@@V?$allocator@D@2@@std@@V12@@std@@@2@@std@@V01@$0A@@?$basic_json@Vmap@std@@Vvector@2@V?$basic_string@DU?$char_traits@D@std@@V?$allocator@D@2@@2@_N_J_KNVallocator@2@Uadl_serializer@nlohmann@@@nlohmann@@QAE@AAV?$map@V?$basic_string@DU?$char_traits@D@std@@V?$allocator@D@2@@std@@V12@U?$less@V?$basic_string@DU?$char_traits@D@std@@V?$allocator@D@2@@std@@@2@V?$allocator@U?$pair@$$CBV?$basic_string@DU?$char_traits@D@std@@V?$allocator@D@2@@std@@V12@@std@@@2@@std@@@Z 100d67a0 f i KitParser.obj
 0002:00027800       ??$?0ABU?$less@V?$basic_string@DU?$char_traits@D@std@@V?$allocator@D@2@@std@@@std@@U_Zero_then_variadic_args_t@1@@?$_Compressed_pair@U?$less@V?$basic_string@DU?$char_traits@D@std@@V?$allocator@D@2@@std@@@std@@V?$_Compressed_pair@V?$allocator@U?$_Tree_node@U?$pair@$$CBV?$basic_string@DU?$char_traits@D@std@@V?$allocator@D@2@@std@@V?$basic_json@Vmap@std@@Vvector@2@V?$basic_string@DU?$char_traits@D@std@@V?$allocator@D@2@@2@_N_J_KNVallocator@2@Uadl_serializer@nlohmann@@@nlohmann@@@std@@PAX@std@@@std@@V?$_Tree_val@U?$_Tree_simple_types@U?$pair@$$CBV?$basic_string@DU?$char_traits@D@std@@V?$allocator@D@2@@std@@V?$basic_json@Vmap@std@@Vvector@2@V?$basic_string@DU?$char_traits@D@std@@V?$allocator@D@2@@2@_N_J_KNVallocator@2@Uadl_serializer@nlohmann@@@nlohmann@@@std@@@std@@@2@$00@2@$00@std@@QAE@U_One_then_variadic_args_t@1@ABU?$less@V?$basic_string@DU?$char_traits@D@std@@V?$allocator@D@2@@std@@@1@$$QAU_Zero_then_variadic_args_t@1@@Z 100d6800 f i KitParser.obj
 0002:000278f0       ??$?0ABV?$allocator@D@std@@$$V@?$_Compressed_pair@V?$allocator@D@std@@V?$_String_val@U?$_Simple_types@D@std@@@2@$00@std@@QAE@U_One_then_variadic_args_t@1@ABV?$allocator@D@1@@Z 100d68f0 f i KitParser.obj
 0002:00027930       ??$?0ABV?$allocator@D@std@@X@?$_String_alloc@U?$_String_base_types@DV?$allocator@D@std@@@std@@@std@@QAE@ABV?$allocator@D@1@@Z 100d6930 f i KitParser.obj
 0002:00027970       ??$?0ABV?$basic_string@DU?$char_traits@D@std@@V?$allocator@D@2@@std@@V01@$0A@@?$basic_json@Vmap@std@@Vvector@2@V?$basic_string@DU?$char_traits@D@std@@V?$allocator@D@2@@2@_N_J_KNVallocator@2@Uadl_serializer@nlohmann@@@nlohmann@@QAE@ABV?$basic_string@DU?$char_traits@D@std@@V?$allocator@D@2@@std@@@Z 100d6970 f i KitParser.obj
 0002:000279d0       ??$?0PADX@?$basic_string@DU?$char_traits@D@std@@V?$allocator@D@2@@std@@QAE@PAD0ABV?$allocator@D@1@@Z 100d69d0 f i KitParser.obj
 0002:00027b20       ??$?0U_Exact_args_t@std@@$0A@@?$tuple@$$V@std@@QAE@U_Exact_args_t@1@@Z 100d6b20 f i KitParser.obj
 0002:00027b40       ??$?0U_Exact_args_t@std@@V?$basic_string@DU?$char_traits@D@std@@V?$allocator@D@2@@1@$$V$0A@@?$tuple@$$QAV?$basic_string@DU?$char_traits@D@std@@V?$allocator@D@2@@std@@@std@@QAE@U_Exact_args_t@1@$$QAV?$basic_string@DU?$char_traits@D@std@@V?$allocator@D@2@@1@@Z 100d6b40 f i KitParser.obj
 0002:00027c70       ??$?0V?$_Tree_const_iterator@V?$_Tree_val@U?$_Tree_simple_types@U?$pair@$$CBV?$basic_string@DU?$char_traits@D@std@@V?$allocator@D@2@@std@@V12@@std@@@std@@@std@@@std@@@?$map@V?$basic_string@DU?$char_traits@D@std@@V?$allocator@D@2@@std@@V?$basic_json@Vmap@std@@Vvector@2@V?$basic_string@DU?$char_traits@D@std@@V?$allocator@D@2@@2@_N_J_KNVallocator@2@Uadl_serializer@nlohmann@@@nlohmann@@U?$less@V?$basic_string@DU?$char_traits@D@std@@V?$allocator@D@2@@std@@@2@V?$allocator@U?$pair@$$CBV?$basic_string@DU?$char_traits@D@std@@V?$allocator@D@2@@std@@V?$basic_json@Vmap@std@@Vvector@2@V?$basic_string@DU?$char_traits@D@std@@V?$allocator@D@2@@2@_N_J_KNVallocator@2@Uadl_serializer@nlohmann@@@nlohmann@@@std@@@2@@std@@QAE@V?$_Tree_const_iterator@V?$_Tree_val@U?$_Tree_simple_types@U?$pair@$$CBV?$basic_string@DU?$char_traits@D@std@@V?$allocator@D@2@@std@@V12@@std@@@std@@@std@@@1@0@Z 100d6c70 f i KitParser.obj
 0002:00027d00       ??$?0V?$_Tree_iterator@V?$_Tree_val@U?$_Tree_simple_types@U?$pair@$$CBV?$basic_string@DU?$char_traits@D@std@@V?$allocator@D@2@@std@@V12@@std@@@std@@@std@@@std@@_N$0A@@?$pair@V?$_Tree_iterator@V?$_Tree_val@U?$_Tree_simple_types@U?$pair@$$CBV?$basic_string@DU?$char_traits@D@std@@V?$allocator@D@2@@std@@V12@@std@@@std@@@std@@@std@@_N@std@@QAE@$$QAV?$_Tree_iterator@V?$_Tree_val@U?$_Tree_simple_types@U?$pair@$$CBV?$basic_string@DU?$char_traits@D@std@@V?$allocator@D@2@@std@@V12@@std@@@std@@@std@@@1@$$QA_N@Z 100d6d00 f i KitParser.obj
 0002:00027d50       ??$?0V?$_Tree_iterator@V?$_Tree_val@U?$_Tree_simple_types@U?$pair@$$CBV?$basic_string@DU?$char_traits@D@std@@V?$allocator@D@2@@std@@V?$basic_json@Vmap@std@@Vvector@2@V?$basic_string@DU?$char_traits@D@std@@V?$allocator@D@2@@2@_N_J_KNVallocator@2@Uadl_serializer@nlohmann@@@nlohmann@@@std@@@std@@@std@@@std@@_N$0A@@?$pair@V?$_Tree_iterator@V?$_Tree_val@U?$_Tree_simple_types@U?$pair@$$CBV?$basic_string@DU?$char_traits@D@std@@V?$allocator@D@2@@std@@V?$basic_json@Vmap@std@@Vvector@2@V?$basic_string@DU?$char_traits@D@std@@V?$allocator@D@2@@2@_N_J_KNVallocator@2@Uadl_serializer@nlohmann@@@nlohmann@@@std@@@std@@@std@@@std@@_N@std@@QAE@$$QAV?$_Tree_iterator@V?$_Tree_val@U?$_Tree_simple_types@U?$pair@$$CBV?$basic_string@DU?$char_traits@D@std@@V?$allocator@D@2@@std@@V?$basic_json@Vmap@std@@Vvector@2@V?$basic_string@DU?$char_traits@D@std@@V?$allocator@D@2@@2@_N_J_KNVallocator@2@Uadl_serializer@nlohmann@@@nlohmann@@@std@@@std@@@std@@@1@$$QA_N@Z 100d6d50 f i KitParser.obj
 0002:00027da0       ??$?0V?$allocator@D@std@@$$V@?$_Compressed_pair@V?$allocator@D@std@@V?$_String_val@U?$_Simple_types@D@std@@@2@$00@std@@QAE@U_One_then_variadic_args_t@1@$$QAV?$allocator@D@1@@Z 100d6da0 f i KitParser.obj
 0002:00027de0       ??$?0V?$allocator@D@std@@X@?$_String_alloc@U?$_String_base_types@DV?$allocator@D@std@@@std@@@std@@QAE@$$QAV?$allocator@D@1@@Z 100d6de0 f i KitParser.obj
 0002:00027e20       ??$?0V?$basic_string@DU?$char_traits@D@std@@V?$allocator@D@2@@std@@$$V$0A@@?$tuple@$$QAV?$basic_string@DU?$char_traits@D@std@@V?$allocator@D@2@@std@@@std@@QAE@$$QAV?$basic_string@DU?$char_traits@D@std@@V?$allocator@D@2@@1@@Z 100d6e20 f i KitParser.obj
 0002:00027e70       ??$?0V?$basic_string@DU?$char_traits@D@std@@V?$allocator@D@2@@std@@@?$_Tuple_val@$$QAV?$basic_string@DU?$char_traits@D@std@@V?$allocator@D@2@@std@@@std@@QAE@$$QAV?$basic_string@DU?$char_traits@D@std@@V?$allocator@D@2@@1@@Z 100d6e70 f i KitParser.obj
 0002:00027eb0       ??$?0V?$codecvt_utf8_utf16@_W$0BAPPPP@$0A@@std@@@locale@std@@QAE@ABV01@PBV?$codecvt_utf8_utf16@_W$0BAPPPP@$0A@@1@@Z 100d6eb0 f i KitParser.obj
 0002:00027f40       ??$?0V?$output_stream_adapter@D@detail@nlohmann@@$0A@@?$shared_ptr@U?$output_adapter_protocol@D@detail@nlohmann@@@std@@QAE@$$QAV?$shared_ptr@V?$output_stream_adapter@D@detail@nlohmann@@@1@@Z 100d6f40 f i KitParser.obj
 0002:00027fc0       ??$?0V?$tuple@$$QAV?$basic_string@DU?$char_traits@D@std@@V?$allocator@D@2@@std@@@std@@V?$tuple@$$V@1@$0A@$$Z$S@?$pair@$$CBV?$basic_string@DU?$char_traits@D@std@@V?$allocator@D@2@@std@@V12@@std@@QAE@AAV?$tuple@$$QAV?$basic_string@DU?$char_traits@D@std@@V?$allocator@D@2@@std@@@1@AAV?$tuple@$$V@1@U?$integer_sequence@I$0A@@1@U?$integer_sequence@I$S@1@@Z 100d6fc0 f i KitParser.obj
 0002:00028020       ??$?6DU?$char_traits@D@std@@D@std@@YAAAV?$basic_ostream@DU?$char_traits@D@std@@@0@AAV10@ABU?$_Fillobj@D@0@@Z 100d7020 f i KitParser.obj
 0002:00028060       ??$?6DU?$char_traits@D@std@@_J@std@@YAAAV?$basic_ostream@DU?$char_traits@D@std@@@0@AAV10@ABU?$_Smanip@_J@0@@Z 100d7060 f i KitParser.obj
 0002:000280c0       ??$?8DU?$char_traits@D@std@@V?$allocator@D@1@@std@@YA_NABV?$basic_string@DU?$char_traits@D@std@@V?$allocator@D@2@@0@0@Z 100d70c0 f i KitParser.obj
 0002:00028170       ??$?9DU?$char_traits@D@std@@V?$allocator@D@1@@std@@YA_NABV?$basic_string@DU?$char_traits@D@std@@V?$allocator@D@2@@0@0@Z 100d7170 f i KitParser.obj
 0002:00028260       ??$?CU?$output_adapter_protocol@D@detail@nlohmann@@$0A@@?$shared_ptr@U?$output_adapter_protocol@D@detail@nlohmann@@@std@@QBEPAU?$output_adapter_protocol@D@detail@nlohmann@@XZ 100d7260 f i KitParser.obj
 0002:00028290       ??$?HDU?$char_traits@D@std@@V?$allocator@D@1@@std@@YA?AV?$basic_string@DU?$char_traits@D@std@@V?$allocator@D@2@@0@$$QAV10@0@Z 100d7290 f i KitParser.obj
 0002:00028370       ??$?HDU?$char_traits@D@std@@V?$allocator@D@1@@std@@YA?AV?$basic_string@DU?$char_traits@D@std@@V?$allocator@D@2@@0@$$QAV10@ABV10@@Z 100d7370 f i KitParser.obj
 0002:000283d0       ??$?HDU?$char_traits@D@std@@V?$allocator@D@1@@std@@YA?AV?$basic_string@DU?$char_traits@D@std@@V?$allocator@D@2@@0@$$QAV10@QBD@Z 100d73d0 f i KitParser.obj
 0002:00028430       ??$?HDU?$char_traits@D@std@@V?$allocator@D@1@@std@@YA?AV?$basic_string@DU?$char_traits@D@std@@V?$allocator@D@2@@0@QBD$$QAV10@@Z 100d7430 f i KitParser.obj
 0002:00028490       ??$?HDU?$char_traits@D@std@@V?$allocator@D@1@@std@@YA?AV?$basic_string@DU?$char_traits@D@std@@V?$allocator@D@2@@0@QBDABV10@@Z 100d7490 f i KitParser.obj
 0002:00028590       ??$?MDU?$char_traits@D@std@@V?$allocator@D@1@@std@@YA_NABV?$basic_string@DU?$char_traits@D@std@@V?$allocator@D@2@@0@0@Z 100d7590 f i KitParser.obj
 0002:000285d0       ??$?RV?$basic_json@Vmap@std@@Vvector@2@V?$basic_string@DU?$char_traits@D@std@@V?$allocator@D@2@@2@_N_J_KNVallocator@2@Uadl_serializer@nlohmann@@@nlohmann@@AAV?$map@V?$basic_string@DU?$char_traits@D@std@@V?$allocator@D@2@@std@@V12@U?$less@V?$basic_string@DU?$char_traits@D@std@@V?$allocator@D@2@@std@@@2@V?$allocator@U?$pair@$$CBV?$basic_string@DU?$char_traits@D@std@@V?$allocator@D@2@@std@@V12@@std@@@2@@std@@@to_json_fn@detail@nlohmann@@QBEXAAV?$basic_json@Vmap@std@@Vvector@2@V?$basic_string@DU?$char_traits@D@std@@V?$allocator@D@2@@2@_N_J_KNVallocator@2@Uadl_serializer@nlohmann@@@2@AAV?$map@V?$basic_string@DU?$char_traits@D@std@@V?$allocator@D@2@@std@@V12@U?$less@V?$basic_string@DU?$char_traits@D@std@@V?$allocator@D@2@@std@@@2@V?$allocator@U?$pair@$$CBV?$basic_string@DU?$char_traits@D@std@@V?$allocator@D@2@@std@@V12@@std@@@2@@std@@@Z 100d75d0 f i KitParser.obj
 0002:00028610       ??$?RV?$basic_json@Vmap@std@@Vvector@2@V?$basic_string@DU?$char_traits@D@std@@V?$allocator@D@2@@2@_N_J_KNVallocator@2@Uadl_serializer@nlohmann@@@nlohmann@@ABV?$basic_string@DU?$char_traits@D@std@@V?$allocator@D@2@@std@@@to_json_fn@detail@nlohmann@@QBEXAAV?$basic_json@Vmap@std@@Vvector@2@V?$basic_string@DU?$char_traits@D@std@@V?$allocator@D@2@@2@_N_J_KNVallocator@2@Uadl_serializer@nlohmann@@@2@ABV?$basic_string@DU?$char_traits@D@std@@V?$allocator@D@2@@std@@@Z 100d7610 f i KitParser.obj
 0002:00028650       ??$_Advance1@V?$_Tree_const_iterator@V?$_Tree_val@U?$_Tree_simple_types@U?$pair@$$CBV?$basic_string@DU?$char_traits@D@std@@V?$allocator@D@2@@std@@V?$basic_json@Vmap@std@@Vvector@2@V?$basic_string@DU?$char_traits@D@std@@V?$allocator@D@2@@2@_N_J_KNVallocator@2@Uadl_serializer@nlohmann@@@nlohmann@@@std@@@std@@@std@@@std@@H@std@@YAXAAV?$_Tree_const_iterator@V?$_Tree_val@U?$_Tree_simple_types@U?$pair@$$CBV?$basic_string@DU?$char_traits@D@std@@V?$allocator@D@2@@std@@V?$basic_json@Vmap@std@@Vvector@2@V?$basic_string@DU?$char_traits@D@std@@V?$allocator@D@2@@2@_N_J_KNVallocator@2@Uadl_serializer@nlohmann@@@nlohmann@@@std@@@std@@@std@@@0@HUbidirectional_iterator_tag@0@@Z 100d7650 f i KitParser.obj
 0002:000286b0       ??$_Buy_if_not_node@AAU?$pair@$$CBV?$basic_string@DU?$char_traits@D@std@@V?$allocator@D@2@@std@@V12@@std@@@?$_Tree@V?$_Tmap_traits@V?$basic_string@DU?$char_traits@D@std@@V?$allocator@D@2@@std@@V12@U?$less@V?$basic_string@DU?$char_traits@D@std@@V?$allocator@D@2@@std@@@2@V?$allocator@U?$pair@$$CBV?$basic_string@DU?$char_traits@D@std@@V?$allocator@D@2@@std@@V12@@std@@@2@$0A@@std@@@std@@IAEPAU?$_Tree_node@U?$pair@$$CBV?$basic_string@DU?$char_traits@D@std@@V?$allocator@D@2@@std@@V12@@std@@PAX@1@PAU21@AAU?$pair@$$CBV?$basic_string@DU?$char_traits@D@std@@V?$allocator@D@2@@std@@V12@@1@@Z 100d76b0 f i KitParser.obj
 0002:000286d0       ??$_Buy_if_not_node@AAU?$pair@$$CBV?$basic_string@DU?$char_traits@D@std@@V?$allocator@D@2@@std@@V?$basic_json@Vmap@std@@Vvector@2@V?$basic_string@DU?$char_traits@D@std@@V?$allocator@D@2@@2@_N_J_KNVallocator@2@Uadl_serializer@nlohmann@@@nlohmann@@@std@@@?$_Tree@V?$_Tmap_traits@V?$basic_string@DU?$char_traits@D@std@@V?$allocator@D@2@@std@@V?$basic_json@Vmap@std@@Vvector@2@V?$basic_string@DU?$char_traits@D@std@@V?$allocator@D@2@@2@_N_J_KNVallocator@2@Uadl_serializer@nlohmann@@@nlohmann@@U?$less@V?$basic_string@DU?$char_traits@D@std@@V?$allocator@D@2@@std@@@2@V?$allocator@U?$pair@$$CBV?$basic_string@DU?$char_traits@D@std@@V?$allocator@D@2@@std@@V?$basic_json@Vmap@std@@Vvector@2@V?$basic_string@DU?$char_traits@D@std@@V?$allocator@D@2@@2@_N_J_KNVallocator@2@Uadl_serializer@nlohmann@@@nlohmann@@@std@@@2@$0A@@std@@@std@@IAEPAU?$_Tree_node@U?$pair@$$CBV?$basic_string@DU?$char_traits@D@std@@V?$allocator@D@2@@std@@V?$basic_json@Vmap@std@@Vvector@2@V?$basic_string@DU?$char_traits@D@std@@V?$allocator@D@2@@2@_N_J_KNVallocator@2@Uadl_serializer@nlohmann@@@nlohmann@@@std@@PAX@1@PAU21@AAU?$pair@$$CBV?$basic_string@DU?$char_traits@D@std@@V?$allocator@D@2@@std@@V?$basic_json@Vmap@std@@Vvector@2@V?$basic_string@DU?$char_traits@D@std@@V?$allocator@D@2@@2@_N_J_KNVallocator@2@Uadl_serializer@nlohmann@@@nlohmann@@@1@@Z 100d76d0 f i KitParser.obj
 0002:000286f0       ??$_Buynode@ABU?$pair@$$CBV?$basic_string@DU?$char_traits@D@std@@V?$allocator@D@2@@std@@V12@@std@@@?$_Tree_comp_alloc@V?$_Tmap_traits@V?$basic_string@DU?$char_traits@D@std@@V?$allocator@D@2@@std@@V?$basic_json@Vmap@std@@Vvector@2@V?$basic_string@DU?$char_traits@D@std@@V?$allocator@D@2@@2@_N_J_KNVallocator@2@Uadl_serializer@nlohmann@@@nlohmann@@U?$less@V?$basic_string@DU?$char_traits@D@std@@V?$allocator@D@2@@std@@@2@V?$allocator@U?$pair@$$CBV?$basic_string@DU?$char_traits@D@std@@V?$allocator@D@2@@std@@V?$basic_json@Vmap@std@@Vvector@2@V?$basic_string@DU?$char_traits@D@std@@V?$allocator@D@2@@2@_N_J_KNVallocator@2@Uadl_serializer@nlohmann@@@nlohmann@@@std@@@2@$0A@@std@@@std@@QAEPAU?$_Tree_node@U?$pair@$$CBV?$basic_string@DU?$char_traits@D@std@@V?$allocator@D@2@@std@@V?$basic_json@Vmap@std@@Vvector@2@V?$basic_string@DU?$char_traits@D@std@@V?$allocator@D@2@@2@_N_J_KNVallocator@2@Uadl_serializer@nlohmann@@@nlohmann@@@std@@PAX@1@ABU?$pair@$$CBV?$basic_string@DU?$char_traits@D@std@@V?$allocator@D@2@@std@@V12@@1@@Z 100d76f0 f i KitParser.obj
 0002:000287f0       ??$_Buynode@ABUpiecewise_construct_t@std@@V?$tuple@$$QAV?$basic_string@DU?$char_traits@D@std@@V?$allocator@D@2@@std@@@2@V?$tuple@$$V@2@@?$_Tree_comp_alloc@V?$_Tmap_traits@V?$basic_string@DU?$char_traits@D@std@@V?$allocator@D@2@@std@@V12@U?$less@V?$basic_string@DU?$char_traits@D@std@@V?$allocator@D@2@@std@@@2@V?$allocator@U?$pair@$$CBV?$basic_string@DU?$char_traits@D@std@@V?$allocator@D@2@@std@@V12@@std@@@2@$0A@@std@@@std@@QAEPAU?$_Tree_node@U?$pair@$$CBV?$basic_string@DU?$char_traits@D@std@@V?$allocator@D@2@@std@@V12@@std@@PAX@1@ABUpiecewise_construct_t@1@$$QAV?$tuple@$$QAV?$basic_string@DU?$char_traits@D@std@@V?$allocator@D@2@@std@@@1@$$QAV?$tuple@$$V@1@@Z 100d77f0 f i KitParser.obj
 0002:00028910       ??$_Copy_construct_from@U?$output_adapter_protocol@D@detail@nlohmann@@@?$_Ptr_base@U?$output_adapter_protocol@D@detail@nlohmann@@@std@@IAEXABV?$shared_ptr@U?$output_adapter_protocol@D@detail@nlohmann@@@1@@Z 100d7910 f i KitParser.obj
 0002:00028960       ??$_Destroy_range1@V?$allocator@V?$basic_json@Vmap@std@@Vvector@2@V?$basic_string@DU?$char_traits@D@std@@V?$allocator@D@2@@2@_N_J_KNVallocator@2@Uadl_serializer@nlohmann@@@nlohmann@@@std@@@std@@YAXPAV?$basic_json@Vmap@std@@Vvector@2@V?$basic_string@DU?$char_traits@D@std@@V?$allocator@D@2@@2@_N_J_KNVallocator@2@Uadl_serializer@nlohmann@@@nlohmann@@0AAV?$allocator@V?$basic_json@Vmap@std@@Vvector@2@V?$basic_string@DU?$char_traits@D@std@@V?$allocator@D@2@@2@_N_J_KNVallocator@2@Uadl_serializer@nlohmann@@@nlohmann@@@0@U?$integral_constant@_N$0A@@0@@Z 100d7960 f i KitParser.obj
 0002:000289b0       ??$_Destroy_range@V?$allocator@V?$basic_json@Vmap@std@@Vvector@2@V?$basic_string@DU?$char_traits@D@std@@V?$allocator@D@2@@2@_N_J_KNVallocator@2@Uadl_serializer@nlohmann@@@nlohmann@@@std@@@std@@YAXPAV?$basic_json@Vmap@std@@Vvector@2@V?$basic_string@DU?$char_traits@D@std@@V?$allocator@D@2@@2@_N_J_KNVallocator@2@Uadl_serializer@nlohmann@@@nlohmann@@0AAV?$allocator@V?$basic_json@Vmap@std@@Vvector@2@V?$basic_string@DU?$char_traits@D@std@@V?$allocator@D@2@@2@_N_J_KNVallocator@2@Uadl_serializer@nlohmann@@@nlohmann@@@0@@Z 100d79b0 f i KitParser.obj
 0002:000289f0       ??$_Enable_shared_from_this1@V?$output_stream_adapter@D@detail@nlohmann@@V123@@std@@YAXABV?$shared_ptr@V?$output_stream_adapter@D@detail@nlohmann@@@0@PAV?$output_stream_adapter@D@detail@nlohmann@@U?$integral_constant@_N$0A@@0@@Z 100d79f0 f i KitParser.obj
 0002:00028a10       ??$_Enable_shared_from_this@V?$output_stream_adapter@D@detail@nlohmann@@V123@@std@@YAXABV?$shared_ptr@V?$output_stream_adapter@D@detail@nlohmann@@@0@PAV?$output_stream_adapter@D@detail@nlohmann@@@Z 100d7a10 f i KitParser.obj
 0002:00028a50       ??$_Fgetc@D@std@@YA_NAADPAU_iobuf@@@Z 100d7a50 f i KitParser.obj
 0002:00028aa0       ??$_Fputc@D@std@@YA_NDPAU_iobuf@@@Z 100d7aa0 f i KitParser.obj
 0002:00028af0       ??$_Freenode0@V?$allocator@U?$_Tree_node@U?$pair@$$CBV?$basic_string@DU?$char_traits@D@std@@V?$allocator@D@2@@std@@V12@@std@@PAX@std@@@std@@@?$_Tree_node@U?$pair@$$CBV?$basic_string@DU?$char_traits@D@std@@V?$allocator@D@2@@std@@V12@@std@@PAX@std@@SAXAAV?$allocator@U?$_Tree_node@U?$pair@$$CBV?$basic_string@DU?$char_traits@D@std@@V?$allocator@D@2@@std@@V12@@std@@PAX@std@@@1@PAU01@@Z 100d7af0 f i KitParser.obj
 0002:00028bd0       ??$_Freenode0@V?$allocator@U?$_Tree_node@U?$pair@$$CBV?$basic_string@DU?$char_traits@D@std@@V?$allocator@D@2@@std@@V?$basic_json@Vmap@std@@Vvector@2@V?$basic_string@DU?$char_traits@D@std@@V?$allocator@D@2@@2@_N_J_KNVallocator@2@Uadl_serializer@nlohmann@@@nlohmann@@@std@@PAX@std@@@std@@@?$_Tree_node@U?$pair@$$CBV?$basic_string@DU?$char_traits@D@std@@V?$allocator@D@2@@std@@V?$basic_json@Vmap@std@@Vvector@2@V?$basic_string@DU?$char_traits@D@std@@V?$allocator@D@2@@2@_N_J_KNVallocator@2@Uadl_serializer@nlohmann@@@nlohmann@@@std@@PAX@std@@SAXAAV?$allocator@U?$_Tree_node@U?$pair@$$CBV?$basic_string@DU?$char_traits@D@std@@V?$allocator@D@2@@std@@V?$basic_json@Vmap@std@@Vvector@2@V?$basic_string@DU?$char_traits@D@std@@V?$allocator@D@2@@2@_N_J_KNVallocator@2@Uadl_serializer@nlohmann@@@nlohmann@@@std@@PAX@std@@@1@PAU01@@Z 100d7bd0 f i KitParser.obj
 0002:00028cb0       ??$_Insert_at@AAU?$pair@$$CBV?$basic_string@DU?$char_traits@D@std@@V?$allocator@D@2@@std@@V12@@std@@PAU?$_Tree_node@U?$pair@$$CBV?$basic_string@DU?$char_traits@D@std@@V?$allocator@D@2@@std@@V12@@std@@PAX@2@@?$_Tree@V?$_Tmap_traits@V?$basic_string@DU?$char_traits@D@std@@V?$allocator@D@2@@std@@V12@U?$less@V?$basic_string@DU?$char_traits@D@std@@V?$allocator@D@2@@std@@@2@V?$allocator@U?$pair@$$CBV?$basic_string@DU?$char_traits@D@std@@V?$allocator@D@2@@std@@V12@@std@@@2@$0A@@std@@@std@@IAE?AV?$_Tree_iterator@V?$_Tree_val@U?$_Tree_simple_types@U?$pair@$$CBV?$basic_string@DU?$char_traits@D@std@@V?$allocator@D@2@@std@@V12@@std@@@std@@@std@@@1@_NPAU?$_Tree_node@U?$pair@$$CBV?$basic_string@DU?$char_traits@D@std@@V?$allocator@D@2@@std@@V12@@std@@PAX@1@AAU?$pair@$$CBV?$basic_string@DU?$char_traits@D@std@@V?$allocator@D@2@@std@@V12@@1@1@Z 100d7cb0 f i KitParser.obj
 0002:00028ff0       ??$_Insert_at@AAU?$pair@$$CBV?$basic_string@DU?$char_traits@D@std@@V?$allocator@D@2@@std@@V?$basic_json@Vmap@std@@Vvector@2@V?$basic_string@DU?$char_traits@D@std@@V?$allocator@D@2@@2@_N_J_KNVallocator@2@Uadl_serializer@nlohmann@@@nlohmann@@@std@@PAU?$_Tree_node@U?$pair@$$CBV?$basic_string@DU?$char_traits@D@std@@V?$allocator@D@2@@std@@V?$basic_json@Vmap@std@@Vvector@2@V?$basic_string@DU?$char_traits@D@std@@V?$allocator@D@2@@2@_N_J_KNVallocator@2@Uadl_serializer@nlohmann@@@nlohmann@@@std@@PAX@2@@?$_Tree@V?$_Tmap_traits@V?$basic_string@DU?$char_traits@D@std@@V?$allocator@D@2@@std@@V?$basic_json@Vmap@std@@Vvector@2@V?$basic_string@DU?$char_traits@D@std@@V?$allocator@D@2@@2@_N_J_KNVallocator@2@Uadl_serializer@nlohmann@@@nlohmann@@U?$less@V?$basic_string@DU?$char_traits@D@std@@V?$allocator@D@2@@std@@@2@V?$allocator@U?$pair@$$CBV?$basic_string@DU?$char_traits@D@std@@V?$allocator@D@2@@std@@V?$basic_json@Vmap@std@@Vvector@2@V?$basic_string@DU?$char_traits@D@std@@V?$allocator@D@2@@2@_N_J_KNVallocator@2@Uadl_serializer@nlohmann@@@nlohmann@@@std@@@2@$0A@@std@@@std@@IAE?AV?$_Tree_iterator@V?$_Tree_val@U?$_Tree_simple_types@U?$pair@$$CBV?$basic_string@DU?$char_traits@D@std@@V?$allocator@D@2@@std@@V?$basic_json@Vmap@std@@Vvector@2@V?$basic_string@DU?$char_traits@D@std@@V?$allocator@D@2@@2@_N_J_KNVallocator@2@Uadl_serializer@nlohmann@@@nlohmann@@@std@@@std@@@std@@@1@_NPAU?$_Tree_node@U?$pair@$$CBV?$basic_string@DU?$char_traits@D@std@@V?$allocator@D@2@@std@@V?$basic_json@Vmap@std@@Vvector@2@V?$basic_string@DU?$char_traits@D@std@@V?$allocator@D@2@@2@_N_J_KNVallocator@2@Uadl_serializer@nlohmann@@@nlohmann@@@std@@PAX@1@AAU?$pair@$$CBV?$basic_string@DU?$char_traits@D@std@@V?$allocator@D@2@@std@@V?$basic_json@Vmap@std@@Vvector@2@V?$basic_string@DU?$char_traits@D@std@@V?$allocator@D@2@@2@_N_J_KNVallocator@2@Uadl_serializer@nlohmann@@@nlohmann@@@1@1@Z 100d7ff0 f i KitParser.obj
 0002:00029330       ??$_Insert_hint@AAU?$pair@$$CBV?$basic_string@DU?$char_traits@D@std@@V?$allocator@D@2@@std@@V12@@std@@PAU?$_Tree_node@U?$pair@$$CBV?$basic_string@DU?$char_traits@D@std@@V?$allocator@D@2@@std@@V12@@std@@PAX@2@@?$_Tree@V?$_Tmap_traits@V?$basic_string@DU?$char_traits@D@std@@V?$allocator@D@2@@std@@V12@U?$less@V?$basic_string@DU?$char_traits@D@std@@V?$allocator@D@2@@std@@@2@V?$allocator@U?$pair@$$CBV?$basic_string@DU?$char_traits@D@std@@V?$allocator@D@2@@std@@V12@@std@@@2@$0A@@std@@@std@@IAE?AV?$_Tree_iterator@V?$_Tree_val@U?$_Tree_simple_types@U?$pair@$$CBV?$basic_string@DU?$char_traits@D@std@@V?$allocator@D@2@@std@@V12@@std@@@std@@@std@@@1@V?$_Tree_const_iterator@V?$_Tree_val@U?$_Tree_simple_types@U?$pair@$$CBV?$basic_string@DU?$char_traits@D@std@@V?$allocator@D@2@@std@@V12@@std@@@std@@@std@@@1@AAU?$pair@$$CBV?$basic_string@DU?$char_traits@D@std@@V?$allocator@D@2@@std@@V12@@1@PAU?$_Tree_node@U?$pair@$$CBV?$basic_string@DU?$char_traits@D@std@@V?$allocator@D@2@@std@@V12@@std@@PAX@1@@Z 100d8330 f i KitParser.obj
 0002:00029e80       ??$_Insert_hint@AAU?$pair@$$CBV?$basic_string@DU?$char_traits@D@std@@V?$allocator@D@2@@std@@V?$basic_json@Vmap@std@@Vvector@2@V?$basic_string@DU?$char_traits@D@std@@V?$allocator@D@2@@2@_N_J_KNVallocator@2@Uadl_serializer@nlohmann@@@nlohmann@@@std@@PAU?$_Tree_node@U?$pair@$$CBV?$basic_string@DU?$char_traits@D@std@@V?$allocator@D@2@@std@@V?$basic_json@Vmap@std@@Vvector@2@V?$basic_string@DU?$char_traits@D@std@@V?$allocator@D@2@@2@_N_J_KNVallocator@2@Uadl_serializer@nlohmann@@@nlohmann@@@std@@PAX@2@@?$_Tree@V?$_Tmap_traits@V?$basic_string@DU?$char_traits@D@std@@V?$allocator@D@2@@std@@V?$basic_json@Vmap@std@@Vvector@2@V?$basic_string@DU?$char_traits@D@std@@V?$allocator@D@2@@2@_N_J_KNVallocator@2@Uadl_serializer@nlohmann@@@nlohmann@@U?$less@V?$basic_string@DU?$char_traits@D@std@@V?$allocator@D@2@@std@@@2@V?$allocator@U?$pair@$$CBV?$basic_string@DU?$char_traits@D@std@@V?$allocator@D@2@@std@@V?$basic_json@Vmap@std@@Vvector@2@V?$basic_string@DU?$char_traits@D@std@@V?$allocator@D@2@@2@_N_J_KNVallocator@2@Uadl_serializer@nlohmann@@@nlohmann@@@std@@@2@$0A@@std@@@std@@IAE?AV?$_Tree_iterator@V?$_Tree_val@U?$_Tree_simple_types@U?$pair@$$CBV?$basic_string@DU?$char_traits@D@std@@V?$allocator@D@2@@std@@V?$basic_json@Vmap@std@@Vvector@2@V?$basic_string@DU?$char_traits@D@std@@V?$allocator@D@2@@2@_N_J_KNVallocator@2@Uadl_serializer@nlohmann@@@nlohmann@@@std@@@std@@@std@@@1@V?$_Tree_const_iterator@V?$_Tree_val@U?$_Tree_simple_types@U?$pair@$$CBV?$basic_string@DU?$char_traits@D@std@@V?$allocator@D@2@@std@@V?$basic_json@Vmap@std@@Vvector@2@V?$basic_string@DU?$char_traits@D@std@@V?$allocator@D@2@@2@_N_J_KNVallocator@2@Uadl_serializer@nlohmann@@@nlohmann@@@std@@@std@@@std@@@1@AAU?$pair@$$CBV?$basic_string@DU?$char_traits@D@std@@V?$allocator@D@2@@std@@V?$basic_json@Vmap@std@@Vvector@2@V?$basic_string@DU?$char_traits@D@std@@V?$allocator@D@2@@2@_N_J_KNVallocator@2@Uadl_serializer@nlohmann@@@nlohmann@@@1@PAU?$_Tree_node@U?$pair@$$CBV?$basic_string@DU?$char_traits@D@std@@V?$allocator@D@2@@std@@V?$basic_json@Vmap@std@@Vvector@2@V?$basic_string@DU?$char_traits@D@std@@V?$allocator@D@2@@2@_N_J_KNVallocator@2@Uadl_serializer@nlohmann@@@nlohmann@@@std@@PAX@1@@Z 100d8e80 f i KitParser.obj
 0002:0002a9d0       ??$_Insert_nohint@AAU?$pair@$$CBV?$basic_string@DU?$char_traits@D@std@@V?$allocator@D@2@@std@@V12@@std@@PAU?$_Tree_node@U?$pair@$$CBV?$basic_string@DU?$char_traits@D@std@@V?$allocator@D@2@@std@@V12@@std@@PAX@2@@?$_Tree@V?$_Tmap_traits@V?$basic_string@DU?$char_traits@D@std@@V?$allocator@D@2@@std@@V12@U?$less@V?$basic_string@DU?$char_traits@D@std@@V?$allocator@D@2@@std@@@2@V?$allocator@U?$pair@$$CBV?$basic_string@DU?$char_traits@D@std@@V?$allocator@D@2@@std@@V12@@std@@@2@$0A@@std@@@std@@IAE?AU?$pair@V?$_Tree_iterator@V?$_Tree_val@U?$_Tree_simple_types@U?$pair@$$CBV?$basic_string@DU?$char_traits@D@std@@V?$allocator@D@2@@std@@V12@@std@@@std@@@std@@@std@@_N@1@_NAAU?$pair@$$CBV?$basic_string@DU?$char_traits@D@std@@V?$allocator@D@2@@std@@V12@@1@PAU?$_Tree_node@U?$pair@$$CBV?$basic_string@DU?$char_traits@D@std@@V?$allocator@D@2@@std@@V12@@std@@PAX@1@@Z 100d99d0 f i KitParser.obj
 0002:0002ae40       ??$_Insert_nohint@AAU?$pair@$$CBV?$basic_string@DU?$char_traits@D@std@@V?$allocator@D@2@@std@@V?$basic_json@Vmap@std@@Vvector@2@V?$basic_string@DU?$char_traits@D@std@@V?$allocator@D@2@@2@_N_J_KNVallocator@2@Uadl_serializer@nlohmann@@@nlohmann@@@std@@PAU?$_Tree_node@U?$pair@$$CBV?$basic_string@DU?$char_traits@D@std@@V?$allocator@D@2@@std@@V?$basic_json@Vmap@std@@Vvector@2@V?$basic_string@DU?$char_traits@D@std@@V?$allocator@D@2@@2@_N_J_KNVallocator@2@Uadl_serializer@nlohmann@@@nlohmann@@@std@@PAX@2@@?$_Tree@V?$_Tmap_traits@V?$basic_string@DU?$char_traits@D@std@@V?$allocator@D@2@@std@@V?$basic_json@Vmap@std@@Vvector@2@V?$basic_string@DU?$char_traits@D@std@@V?$allocator@D@2@@2@_N_J_KNVallocator@2@Uadl_serializer@nlohmann@@@nlohmann@@U?$less@V?$basic_string@DU?$char_traits@D@std@@V?$allocator@D@2@@std@@@2@V?$allocator@U?$pair@$$CBV?$basic_string@DU?$char_traits@D@std@@V?$allocator@D@2@@std@@V?$basic_json@Vmap@std@@Vvector@2@V?$basic_string@DU?$char_traits@D@std@@V?$allocator@D@2@@2@_N_J_KNVallocator@2@Uadl_serializer@nlohmann@@@nlohmann@@@std@@@2@$0A@@std@@@std@@IAE?AU?$pair@V?$_Tree_iterator@V?$_Tree_val@U?$_Tree_simple_types@U?$pair@$$CBV?$basic_string@DU?$char_traits@D@std@@V?$allocator@D@2@@std@@V?$basic_json@Vmap@std@@Vvector@2@V?$basic_string@DU?$char_traits@D@std@@V?$allocator@D@2@@2@_N_J_KNVallocator@2@Uadl_serializer@nlohmann@@@nlohmann@@@std@@@std@@@std@@@std@@_N@1@_NAAU?$pair@$$CBV?$basic_string@DU?$char_traits@D@std@@V?$allocator@D@2@@std@@V?$basic_json@Vmap@std@@Vvector@2@V?$basic_string@DU?$char_traits@D@std@@V?$allocator@D@2@@2@_N_J_KNVallocator@2@Uadl_serializer@nlohmann@@@nlohmann@@@1@PAU?$_Tree_node@U?$pair@$$CBV?$basic_string@DU?$char_traits@D@std@@V?$allocator@D@2@@std@@V?$basic_json@Vmap@std@@Vvector@2@V?$basic_string@DU?$char_traits@D@std@@V?$allocator@D@2@@2@_N_J_KNVallocator@2@Uadl_serializer@nlohmann@@@nlohmann@@@std@@PAX@1@@Z 100d9e40 f i KitParser.obj
 0002:0002b2b0       ??$_Integral_to_string@DH@std@@YA?AV?$basic_string@DU?$char_traits@D@std@@V?$allocator@D@2@@0@H@Z 100da2b0 f i KitParser.obj
 0002:0002b390       ??$_Integral_to_string@DI@std@@YA?AV?$basic_string@DU?$char_traits@D@std@@V?$allocator@D@2@@0@I@Z 100da390 f i KitParser.obj
 0002:0002b470       ??$_Kfn@$$CBV?$basic_string@DU?$char_traits@D@std@@V?$allocator@D@2@@std@@V12@@?$_Tmap_traits@V?$basic_string@DU?$char_traits@D@std@@V?$allocator@D@2@@std@@V12@U?$less@V?$basic_string@DU?$char_traits@D@std@@V?$allocator@D@2@@std@@@2@V?$allocator@U?$pair@$$CBV?$basic_string@DU?$char_traits@D@std@@V?$allocator@D@2@@std@@V12@@std@@@2@$0A@@std@@SAABV?$basic_string@DU?$char_traits@D@std@@V?$allocator@D@2@@1@ABU?$pair@$$CBV?$basic_string@DU?$char_traits@D@std@@V?$allocator@D@2@@std@@V12@@1@@Z 100da470 f i KitParser.obj
 0002:0002b490       ??$_Kfn@$$CBV?$basic_string@DU?$char_traits@D@std@@V?$allocator@D@2@@std@@V?$basic_json@Vmap@std@@Vvector@2@V?$basic_string@DU?$char_traits@D@std@@V?$allocator@D@2@@2@_N_J_KNVallocator@2@Uadl_serializer@nlohmann@@@nlohmann@@@?$_Tmap_traits@V?$basic_string@DU?$char_traits@D@std@@V?$allocator@D@2@@std@@V?$basic_json@Vmap@std@@Vvector@2@V?$basic_string@DU?$char_traits@D@std@@V?$allocator@D@2@@2@_N_J_KNVallocator@2@Uadl_serializer@nlohmann@@@nlohmann@@U?$less@V?$basic_string@DU?$char_traits@D@std@@V?$allocator@D@2@@std@@@2@V?$allocator@U?$pair@$$CBV?$basic_string@DU?$char_traits@D@std@@V?$allocator@D@2@@std@@V?$basic_json@Vmap@std@@Vvector@2@V?$basic_string@DU?$char_traits@D@std@@V?$allocator@D@2@@2@_N_J_KNVallocator@2@Uadl_serializer@nlohmann@@@nlohmann@@@std@@@2@$0A@@std@@SAABV?$basic_string@DU?$char_traits@D@std@@V?$allocator@D@2@@1@ABU?$pair@$$CBV?$basic_string@DU?$char_traits@D@std@@V?$allocator@D@2@@std@@V?$basic_json@Vmap@std@@Vvector@2@V?$basic_string@DU?$char_traits@D@std@@V?$allocator@D@2@@2@_N_J_KNVallocator@2@Uadl_serializer@nlohmann@@@nlohmann@@@1@@Z 100da490 f i KitParser.obj
 0002:0002b4b0       ??$_Lbound@V?$basic_string@DU?$char_traits@D@std@@V?$allocator@D@2@@std@@@?$_Tree@V?$_Tmap_traits@V?$basic_string@DU?$char_traits@D@std@@V?$allocator@D@2@@std@@V12@U?$less@V?$basic_string@DU?$char_traits@D@std@@V?$allocator@D@2@@std@@@2@V?$allocator@U?$pair@$$CBV?$basic_string@DU?$char_traits@D@std@@V?$allocator@D@2@@std@@V12@@std@@@2@$0A@@std@@@std@@IBEPAU?$_Tree_node@U?$pair@$$CBV?$basic_string@DU?$char_traits@D@std@@V?$allocator@D@2@@std@@V12@@std@@PAX@1@ABV?$basic_string@DU?$char_traits@D@std@@V?$allocator@D@2@@1@@Z 100da4b0 f i KitParser.obj
 0002:0002b550       ??$_Move_construct_from@U?$output_adapter_protocol@D@detail@nlohmann@@@?$_Ptr_base@U?$output_adapter_protocol@D@detail@nlohmann@@@std@@IAEX$$QAV01@@Z 100da550 f i KitParser.obj
 0002:0002b5a0       ??$_Move_construct_from@V?$output_stream_adapter@D@detail@nlohmann@@@?$_Ptr_base@U?$output_adapter_protocol@D@detail@nlohmann@@@std@@IAEX$$QAV?$_Ptr_base@V?$output_stream_adapter@D@detail@nlohmann@@@1@@Z 100da5a0 f i KitParser.obj
 0002:0002b5f0       ??$_Move_construct_from@V?$output_stream_adapter@D@detail@nlohmann@@@?$_Ptr_base@V?$output_stream_adapter@D@detail@nlohmann@@@std@@IAEX$$QAV01@@Z 100da5f0 f i KitParser.obj
 0002:0002b640       ??$_Pocca@V?$allocator@D@std@@@std@@YAXAAV?$allocator@D@0@ABV10@@Z 100da640 f i KitParser.obj
 0002:0002b670       ??$_Pocca@V?$allocator@D@std@@@std@@YAXAAV?$allocator@D@0@ABV10@U?$integral_constant@_N$0A@@0@@Z 100da670 f i KitParser.obj
 0002:0002bfc0       ??$_Refancy@PAD$0A@@std@@YAPADPAD@Z 100dafc0 f i KitParser.obj
 0002:0002bfe0       ??$_Refancy@PBD$0A@@std@@YAPBDPBD@Z 100dafe0 f i KitParser.obj
 0002:0002c000       ??$_Reverse_unchecked1@PAD@std@@YAXQAD0U?$integral_constant@I$00@0@@Z 100db000 f i KitParser.obj
 0002:0002c030       ??$_Reverse_unchecked@PAD@std@@YAXQAD0@Z 100db030 f i KitParser.obj
 0002:0002c070       ??$_Set_ptr_rep_and_enable_shared@V?$output_stream_adapter@D@detail@nlohmann@@@?$shared_ptr@V?$output_stream_adapter@D@detail@nlohmann@@@std@@AAEXPAV?$output_stream_adapter@D@detail@nlohmann@@PAV_Ref_count_base@1@@Z 100db070 f i KitParser.obj
 0002:0002c0c0       ??$_Traits_compare@U?$char_traits@D@std@@@std@@YAHQBDI0I@Z 100db0c0 f i KitParser.obj
 0002:0002c140       ??$_Traits_equal@U?$char_traits@D@std@@@std@@YA_NQBDI0I@Z 100db140 f i KitParser.obj
 0002:0002c1a0       ??$_Try_emplace@V?$basic_string@DU?$char_traits@D@std@@V?$allocator@D@2@@std@@$$V@?$map@V?$basic_string@DU?$char_traits@D@std@@V?$allocator@D@2@@std@@V12@U?$less@V?$basic_string@DU?$char_traits@D@std@@V?$allocator@D@2@@std@@@2@V?$allocator@U?$pair@$$CBV?$basic_string@DU?$char_traits@D@std@@V?$allocator@D@2@@std@@V12@@std@@@2@@std@@QAE?AU?$pair@V?$_Tree_iterator@V?$_Tree_val@U?$_Tree_simple_types@U?$pair@$$CBV?$basic_string@DU?$char_traits@D@std@@V?$allocator@D@2@@std@@V12@@std@@@std@@@std@@@std@@_N@1@$$QAV?$basic_string@DU?$char_traits@D@std@@V?$allocator@D@2@@1@@Z 100db1a0 f i KitParser.obj
 0002:0002c2e0       ??$_UIntegral_to_buff@DI@std@@YAPADPADI@Z 100db2e0 f i KitParser.obj
 0002:0002c3d0       ??$_Unchecked@D$0EA@@std@@YAPADABV?$_Array_iterator@D$0EA@@0@@Z 100db3d0 f i KitParser.obj
 0002:0002c3f0       ??$_Unchecked@PAD@std@@YAPADPAD@Z 100db3f0 f i KitParser.obj
 0002:0002c410       ??$_Unfancy@V?$basic_json@Vmap@std@@Vvector@2@V?$basic_string@DU?$char_traits@D@std@@V?$allocator@D@2@@2@_N_J_KNVallocator@2@Uadl_serializer@nlohmann@@@nlohmann@@@std@@YAPAV?$basic_json@Vmap@std@@Vvector@2@V?$basic_string@DU?$char_traits@D@std@@V?$allocator@D@2@@2@_N_J_KNVallocator@2@Uadl_serializer@nlohmann@@@nlohmann@@PAV12@@Z 100db410 f i KitParser.obj
 0002:0002c430       ??$_Ungetc@D@std@@YA_NABDPAU_iobuf@@@Z 100db430 f i KitParser.obj
 0002:0002c480       ??$__vcrt_va_start_verify_argument_type@QBD@@YAXXZ 100db480 f i KitParser.obj
 0002:0002c4a0       ??$addressof@$$CBU?$pair@$$CBV?$basic_string@DU?$char_traits@D@std@@V?$allocator@D@2@@std@@V?$basic_json@Vmap@std@@Vvector@2@V?$basic_string@DU?$char_traits@D@std@@V?$allocator@D@2@@2@_N_J_KNVallocator@2@Uadl_serializer@nlohmann@@@nlohmann@@@std@@@std@@YAPBU?$pair@$$CBV?$basic_string@DU?$char_traits@D@std@@V?$allocator@D@2@@std@@V?$basic_json@Vmap@std@@Vvector@2@V?$basic_string@DU?$char_traits@D@std@@V?$allocator@D@2@@2@_N_J_KNVallocator@2@Uadl_serializer@nlohmann@@@nlohmann@@@0@ABU10@@Z 100db4a0 f i KitParser.obj
 0002:0002c4c0       ??$addressof@$$CBV?$_String_val@U?$_Simple_types@D@std@@@std@@@std@@YAPBV?$_String_val@U?$_Simple_types@D@std@@@0@ABV10@@Z 100db4c0 f i KitParser.obj
 0002:0002c4e0       ??$addressof@$$CBV?$_Tree_val@U?$_Tree_simple_types@U?$pair@$$CBV?$basic_string@DU?$char_traits@D@std@@V?$allocator@D@2@@std@@V12@@std@@@std@@@std@@@std@@YAPBV?$_Tree_val@U?$_Tree_simple_types@U?$pair@$$CBV?$basic_string@DU?$char_traits@D@std@@V?$allocator@D@2@@std@@V12@@std@@@std@@@0@ABV10@@Z 100db4e0 f i KitParser.obj
 0002:0002c500       ??$addressof@$$CBV?$_Tree_val@U?$_Tree_simple_types@U?$pair@$$CBV?$basic_string@DU?$char_traits@D@std@@V?$allocator@D@2@@std@@V?$basic_json@Vmap@std@@Vvector@2@V?$basic_string@DU?$char_traits@D@std@@V?$allocator@D@2@@2@_N_J_KNVallocator@2@Uadl_serializer@nlohmann@@@nlohmann@@@std@@@std@@@std@@@std@@YAPBV?$_Tree_val@U?$_Tree_simple_types@U?$pair@$$CBV?$basic_string@DU?$char_traits@D@std@@V?$allocator@D@2@@std@@V?$basic_json@Vmap@std@@Vvector@2@V?$basic_string@DU?$char_traits@D@std@@V?$allocator@D@2@@2@_N_J_KNVallocator@2@Uadl_serializer@nlohmann@@@nlohmann@@@std@@@std@@@0@ABV10@@Z 100db500 f i KitParser.obj
 0002:0002c520       ??$addressof@$$CBV?$_Vector_val@U?$_Simple_types@V?$basic_json@Vmap@std@@Vvector@2@V?$basic_string@DU?$char_traits@D@std@@V?$allocator@D@2@@2@_N_J_KNVallocator@2@Uadl_serializer@nlohmann@@@nlohmann@@@std@@@std@@@std@@YAPBV?$_Vector_val@U?$_Simple_types@V?$basic_json@Vmap@std@@Vvector@2@V?$basic_string@DU?$char_traits@D@std@@V?$allocator@D@2@@2@_N_J_KNVallocator@2@Uadl_serializer@nlohmann@@@nlohmann@@@std@@@0@ABV10@@Z 100db520 f i KitParser.obj
 0002:0002c540       ??$addressof@$$CBV?$basic_string@DU?$char_traits@D@std@@V?$allocator@D@2@@std@@@std@@YAPBV?$basic_string@DU?$char_traits@D@std@@V?$allocator@D@2@@0@ABV10@@Z 100db540 f i KitParser.obj
 0002:0002c560       ??$addressof@D@std@@YAPADAAD@Z 100db560 f i KitParser.obj
 0002:0002c580       ??$addressof@PAU?$_Tree_node@U?$pair@$$CBV?$basic_string@DU?$char_traits@D@std@@V?$allocator@D@2@@std@@V12@@std@@PAX@std@@@std@@YAPAPAU?$_Tree_node@U?$pair@$$CBV?$basic_string@DU?$char_traits@D@std@@V?$allocator@D@2@@std@@V12@@std@@PAX@0@AAPAU10@@Z 100db580 f i KitParser.obj
 0002:0002c5a0       ??$addressof@PAU?$_Tree_node@U?$pair@$$CBV?$basic_string@DU?$char_traits@D@std@@V?$allocator@D@2@@std@@V?$basic_json@Vmap@std@@Vvector@2@V?$basic_string@DU?$char_traits@D@std@@V?$allocator@D@2@@2@_N_J_KNVallocator@2@Uadl_serializer@nlohmann@@@nlohmann@@@std@@PAX@std@@@std@@YAPAPAU?$_Tree_node@U?$pair@$$CBV?$basic_string@DU?$char_traits@D@std@@V?$allocator@D@2@@std@@V?$basic_json@Vmap@std@@Vvector@2@V?$basic_string@DU?$char_traits@D@std@@V?$allocator@D@2@@2@_N_J_KNVallocator@2@Uadl_serializer@nlohmann@@@nlohmann@@@std@@PAX@0@AAPAU10@@Z 100db5a0 f i KitParser.obj
 0002:0002c5c0       ??$addressof@PA_W@std@@YAPAPA_WAAPA_W@Z 100db5c0 f i KitParser.obj
 0002:0002c5e0       ??$addressof@U?$pair@$$CBV?$basic_string@DU?$char_traits@D@std@@V?$allocator@D@2@@std@@V12@@std@@@std@@YAPAU?$pair@$$CBV?$basic_string@DU?$char_traits@D@std@@V?$allocator@D@2@@std@@V12@@0@AAU10@@Z 100db5e0 f i KitParser.obj
 0002:0002c600       ??$addressof@U?$pair@$$CBV?$basic_string@DU?$char_traits@D@std@@V?$allocator@D@2@@std@@V?$basic_json@Vmap@std@@Vvector@2@V?$basic_string@DU?$char_traits@D@std@@V?$allocator@D@2@@2@_N_J_KNVallocator@2@Uadl_serializer@nlohmann@@@nlohmann@@@std@@@std@@YAPAU?$pair@$$CBV?$basic_string@DU?$char_traits@D@std@@V?$allocator@D@2@@std@@V?$basic_json@Vmap@std@@Vvector@2@V?$basic_string@DU?$char_traits@D@std@@V?$allocator@D@2@@2@_N_J_KNVallocator@2@Uadl_serializer@nlohmann@@@nlohmann@@@0@AAU10@@Z 100db600 f i KitParser.obj
 0002:0002c620       ??$addressof@V?$_String_val@U?$_Simple_types@D@std@@@std@@@std@@YAPAV?$_String_val@U?$_Simple_types@D@std@@@0@AAV10@@Z 100db620 f i KitParser.obj
 0002:0002c640       ??$addressof@V?$_Tree_val@U?$_Tree_simple_types@U?$pair@$$CBV?$basic_string@DU?$char_traits@D@std@@V?$allocator@D@2@@std@@V12@@std@@@std@@@std@@@std@@YAPAV?$_Tree_val@U?$_Tree_simple_types@U?$pair@$$CBV?$basic_string@DU?$char_traits@D@std@@V?$allocator@D@2@@std@@V12@@std@@@std@@@0@AAV10@@Z 100db640 f i KitParser.obj
 0002:0002c660       ??$addressof@V?$_Tree_val@U?$_Tree_simple_types@U?$pair@$$CBV?$basic_string@DU?$char_traits@D@std@@V?$allocator@D@2@@std@@V?$basic_json@Vmap@std@@Vvector@2@V?$basic_string@DU?$char_traits@D@std@@V?$allocator@D@2@@2@_N_J_KNVallocator@2@Uadl_serializer@nlohmann@@@nlohmann@@@std@@@std@@@std@@@std@@YAPAV?$_Tree_val@U?$_Tree_simple_types@U?$pair@$$CBV?$basic_string@DU?$char_traits@D@std@@V?$allocator@D@2@@std@@V?$basic_json@Vmap@std@@Vvector@2@V?$basic_string@DU?$char_traits@D@std@@V?$allocator@D@2@@2@_N_J_KNVallocator@2@Uadl_serializer@nlohmann@@@nlohmann@@@std@@@std@@@0@AAV10@@Z 100db660 f i KitParser.obj
 0002:0002c680       ??$advance@V?$_Tree_const_iterator@V?$_Tree_val@U?$_Tree_simple_types@U?$pair@$$CBV?$basic_string@DU?$char_traits@D@std@@V?$allocator@D@2@@std@@V?$basic_json@Vmap@std@@Vvector@2@V?$basic_string@DU?$char_traits@D@std@@V?$allocator@D@2@@2@_N_J_KNVallocator@2@Uadl_serializer@nlohmann@@@nlohmann@@@std@@@std@@@std@@@std@@H@std@@YAXAAV?$_Tree_const_iterator@V?$_Tree_val@U?$_Tree_simple_types@U?$pair@$$CBV?$basic_string@DU?$char_traits@D@std@@V?$allocator@D@2@@std@@V?$basic_json@Vmap@std@@Vvector@2@V?$basic_string@DU?$char_traits@D@std@@V?$allocator@D@2@@2@_N_J_KNVallocator@2@Uadl_serializer@nlohmann@@@nlohmann@@@std@@@std@@@std@@@0@H@Z 100db680 f i KitParser.obj
 0002:0002c6b0       ??$begin@V?$map@V?$basic_string@DU?$char_traits@D@std@@V?$allocator@D@2@@std@@V12@U?$less@V?$basic_string@DU?$char_traits@D@std@@V?$allocator@D@2@@std@@@2@V?$allocator@U?$pair@$$CBV?$basic_string@DU?$char_traits@D@std@@V?$allocator@D@2@@std@@V12@@std@@@2@@std@@@std@@YA?AV?$_Tree_const_iterator@V?$_Tree_val@U?$_Tree_simple_types@U?$pair@$$CBV?$basic_string@DU?$char_traits@D@std@@V?$allocator@D@2@@std@@V12@@std@@@std@@@std@@@0@ABV?$map@V?$basic_string@DU?$char_traits@D@std@@V?$allocator@D@2@@std@@V12@U?$less@V?$basic_string@DU?$char_traits@D@std@@V?$allocator@D@2@@std@@@2@V?$allocator@U?$pair@$$CBV?$basic_string@DU?$char_traits@D@std@@V?$allocator@D@2@@std@@V12@@std@@@2@@0@@Z 100db6b0 f i KitParser.obj
 0002:0002c6e0       ??$call@V?$basic_json@Vmap@std@@Vvector@2@V?$basic_string@DU?$char_traits@D@std@@V?$allocator@D@2@@2@_N_J_KNVallocator@2@Uadl_serializer@nlohmann@@@nlohmann@@AAV?$map@V?$basic_string@DU?$char_traits@D@std@@V?$allocator@D@2@@std@@V12@U?$less@V?$basic_string@DU?$char_traits@D@std@@V?$allocator@D@2@@std@@@2@V?$allocator@U?$pair@$$CBV?$basic_string@DU?$char_traits@D@std@@V?$allocator@D@2@@std@@V12@@std@@@2@@std@@@to_json_fn@detail@nlohmann@@ABEXAAV?$basic_json@Vmap@std@@Vvector@2@V?$basic_string@DU?$char_traits@D@std@@V?$allocator@D@2@@2@_N_J_KNVallocator@2@Uadl_serializer@nlohmann@@@2@AAV?$map@V?$basic_string@DU?$char_traits@D@std@@V?$allocator@D@2@@std@@V12@U?$less@V?$basic_string@DU?$char_traits@D@std@@V?$allocator@D@2@@std@@@2@V?$allocator@U?$pair@$$CBV?$basic_string@DU?$char_traits@D@std@@V?$allocator@D@2@@std@@V12@@std@@@2@@std@@U?$priority_tag@$00@12@@Z 100db6e0 f i KitParser.obj
 0002:0002c720       ??$call@V?$basic_json@Vmap@std@@Vvector@2@V?$basic_string@DU?$char_traits@D@std@@V?$allocator@D@2@@2@_N_J_KNVallocator@2@Uadl_serializer@nlohmann@@@nlohmann@@ABV?$basic_string@DU?$char_traits@D@std@@V?$allocator@D@2@@std@@@to_json_fn@detail@nlohmann@@ABEXAAV?$basic_json@Vmap@std@@Vvector@2@V?$basic_string@DU?$char_traits@D@std@@V?$allocator@D@2@@2@_N_J_KNVallocator@2@Uadl_serializer@nlohmann@@@2@ABV?$basic_string@DU?$char_traits@D@std@@V?$allocator@D@2@@std@@U?$priority_tag@$00@12@@Z 100db720 f i KitParser.obj
 0002:0002c760       ??$compute_boundaries@N@dtoa_impl@detail@nlohmann@@YA?AUboundaries@012@N@Z 100db760 f i KitParser.obj
 0002:0002cb70       ??$construct@PAU?$_Tree_node@U?$pair@$$CBV?$basic_string@DU?$char_traits@D@std@@V?$allocator@D@2@@std@@V12@@std@@PAX@std@@AAPAU12@@?$_Default_allocator_traits@V?$allocator@U?$_Tree_node@U?$pair@$$CBV?$basic_string@DU?$char_traits@D@std@@V?$allocator@D@2@@std@@V12@@std@@PAX@std@@@std@@@std@@SAXAAV?$allocator@U?$_Tree_node@U?$pair@$$CBV?$basic_string@DU?$char_traits@D@std@@V?$allocator@D@2@@std@@V12@@std@@PAX@std@@@1@QAPAU?$_Tree_node@U?$pair@$$CBV?$basic_string@DU?$char_traits@D@std@@V?$allocator@D@2@@std@@V12@@std@@PAX@1@AAPAU31@@Z 100dbb70 f i KitParser.obj
 0002:0002cbc0       ??$construct@PAU?$_Tree_node@U?$pair@$$CBV?$basic_string@DU?$char_traits@D@std@@V?$allocator@D@2@@std@@V?$basic_json@Vmap@std@@Vvector@2@V?$basic_string@DU?$char_traits@D@std@@V?$allocator@D@2@@2@_N_J_KNVallocator@2@Uadl_serializer@nlohmann@@@nlohmann@@@std@@PAX@std@@AAPAU12@@?$_Default_allocator_traits@V?$allocator@U?$_Tree_node@U?$pair@$$CBV?$basic_string@DU?$char_traits@D@std@@V?$allocator@D@2@@std@@V?$basic_json@Vmap@std@@Vvector@2@V?$basic_string@DU?$char_traits@D@std@@V?$allocator@D@2@@2@_N_J_KNVallocator@2@Uadl_serializer@nlohmann@@@nlohmann@@@std@@PAX@std@@@std@@@std@@SAXAAV?$allocator@U?$_Tree_node@U?$pair@$$CBV?$basic_string@DU?$char_traits@D@std@@V?$allocator@D@2@@std@@V?$basic_json@Vmap@std@@Vvector@2@V?$basic_string@DU?$char_traits@D@std@@V?$allocator@D@2@@2@_N_J_KNVallocator@2@Uadl_serializer@nlohmann@@@nlohmann@@@std@@PAX@std@@@1@QAPAU?$_Tree_node@U?$pair@$$CBV?$basic_string@DU?$char_traits@D@std@@V?$allocator@D@2@@std@@V?$basic_json@Vmap@std@@Vvector@2@V?$basic_string@DU?$char_traits@D@std@@V?$allocator@D@2@@2@_N_J_KNVallocator@2@Uadl_serializer@nlohmann@@@nlohmann@@@std@@PAX@1@AAPAU31@@Z 100dbbc0 f i KitParser.obj
 0002:0002cc10       ??$construct@U?$pair@$$CBV?$basic_string@DU?$char_traits@D@std@@V?$allocator@D@2@@std@@V12@@std@@ABUpiecewise_construct_t@2@V?$tuple@$$QAV?$basic_string@DU?$char_traits@D@std@@V?$allocator@D@2@@std@@@2@V?$tuple@$$V@2@@?$_Default_allocator_traits@V?$allocator@U?$_Tree_node@U?$pair@$$CBV?$basic_string@DU?$char_traits@D@std@@V?$allocator@D@2@@std@@V12@@std@@PAX@std@@@std@@@std@@SAXAAV?$allocator@U?$_Tree_node@U?$pair@$$CBV?$basic_string@DU?$char_traits@D@std@@V?$allocator@D@2@@std@@V12@@std@@PAX@std@@@1@QAU?$pair@$$CBV?$basic_string@DU?$char_traits@D@std@@V?$allocator@D@2@@std@@V12@@1@ABUpiecewise_construct_t@1@$$QAV?$tuple@$$QAV?$basic_string@DU?$char_traits@D@std@@V?$allocator@D@2@@std@@@1@$$QAV?$tuple@$$V@1@@Z 100dbc10 f i KitParser.obj
 0002:0002cce0       ??$construct@U?$pair@$$CBV?$basic_string@DU?$char_traits@D@std@@V?$allocator@D@2@@std@@V?$basic_json@Vmap@std@@Vvector@2@V?$basic_string@DU?$char_traits@D@std@@V?$allocator@D@2@@2@_N_J_KNVallocator@2@Uadl_serializer@nlohmann@@@nlohmann@@@std@@ABU?$pair@$$CBV?$basic_string@DU?$char_traits@D@std@@V?$allocator@D@2@@std@@V12@@2@@?$_Default_allocator_traits@V?$allocator@U?$_Tree_node@U?$pair@$$CBV?$basic_string@DU?$char_traits@D@std@@V?$allocator@D@2@@std@@V?$basic_json@Vmap@std@@Vvector@2@V?$basic_string@DU?$char_traits@D@std@@V?$allocator@D@2@@2@_N_J_KNVallocator@2@Uadl_serializer@nlohmann@@@nlohmann@@@std@@PAX@std@@@std@@@std@@SAXAAV?$allocator@U?$_Tree_node@U?$pair@$$CBV?$basic_string@DU?$char_traits@D@std@@V?$allocator@D@2@@std@@V?$basic_json@Vmap@std@@Vvector@2@V?$basic_string@DU?$char_traits@D@std@@V?$allocator@D@2@@2@_N_J_KNVallocator@2@Uadl_serializer@nlohmann@@@nlohmann@@@std@@PAX@std@@@1@QAU?$pair@$$CBV?$basic_string@DU?$char_traits@D@std@@V?$allocator@D@2@@std@@V?$basic_json@Vmap@std@@Vvector@2@V?$basic_string@DU?$char_traits@D@std@@V?$allocator@D@2@@2@_N_J_KNVallocator@2@Uadl_serializer@nlohmann@@@nlohmann@@@1@ABU?$pair@$$CBV?$basic_string@DU?$char_traits@D@std@@V?$allocator@D@2@@std@@V12@@1@@Z 100dbce0 f i KitParser.obj
 0002:0002cd70       ??$construct@V?$basic_json@Vmap@std@@Vvector@2@V?$basic_string@DU?$char_traits@D@std@@V?$allocator@D@2@@2@_N_J_KNVallocator@2@Uadl_serializer@nlohmann@@@nlohmann@@@?$external_constructor@$02@detail@nlohmann@@SAXAAV?$basic_json@Vmap@std@@Vvector@2@V?$basic_string@DU?$char_traits@D@std@@V?$allocator@D@2@@2@_N_J_KNVallocator@2@Uadl_serializer@nlohmann@@@2@ABV?$basic_string@DU?$char_traits@D@std@@V?$allocator@D@2@@std@@@Z 100dbd70 f i KitParser.obj
 0002:0002cdc0       ??$construct@V?$basic_json@Vmap@std@@Vvector@2@V?$basic_string@DU?$char_traits@D@std@@V?$allocator@D@2@@2@_N_J_KNVallocator@2@Uadl_serializer@nlohmann@@@nlohmann@@V?$map@V?$basic_string@DU?$char_traits@D@std@@V?$allocator@D@2@@std@@V12@U?$less@V?$basic_string@DU?$char_traits@D@std@@V?$allocator@D@2@@std@@@2@V?$allocator@U?$pair@$$CBV?$basic_string@DU?$char_traits@D@std@@V?$allocator@D@2@@std@@V12@@std@@@2@@std@@$0A@@?$external_constructor@$00@detail@nlohmann@@SAXAAV?$basic_json@Vmap@std@@Vvector@2@V?$basic_string@DU?$char_traits@D@std@@V?$allocator@D@2@@2@_N_J_KNVallocator@2@Uadl_serializer@nlohmann@@@2@ABV?$map@V?$basic_string@DU?$char_traits@D@std@@V?$allocator@D@2@@std@@V12@U?$less@V?$basic_string@DU?$char_traits@D@std@@V?$allocator@D@2@@std@@@2@V?$allocator@U?$pair@$$CBV?$basic_string@DU?$char_traits@D@std@@V?$allocator@D@2@@std@@V12@@std@@@2@@std@@@Z 100dbdc0 f i KitParser.obj
 0002:0002ce30       ??$construct@V?$basic_string@DU?$char_traits@D@std@@V?$allocator@D@2@@std@@ABV12@@?$_Default_allocator_traits@V?$allocator@V?$basic_string@DU?$char_traits@D@std@@V?$allocator@D@2@@std@@@std@@@std@@SAXAAV?$allocator@V?$basic_string@DU?$char_traits@D@std@@V?$allocator@D@2@@std@@@1@QAV?$basic_string@DU?$char_traits@D@std@@V?$allocator@D@2@@1@ABV31@@Z 100dbe30 f i KitParser.obj
 0002:0002cec0       ??$construct@V?$map@V?$basic_string@DU?$char_traits@D@std@@V?$allocator@D@2@@std@@V?$basic_json@Vmap@std@@Vvector@2@V?$basic_string@DU?$char_traits@D@std@@V?$allocator@D@2@@2@_N_J_KNVallocator@2@Uadl_serializer@nlohmann@@@nlohmann@@U?$less@V?$basic_string@DU?$char_traits@D@std@@V?$allocator@D@2@@std@@@2@V?$allocator@U?$pair@$$CBV?$basic_string@DU?$char_traits@D@std@@V?$allocator@D@2@@std@@V?$basic_json@Vmap@std@@Vvector@2@V?$basic_string@DU?$char_traits@D@std@@V?$allocator@D@2@@2@_N_J_KNVallocator@2@Uadl_serializer@nlohmann@@@nlohmann@@@std@@@2@@std@@V?$_Tree_const_iterator@V?$_Tree_val@U?$_Tree_simple_types@U?$pair@$$CBV?$basic_string@DU?$char_traits@D@std@@V?$allocator@D@2@@std@@V12@@std@@@std@@@std@@@2@V32@@?$_Default_allocator_traits@V?$allocator@V?$map@V?$basic_string@DU?$char_traits@D@std@@V?$allocator@D@2@@std@@V?$basic_json@Vmap@std@@Vvector@2@V?$basic_string@DU?$char_traits@D@std@@V?$allocator@D@2@@2@_N_J_KNVallocator@2@Uadl_serializer@nlohmann@@@nlohmann@@U?$less@V?$basic_string@DU?$char_traits@D@std@@V?$allocator@D@2@@std@@@2@V?$allocator@U?$pair@$$CBV?$basic_string@DU?$char_traits@D@std@@V?$allocator@D@2@@std@@V?$basic_json@Vmap@std@@Vvector@2@V?$basic_string@DU?$char_traits@D@std@@V?$allocator@D@2@@2@_N_J_KNVallocator@2@Uadl_serializer@nlohmann@@@nlohmann@@@std@@@2@@std@@@std@@@std@@SAXAAV?$allocator@V?$map@V?$basic_string@DU?$char_traits@D@std@@V?$allocator@D@2@@std@@V?$basic_json@Vmap@std@@Vvector@2@V?$basic_string@DU?$char_traits@D@std@@V?$allocator@D@2@@2@_N_J_KNVallocator@2@Uadl_serializer@nlohmann@@@nlohmann@@U?$less@V?$basic_string@DU?$char_traits@D@std@@V?$allocator@D@2@@std@@@2@V?$allocator@U?$pair@$$CBV?$basic_string@DU?$char_traits@D@std@@V?$allocator@D@2@@std@@V?$basic_json@Vmap@std@@Vvector@2@V?$basic_string@DU?$char_traits@D@std@@V?$allocator@D@2@@2@_N_J_KNVallocator@2@Uadl_serializer@nlohmann@@@nlohmann@@@std@@@2@@std@@@1@QAV?$map@V?$basic_string@DU?$char_traits@D@std@@V?$allocator@D@2@@std@@V?$basic_json@Vmap@std@@Vvector@2@V?$basic_string@DU?$char_traits@D@std@@V?$allocator@D@2@@2@_N_J_KNVallocator@2@Uadl_serializer@nlohmann@@@nlohmann@@U?$less@V?$basic_string@DU?$char_traits@D@std@@V?$allocator@D@2@@std@@@2@V?$allocator@U?$pair@$$CBV?$basic_string@DU?$char_traits@D@std@@V?$allocator@D@2@@std@@V?$basic_json@Vmap@std@@Vvector@2@V?$basic_string@DU?$char_traits@D@std@@V?$allocator@D@2@@2@_N_J_KNVallocator@2@Uadl_serializer@nlohmann@@@nlohmann@@@std@@@2@@1@$$QAV?$_Tree_const_iterator@V?$_Tree_val@U?$_Tree_simple_types@U?$pair@$$CBV?$basic_string@DU?$char_traits@D@std@@V?$allocator@D@2@@std@@V12@@std@@@std@@@std@@@1@2@Z 100dbec0 f i KitParser.obj
 0002:0002cf70       ??$create@V?$basic_string@DU?$char_traits@D@std@@V?$allocator@D@2@@std@@ABV12@@?$basic_json@Vmap@std@@Vvector@2@V?$basic_string@DU?$char_traits@D@std@@V?$allocator@D@2@@2@_N_J_KNVallocator@2@Uadl_serializer@nlohmann@@@nlohmann@@CAPAV?$basic_string@DU?$char_traits@D@std@@V?$allocator@D@2@@std@@ABV23@@Z 100dbf70 f i KitParser.obj
 0002:0002d0a0       ??$create@V?$map@V?$basic_string@DU?$char_traits@D@std@@V?$allocator@D@2@@std@@V?$basic_json@Vmap@std@@Vvector@2@V?$basic_string@DU?$char_traits@D@std@@V?$allocator@D@2@@2@_N_J_KNVallocator@2@Uadl_serializer@nlohmann@@@nlohmann@@U?$less@V?$basic_string@DU?$char_traits@D@std@@V?$allocator@D@2@@std@@@2@V?$allocator@U?$pair@$$CBV?$basic_string@DU?$char_traits@D@std@@V?$allocator@D@2@@std@@V?$basic_json@Vmap@std@@Vvector@2@V?$basic_string@DU?$char_traits@D@std@@V?$allocator@D@2@@2@_N_J_KNVallocator@2@Uadl_serializer@nlohmann@@@nlohmann@@@std@@@2@@std@@V?$_Tree_const_iterator@V?$_Tree_val@U?$_Tree_simple_types@U?$pair@$$CBV?$basic_string@DU?$char_traits@D@std@@V?$allocator@D@2@@std@@V12@@std@@@std@@@std@@@2@V32@@?$basic_json@Vmap@std@@Vvector@2@V?$basic_string@DU?$char_traits@D@std@@V?$allocator@D@2@@2@_N_J_KNVallocator@2@Uadl_serializer@nlohmann@@@nlohmann@@CAPAV?$map@V?$basic_string@DU?$char_traits@D@std@@V?$allocator@D@2@@std@@V?$basic_json@Vmap@std@@Vvector@2@V?$basic_string@DU?$char_traits@D@std@@V?$allocator@D@2@@2@_N_J_KNVallocator@2@Uadl_serializer@nlohmann@@@nlohmann@@U?$less@V?$basic_string@DU?$char_traits@D@std@@V?$allocator@D@2@@std@@@2@V?$allocator@U?$pair@$$CBV?$basic_string@DU?$char_traits@D@std@@V?$allocator@D@2@@std@@V?$basic_json@Vmap@std@@Vvector@2@V?$basic_string@DU?$char_traits@D@std@@V?$allocator@D@2@@2@_N_J_KNVallocator@2@Uadl_serializer@nlohmann@@@nlohmann@@@std@@@2@@std@@$$QAV?$_Tree_const_iterator@V?$_Tree_val@U?$_Tree_simple_types@U?$pair@$$CBV?$basic_string@DU?$char_traits@D@std@@V?$allocator@D@2@@std@@V12@@std@@@std@@@std@@@3@0@Z 100dc0a0 f i KitParser.obj
 0002:0002d1e0       ??$destroy@PAU?$_Tree_node@U?$pair@$$CBV?$basic_string@DU?$char_traits@D@std@@V?$allocator@D@2@@std@@V12@@std@@PAX@std@@@?$_Default_allocator_traits@V?$allocator@U?$_Tree_node@U?$pair@$$CBV?$basic_string@DU?$char_traits@D@std@@V?$allocator@D@2@@std@@V12@@std@@PAX@std@@@std@@@std@@SAXAAV?$allocator@U?$_Tree_node@U?$pair@$$CBV?$basic_string@DU?$char_traits@D@std@@V?$allocator@D@2@@std@@V12@@std@@PAX@std@@@1@QAPAU?$_Tree_node@U?$pair@$$CBV?$basic_string@DU?$char_traits@D@std@@V?$allocator@D@2@@std@@V12@@std@@PAX@1@@Z 100dc1e0 f i KitParser.obj
 0002:0002d200       ??$destroy@PAU?$_Tree_node@U?$pair@$$CBV?$basic_string@DU?$char_traits@D@std@@V?$allocator@D@2@@std@@V?$basic_json@Vmap@std@@Vvector@2@V?$basic_string@DU?$char_traits@D@std@@V?$allocator@D@2@@2@_N_J_KNVallocator@2@Uadl_serializer@nlohmann@@@nlohmann@@@std@@PAX@std@@@?$_Default_allocator_traits@V?$allocator@U?$_Tree_node@U?$pair@$$CBV?$basic_string@DU?$char_traits@D@std@@V?$allocator@D@2@@std@@V?$basic_json@Vmap@std@@Vvector@2@V?$basic_string@DU?$char_traits@D@std@@V?$allocator@D@2@@2@_N_J_KNVallocator@2@Uadl_serializer@nlohmann@@@nlohmann@@@std@@PAX@std@@@std@@@std@@SAXAAV?$allocator@U?$_Tree_node@U?$pair@$$CBV?$basic_string@DU?$char_traits@D@std@@V?$allocator@D@2@@std@@V?$basic_json@Vmap@std@@Vvector@2@V?$basic_string@DU?$char_traits@D@std@@V?$allocator@D@2@@2@_N_J_KNVallocator@2@Uadl_serializer@nlohmann@@@nlohmann@@@std@@PAX@std@@@1@QAPAU?$_Tree_node@U?$pair@$$CBV?$basic_string@DU?$char_traits@D@std@@V?$allocator@D@2@@std@@V?$basic_json@Vmap@std@@Vvector@2@V?$basic_string@DU?$char_traits@D@std@@V?$allocator@D@2@@2@_N_J_KNVallocator@2@Uadl_serializer@nlohmann@@@nlohmann@@@std@@PAX@1@@Z 100dc200 f i KitParser.obj
 0002:0002d220       ??$destroy@PA_W@?$_Default_allocator_traits@V?$allocator@_W@std@@@std@@SAXAAV?$allocator@_W@1@QAPA_W@Z 100dc220 f i KitParser.obj
 0002:0002d240       ??$destroy@U?$pair@$$CBV?$basic_string@DU?$char_traits@D@std@@V?$allocator@D@2@@std@@V12@@std@@@?$_Default_allocator_traits@V?$allocator@U?$_Tree_node@U?$pair@$$CBV?$basic_string@DU?$char_traits@D@std@@V?$allocator@D@2@@std@@V12@@std@@PAX@std@@@std@@@std@@SAXAAV?$allocator@U?$_Tree_node@U?$pair@$$CBV?$basic_string@DU?$char_traits@D@std@@V?$allocator@D@2@@std@@V12@@std@@PAX@std@@@1@QAU?$pair@$$CBV?$basic_string@DU?$char_traits@D@std@@V?$allocator@D@2@@std@@V12@@1@@Z 100dc240 f i KitParser.obj
 0002:0002d260       ??$destroy@U?$pair@$$CBV?$basic_string@DU?$char_traits@D@std@@V?$allocator@D@2@@std@@V?$basic_json@Vmap@std@@Vvector@2@V?$basic_string@DU?$char_traits@D@std@@V?$allocator@D@2@@2@_N_J_KNVallocator@2@Uadl_serializer@nlohmann@@@nlohmann@@@std@@@?$_Default_allocator_traits@V?$allocator@U?$_Tree_node@U?$pair@$$CBV?$basic_string@DU?$char_traits@D@std@@V?$allocator@D@2@@std@@V?$basic_json@Vmap@std@@Vvector@2@V?$basic_string@DU?$char_traits@D@std@@V?$allocator@D@2@@2@_N_J_KNVallocator@2@Uadl_serializer@nlohmann@@@nlohmann@@@std@@PAX@std@@@std@@@std@@SAXAAV?$allocator@U?$_Tree_node@U?$pair@$$CBV?$basic_string@DU?$char_traits@D@std@@V?$allocator@D@2@@std@@V?$basic_json@Vmap@std@@Vvector@2@V?$basic_string@DU?$char_traits@D@std@@V?$allocator@D@2@@2@_N_J_KNVallocator@2@Uadl_serializer@nlohmann@@@nlohmann@@@std@@PAX@std@@@1@QAU?$pair@$$CBV?$basic_string@DU?$char_traits@D@std@@V?$allocator@D@2@@std@@V?$basic_json@Vmap@std@@Vvector@2@V?$basic_string@DU?$char_traits@D@std@@V?$allocator@D@2@@2@_N_J_KNVallocator@2@Uadl_serializer@nlohmann@@@nlohmann@@@1@@Z 100dc260 f i KitParser.obj
 0002:0002d280       ??$destroy@V?$basic_json@Vmap@std@@Vvector@2@V?$basic_string@DU?$char_traits@D@std@@V?$allocator@D@2@@2@_N_J_KNVallocator@2@Uadl_serializer@nlohmann@@@nlohmann@@@?$_Default_allocator_traits@V?$allocator@V?$basic_json@Vmap@std@@Vvector@2@V?$basic_string@DU?$char_traits@D@std@@V?$allocator@D@2@@2@_N_J_KNVallocator@2@Uadl_serializer@nlohmann@@@nlohmann@@@std@@@std@@SAXAAV?$allocator@V?$basic_json@Vmap@std@@Vvector@2@V?$basic_string@DU?$char_traits@D@std@@V?$allocator@D@2@@2@_N_J_KNVallocator@2@Uadl_serializer@nlohmann@@@nlohmann@@@1@QAV?$basic_json@Vmap@std@@Vvector@2@V?$basic_string@DU?$char_traits@D@std@@V?$allocator@D@2@@2@_N_J_KNVallocator@2@Uadl_serializer@nlohmann@@@nlohmann@@@Z 100dc280 f i KitParser.obj
 0002:0002d2a0       ??$destroy@V?$basic_string@DU?$char_traits@D@std@@V?$allocator@D@2@@std@@@?$_Default_allocator_traits@V?$allocator@V?$basic_string@DU?$char_traits@D@std@@V?$allocator@D@2@@std@@@std@@@std@@SAXAAV?$allocator@V?$basic_string@DU?$char_traits@D@std@@V?$allocator@D@2@@std@@@1@QAV?$basic_string@DU?$char_traits@D@std@@V?$allocator@D@2@@1@@Z 100dc2a0 f i KitParser.obj
 0002:0002d2c0       ??$destroy@V?$map@V?$basic_string@DU?$char_traits@D@std@@V?$allocator@D@2@@std@@V?$basic_json@Vmap@std@@Vvector@2@V?$basic_string@DU?$char_traits@D@std@@V?$allocator@D@2@@2@_N_J_KNVallocator@2@Uadl_serializer@nlohmann@@@nlohmann@@U?$less@V?$basic_string@DU?$char_traits@D@std@@V?$allocator@D@2@@std@@@2@V?$allocator@U?$pair@$$CBV?$basic_string@DU?$char_traits@D@std@@V?$allocator@D@2@@std@@V?$basic_json@Vmap@std@@Vvector@2@V?$basic_string@DU?$char_traits@D@std@@V?$allocator@D@2@@2@_N_J_KNVallocator@2@Uadl_serializer@nlohmann@@@nlohmann@@@std@@@2@@std@@@?$_Default_allocator_traits@V?$allocator@V?$map@V?$basic_string@DU?$char_traits@D@std@@V?$allocator@D@2@@std@@V?$basic_json@Vmap@std@@Vvector@2@V?$basic_string@DU?$char_traits@D@std@@V?$allocator@D@2@@2@_N_J_KNVallocator@2@Uadl_serializer@nlohmann@@@nlohmann@@U?$less@V?$basic_string@DU?$char_traits@D@std@@V?$allocator@D@2@@std@@@2@V?$allocator@U?$pair@$$CBV?$basic_string@DU?$char_traits@D@std@@V?$allocator@D@2@@std@@V?$basic_json@Vmap@std@@Vvector@2@V?$basic_string@DU?$char_traits@D@std@@V?$allocator@D@2@@2@_N_J_KNVallocator@2@Uadl_serializer@nlohmann@@@nlohmann@@@std@@@2@@std@@@std@@@std@@SAXAAV?$allocator@V?$map@V?$basic_string@DU?$char_traits@D@std@@V?$allocator@D@2@@std@@V?$basic_json@Vmap@std@@Vvector@2@V?$basic_string@DU?$char_traits@D@std@@V?$allocator@D@2@@2@_N_J_KNVallocator@2@Uadl_serializer@nlohmann@@@nlohmann@@U?$less@V?$basic_string@DU?$char_traits@D@std@@V?$allocator@D@2@@std@@@2@V?$allocator@U?$pair@$$CBV?$basic_string@DU?$char_traits@D@std@@V?$allocator@D@2@@std@@V?$basic_json@Vmap@std@@Vvector@2@V?$basic_string@DU?$char_traits@D@std@@V?$allocator@D@2@@2@_N_J_KNVallocator@2@Uadl_serializer@nlohmann@@@nlohmann@@@std@@@2@@std@@@1@QAV?$map@V?$basic_string@DU?$char_traits@D@std@@V?$allocator@D@2@@std@@V?$basic_json@Vmap@std@@Vvector@2@V?$basic_string@DU?$char_traits@D@std@@V?$allocator@D@2@@2@_N_J_KNVallocator@2@Uadl_serializer@nlohmann@@@nlohmann@@U?$less@V?$basic_string@DU?$char_traits@D@std@@V?$allocator@D@2@@std@@@2@V?$allocator@U?$pair@$$CBV?$basic_string@DU?$char_traits@D@std@@V?$allocator@D@2@@std@@V?$basic_json@Vmap@std@@Vvector@2@V?$basic_string@DU?$char_traits@D@std@@V?$allocator@D@2@@2@_N_J_KNVallocator@2@Uadl_serializer@nlohmann@@@nlohmann@@@std@@@2@@1@@Z 100dc2c0 f i KitParser.obj
 0002:0002d2e0       ??$destroy@V?$vector@V?$basic_json@Vmap@std@@Vvector@2@V?$basic_string@DU?$char_traits@D@std@@V?$allocator@D@2@@2@_N_J_KNVallocator@2@Uadl_serializer@nlohmann@@@nlohmann@@V?$allocator@V?$basic_json@Vmap@std@@Vvector@2@V?$basic_string@DU?$char_traits@D@std@@V?$allocator@D@2@@2@_N_J_KNVallocator@2@Uadl_serializer@nlohmann@@@nlohmann@@@std@@@std@@@?$_Default_allocator_traits@V?$allocator@V?$vector@V?$basic_json@Vmap@std@@Vvector@2@V?$basic_string@DU?$char_traits@D@std@@V?$allocator@D@2@@2@_N_J_KNVallocator@2@Uadl_serializer@nlohmann@@@nlohmann@@V?$allocator@V?$basic_json@Vmap@std@@Vvector@2@V?$basic_string@DU?$char_traits@D@std@@V?$allocator@D@2@@2@_N_J_KNVallocator@2@Uadl_serializer@nlohmann@@@nlohmann@@@std@@@std@@@std@@@std@@SAXAAV?$allocator@V?$vector@V?$basic_json@Vmap@std@@Vvector@2@V?$basic_string@DU?$char_traits@D@std@@V?$allocator@D@2@@2@_N_J_KNVallocator@2@Uadl_serializer@nlohmann@@@nlohmann@@V?$allocator@V?$basic_json@Vmap@std@@Vvector@2@V?$basic_string@DU?$char_traits@D@std@@V?$allocator@D@2@@2@_N_J_KNVallocator@2@Uadl_serializer@nlohmann@@@nlohmann@@@std@@@std@@@1@QAV?$vector@V?$basic_json@Vmap@std@@Vvector@2@V?$basic_string@DU?$char_traits@D@std@@V?$allocator@D@2@@2@_N_J_KNVallocator@2@Uadl_serializer@nlohmann@@@nlohmann@@V?$allocator@V?$basic_json@Vmap@std@@Vvector@2@V?$basic_string@DU?$char_traits@D@std@@V?$allocator@D@2@@2@_N_J_KNVallocator@2@Uadl_serializer@nlohmann@@@nlohmann@@@std@@@1@@Z 100dc2e0 f i KitParser.obj
 0002:0002d300       ??$dump_integer@_J$0A@@?$serializer@V?$basic_json@Vmap@std@@Vvector@2@V?$basic_string@DU?$char_traits@D@std@@V?$allocator@D@2@@2@_N_J_KNVallocator@2@Uadl_serializer@nlohmann@@@nlohmann@@@detail@nlohmann@@AAEX_J@Z 100dc300 f i KitParser.obj
 0002:0002d530       ??$dump_integer@_K$0A@@?$serializer@V?$basic_json@Vmap@std@@Vvector@2@V?$basic_string@DU?$char_traits@D@std@@V?$allocator@D@2@@2@_N_J_KNVallocator@2@Uadl_serializer@nlohmann@@@nlohmann@@@detail@nlohmann@@AAEX_K@Z 100dc530 f i KitParser.obj
 0002:0002d760       ??$emplace_hint@ABU?$pair@$$CBV?$basic_string@DU?$char_traits@D@std@@V?$allocator@D@2@@std@@V12@@std@@@?$_Tree@V?$_Tmap_traits@V?$basic_string@DU?$char_traits@D@std@@V?$allocator@D@2@@std@@V?$basic_json@Vmap@std@@Vvector@2@V?$basic_string@DU?$char_traits@D@std@@V?$allocator@D@2@@2@_N_J_KNVallocator@2@Uadl_serializer@nlohmann@@@nlohmann@@U?$less@V?$basic_string@DU?$char_traits@D@std@@V?$allocator@D@2@@std@@@2@V?$allocator@U?$pair@$$CBV?$basic_string@DU?$char_traits@D@std@@V?$allocator@D@2@@std@@V?$basic_json@Vmap@std@@Vvector@2@V?$basic_string@DU?$char_traits@D@std@@V?$allocator@D@2@@2@_N_J_KNVallocator@2@Uadl_serializer@nlohmann@@@nlohmann@@@std@@@2@$0A@@std@@@std@@QAE?AV?$_Tree_iterator@V?$_Tree_val@U?$_Tree_simple_types@U?$pair@$$CBV?$basic_string@DU?$char_traits@D@std@@V?$allocator@D@2@@std@@V?$basic_json@Vmap@std@@Vvector@2@V?$basic_string@DU?$char_traits@D@std@@V?$allocator@D@2@@2@_N_J_KNVallocator@2@Uadl_serializer@nlohmann@@@nlohmann@@@std@@@std@@@std@@@1@V?$_Tree_const_iterator@V?$_Tree_val@U?$_Tree_simple_types@U?$pair@$$CBV?$basic_string@DU?$char_traits@D@std@@V?$allocator@D@2@@std@@V?$basic_json@Vmap@std@@Vvector@2@V?$basic_string@DU?$char_traits@D@std@@V?$allocator@D@2@@2@_N_J_KNVallocator@2@Uadl_serializer@nlohmann@@@nlohmann@@@std@@@std@@@std@@@1@ABU?$pair@$$CBV?$basic_string@DU?$char_traits@D@std@@V?$allocator@D@2@@std@@V12@@1@@Z 100dc760 f i KitParser.obj
 0002:0002d7c0       ??$emplace_hint@ABUpiecewise_construct_t@std@@V?$tuple@$$QAV?$basic_string@DU?$char_traits@D@std@@V?$allocator@D@2@@std@@@2@V?$tuple@$$V@2@@?$_Tree@V?$_Tmap_traits@V?$basic_string@DU?$char_traits@D@std@@V?$allocator@D@2@@std@@V12@U?$less@V?$basic_string@DU?$char_traits@D@std@@V?$allocator@D@2@@std@@@2@V?$allocator@U?$pair@$$CBV?$basic_string@DU?$char_traits@D@std@@V?$allocator@D@2@@std@@V12@@std@@@2@$0A@@std@@@std@@QAE?AV?$_Tree_iterator@V?$_Tree_val@U?$_Tree_simple_types@U?$pair@$$CBV?$basic_string@DU?$char_traits@D@std@@V?$allocator@D@2@@std@@V12@@std@@@std@@@std@@@1@V?$_Tree_const_iterator@V?$_Tree_val@U?$_Tree_simple_types@U?$pair@$$CBV?$basic_string@DU?$char_traits@D@std@@V?$allocator@D@2@@std@@V12@@std@@@std@@@std@@@1@ABUpiecewise_construct_t@1@$$QAV?$tuple@$$QAV?$basic_string@DU?$char_traits@D@std@@V?$allocator@D@2@@std@@@1@$$QAV?$tuple@$$V@1@@Z 100dc7c0 f i KitParser.obj
 0002:0002d840       ??$end@D$0BF@@std@@YAPADAAY0BF@D@Z 100dc840 f i KitParser.obj
 0002:0002d860       ??$end@V?$map@V?$basic_string@DU?$char_traits@D@std@@V?$allocator@D@2@@std@@V12@U?$less@V?$basic_string@DU?$char_traits@D@std@@V?$allocator@D@2@@std@@@2@V?$allocator@U?$pair@$$CBV?$basic_string@DU?$char_traits@D@std@@V?$allocator@D@2@@std@@V12@@std@@@2@@std@@@std@@YA?AV?$_Tree_const_iterator@V?$_Tree_val@U?$_Tree_simple_types@U?$pair@$$CBV?$basic_string@DU?$char_traits@D@std@@V?$allocator@D@2@@std@@V12@@std@@@std@@@std@@@0@ABV?$map@V?$basic_string@DU?$char_traits@D@std@@V?$allocator@D@2@@std@@V12@U?$less@V?$basic_string@DU?$char_traits@D@std@@V?$allocator@D@2@@std@@@2@V?$allocator@U?$pair@$$CBV?$basic_string@DU?$char_traits@D@std@@V?$allocator@D@2@@std@@V12@@std@@@2@@0@@Z 100dc860 f i KitParser.obj
 0002:0002d890       ??$endl@DU?$char_traits@D@std@@@std@@YAAAV?$basic_ostream@DU?$char_traits@D@std@@@0@AAV10@@Z 100dc890 f i KitParser.obj
 0002:0002d8e0       ??$forward@$$QAV?$basic_string@DU?$char_traits@D@std@@V?$allocator@D@2@@std@@@std@@YA$$QAV?$basic_string@DU?$char_traits@D@std@@V?$allocator@D@2@@0@AAV10@@Z 100dc8e0 f i KitParser.obj
 0002:0002d900       ??$forward@AAPAU?$_Tree_node@U?$pair@$$CBV?$basic_string@DU?$char_traits@D@std@@V?$allocator@D@2@@std@@V12@@std@@PAX@std@@@std@@YAAAPAU?$_Tree_node@U?$pair@$$CBV?$basic_string@DU?$char_traits@D@std@@V?$allocator@D@2@@std@@V12@@std@@PAX@0@AAPAU10@@Z 100dc900 f i KitParser.obj
 0002:0002d920       ??$forward@AAPAU?$_Tree_node@U?$pair@$$CBV?$basic_string@DU?$char_traits@D@std@@V?$allocator@D@2@@std@@V?$basic_json@Vmap@std@@Vvector@2@V?$basic_string@DU?$char_traits@D@std@@V?$allocator@D@2@@2@_N_J_KNVallocator@2@Uadl_serializer@nlohmann@@@nlohmann@@@std@@PAX@std@@@std@@YAAAPAU?$_Tree_node@U?$pair@$$CBV?$basic_string@DU?$char_traits@D@std@@V?$allocator@D@2@@std@@V?$basic_json@Vmap@std@@Vvector@2@V?$basic_string@DU?$char_traits@D@std@@V?$allocator@D@2@@2@_N_J_KNVallocator@2@Uadl_serializer@nlohmann@@@nlohmann@@@std@@PAX@0@AAPAU10@@Z 100dc920 f i KitParser.obj
 0002:0002d940       ??$forward@AAPAV?$basic_string@DU?$char_traits@D@std@@V?$allocator@D@2@@std@@@std@@YAAAPAV?$basic_string@DU?$char_traits@D@std@@V?$allocator@D@2@@0@AAPAV10@@Z 100dc940 f i KitParser.obj
 0002:0002d960       ??$forward@AAPAV?$map@V?$basic_string@DU?$char_traits@D@std@@V?$allocator@D@2@@std@@V?$basic_json@Vmap@std@@Vvector@2@V?$basic_string@DU?$char_traits@D@std@@V?$allocator@D@2@@2@_N_J_KNVallocator@2@Uadl_serializer@nlohmann@@@nlohmann@@U?$less@V?$basic_string@DU?$char_traits@D@std@@V?$allocator@D@2@@std@@@2@V?$allocator@U?$pair@$$CBV?$basic_string@DU?$char_traits@D@std@@V?$allocator@D@2@@std@@V?$basic_json@Vmap@std@@Vvector@2@V?$basic_string@DU?$char_traits@D@std@@V?$allocator@D@2@@2@_N_J_KNVallocator@2@Uadl_serializer@nlohmann@@@nlohmann@@@std@@@2@@std@@@std@@YAAAPAV?$map@V?$basic_string@DU?$char_traits@D@std@@V?$allocator@D@2@@std@@V?$basic_json@Vmap@std@@Vvector@2@V?$basic_string@DU?$char_traits@D@std@@V?$allocator@D@2@@2@_N_J_KNVallocator@2@Uadl_serializer@nlohmann@@@nlohmann@@U?$less@V?$basic_string@DU?$char_traits@D@std@@V?$allocator@D@2@@std@@@2@V?$allocator@U?$pair@$$CBV?$basic_string@DU?$char_traits@D@std@@V?$allocator@D@2@@std@@V?$basic_json@Vmap@std@@Vvector@2@V?$basic_string@DU?$char_traits@D@std@@V?$allocator@D@2@@2@_N_J_KNVallocator@2@Uadl_serializer@nlohmann@@@nlohmann@@@std@@@2@@0@AAPAV10@@Z 100dc960 f i KitParser.obj
 0002:0002d980       ??$forward@AAU?$pair@$$CBV?$basic_string@DU?$char_traits@D@std@@V?$allocator@D@2@@std@@V12@@std@@@std@@YAAAU?$pair@$$CBV?$basic_string@DU?$char_traits@D@std@@V?$allocator@D@2@@std@@V12@@0@AAU10@@Z 100dc980 f i KitParser.obj
 0002:0002d9a0       ??$forward@AAU?$pair@$$CBV?$basic_string@DU?$char_traits@D@std@@V?$allocator@D@2@@std@@V?$basic_json@Vmap@std@@Vvector@2@V?$basic_string@DU?$char_traits@D@std@@V?$allocator@D@2@@2@_N_J_KNVallocator@2@Uadl_serializer@nlohmann@@@nlohmann@@@std@@@std@@YAAAU?$pair@$$CBV?$basic_string@DU?$char_traits@D@std@@V?$allocator@D@2@@std@@V?$basic_json@Vmap@std@@Vvector@2@V?$basic_string@DU?$char_traits@D@std@@V?$allocator@D@2@@2@_N_J_KNVallocator@2@Uadl_serializer@nlohmann@@@nlohmann@@@0@AAU10@@Z 100dc9a0 f i KitParser.obj
 0002:0002d9c0       ??$forward@AAV?$_Tree_iterator@V?$_Tree_val@U?$_Tree_simple_types@U?$pair@$$CBV?$basic_string@DU?$char_traits@D@std@@V?$allocator@D@2@@std@@V12@@std@@@std@@@std@@@std@@@std@@YAAAV?$_Tree_iterator@V?$_Tree_val@U?$_Tree_simple_types@U?$pair@$$CBV?$basic_string@DU?$char_traits@D@std@@V?$allocator@D@2@@std@@V12@@std@@@std@@@std@@@0@AAV10@@Z 100dc9c0 f i KitParser.obj
 0002:0002d9e0       ??$forward@AAV?$_Tree_iterator@V?$_Tree_val@U?$_Tree_simple_types@U?$pair@$$CBV?$basic_string@DU?$char_traits@D@std@@V?$allocator@D@2@@std@@V?$basic_json@Vmap@std@@Vvector@2@V?$basic_string@DU?$char_traits@D@std@@V?$allocator@D@2@@2@_N_J_KNVallocator@2@Uadl_serializer@nlohmann@@@nlohmann@@@std@@@std@@@std@@@std@@@std@@YAAAV?$_Tree_iterator@V?$_Tree_val@U?$_Tree_simple_types@U?$pair@$$CBV?$basic_string@DU?$char_traits@D@std@@V?$allocator@D@2@@std@@V?$basic_json@Vmap@std@@Vvector@2@V?$basic_string@DU?$char_traits@D@std@@V?$allocator@D@2@@2@_N_J_KNVallocator@2@Uadl_serializer@nlohmann@@@nlohmann@@@std@@@std@@@std@@@0@AAV10@@Z 100dc9e0 f i KitParser.obj
 0002:0002da00       ??$forward@AAV?$basic_ostream@DU?$char_traits@D@std@@@std@@@std@@YAAAV?$basic_ostream@DU?$char_traits@D@std@@@0@AAV10@@Z 100dca00 f i KitParser.obj
 0002:0002da20       ??$forward@AAV?$map@V?$basic_string@DU?$char_traits@D@std@@V?$allocator@D@2@@std@@V12@U?$less@V?$basic_string@DU?$char_traits@D@std@@V?$allocator@D@2@@std@@@2@V?$allocator@U?$pair@$$CBV?$basic_string@DU?$char_traits@D@std@@V?$allocator@D@2@@std@@V12@@std@@@2@@std@@@std@@YAAAV?$map@V?$basic_string@DU?$char_traits@D@std@@V?$allocator@D@2@@std@@V12@U?$less@V?$basic_string@DU?$char_traits@D@std@@V?$allocator@D@2@@std@@@2@V?$allocator@U?$pair@$$CBV?$basic_string@DU?$char_traits@D@std@@V?$allocator@D@2@@std@@V12@@std@@@2@@0@AAV10@@Z 100dca20 f i KitParser.obj
 0002:0002da40       ??$forward@ABU?$less@V?$basic_string@DU?$char_traits@D@std@@V?$allocator@D@2@@std@@@std@@@std@@YAABU?$less@V?$basic_string@DU?$char_traits@D@std@@V?$allocator@D@2@@std@@@0@ABU10@@Z 100dca40 f i KitParser.obj
 0002:0002da60       ??$forward@ABU?$pair@$$CBV?$basic_string@DU?$char_traits@D@std@@V?$allocator@D@2@@std@@V12@@std@@@std@@YAABU?$pair@$$CBV?$basic_string@DU?$char_traits@D@std@@V?$allocator@D@2@@std@@V12@@0@ABU10@@Z 100dca60 f i KitParser.obj
 0002:0002da80       ??$forward@ABUpiecewise_construct_t@std@@@std@@YAABUpiecewise_construct_t@0@ABU10@@Z 100dca80 f i KitParser.obj
 0002:0002dae0       ??$forward@ABV?$allocator@D@std@@@std@@YAABV?$allocator@D@0@ABV10@@Z 100dcae0 f i KitParser.obj
 0002:0002db00       ??$forward@ABV?$basic_string@DU?$char_traits@D@std@@V?$allocator@D@2@@std@@@std@@YAABV?$basic_string@DU?$char_traits@D@std@@V?$allocator@D@2@@0@ABV10@@Z 100dcb00 f i KitParser.obj
 0002:0002db20       ??$forward@V?$_Tree_const_iterator@V?$_Tree_val@U?$_Tree_simple_types@U?$pair@$$CBV?$basic_string@DU?$char_traits@D@std@@V?$allocator@D@2@@std@@V12@@std@@@std@@@std@@@std@@@std@@YA$$QAV?$_Tree_const_iterator@V?$_Tree_val@U?$_Tree_simple_types@U?$pair@$$CBV?$basic_string@DU?$char_traits@D@std@@V?$allocator@D@2@@std@@V12@@std@@@std@@@std@@@0@AAV10@@Z 100dcb20 f i KitParser.obj
 0002:0002db40       ??$forward@V?$_Tree_iterator@V?$_Tree_val@U?$_Tree_simple_types@U?$pair@$$CBV?$basic_string@DU?$char_traits@D@std@@V?$allocator@D@2@@std@@V12@@std@@@std@@@std@@@std@@@std@@YA$$QAV?$_Tree_iterator@V?$_Tree_val@U?$_Tree_simple_types@U?$pair@$$CBV?$basic_string@DU?$char_traits@D@std@@V?$allocator@D@2@@std@@V12@@std@@@std@@@std@@@0@AAV10@@Z 100dcb40 f i KitParser.obj
 0002:0002db60       ??$forward@V?$_Tree_iterator@V?$_Tree_val@U?$_Tree_simple_types@U?$pair@$$CBV?$basic_string@DU?$char_traits@D@std@@V?$allocator@D@2@@std@@V?$basic_json@Vmap@std@@Vvector@2@V?$basic_string@DU?$char_traits@D@std@@V?$allocator@D@2@@2@_N_J_KNVallocator@2@Uadl_serializer@nlohmann@@@nlohmann@@@std@@@std@@@std@@@std@@@std@@YA$$QAV?$_Tree_iterator@V?$_Tree_val@U?$_Tree_simple_types@U?$pair@$$CBV?$basic_string@DU?$char_traits@D@std@@V?$allocator@D@2@@std@@V?$basic_json@Vmap@std@@Vvector@2@V?$basic_string@DU?$char_traits@D@std@@V?$allocator@D@2@@2@_N_J_KNVallocator@2@Uadl_serializer@nlohmann@@@nlohmann@@@std@@@std@@@std@@@0@AAV10@@Z 100dcb60 f i KitParser.obj
 0002:0002db80       ??$forward@V?$allocator@D@std@@@std@@YA$$QAV?$allocator@D@0@AAV10@@Z 100dcb80 f i KitParser.obj
 0002:0002dba0       ??$forward@V?$basic_string@DU?$char_traits@D@std@@V?$allocator@D@2@@std@@@std@@YA$$QAV?$basic_string@DU?$char_traits@D@std@@V?$allocator@D@2@@0@AAV10@@Z 100dcba0 f i KitParser.obj
 0002:0002dbc0       ??$forward@V?$tuple@$$QAV?$basic_string@DU?$char_traits@D@std@@V?$allocator@D@2@@std@@@std@@@std@@YA$$QAV?$tuple@$$QAV?$basic_string@DU?$char_traits@D@std@@V?$allocator@D@2@@std@@@0@AAV10@@Z 100dcbc0 f i KitParser.obj
 0002:0002dbe0       ??$forward@V?$tuple@$$V@std@@@std@@YA$$QAV?$tuple@$$V@0@AAV10@@Z 100dcbe0 f i KitParser.obj
 0002:0002dc00       ??$forward_as_tuple@$$V@std@@YA?AV?$tuple@$$V@0@XZ 100dcc00 f i KitParser.obj
 0002:0002dc30       ??$forward_as_tuple@V?$basic_string@DU?$char_traits@D@std@@V?$allocator@D@2@@std@@@std@@YA?AV?$tuple@$$QAV?$basic_string@DU?$char_traits@D@std@@V?$allocator@D@2@@std@@@0@$$QAV?$basic_string@DU?$char_traits@D@std@@V?$allocator@D@2@@0@@Z 100dcc30 f i KitParser.obj
 0002:0002dca0       ??$get@$0A@$$QAV?$basic_string@DU?$char_traits@D@std@@V?$allocator@D@2@@std@@@std@@YA$$QAV?$basic_string@DU?$char_traits@D@std@@V?$allocator@D@2@@0@$$QAV?$tuple@$$QAV?$basic_string@DU?$char_traits@D@std@@V?$allocator@D@2@@std@@@0@@Z 100dcca0 f i KitParser.obj
 0002:0002dcd0       ??$grisu2@N@dtoa_impl@detail@nlohmann@@YAXPADAAH1N@Z 100dccd0 f i KitParser.obj
 0002:0002de40       ??$insert@V?$_Tree_const_iterator@V?$_Tree_val@U?$_Tree_simple_types@U?$pair@$$CBV?$basic_string@DU?$char_traits@D@std@@V?$allocator@D@2@@std@@V12@@std@@@std@@@std@@@std@@@?$_Tree@V?$_Tmap_traits@V?$basic_string@DU?$char_traits@D@std@@V?$allocator@D@2@@std@@V?$basic_json@Vmap@std@@Vvector@2@V?$basic_string@DU?$char_traits@D@std@@V?$allocator@D@2@@2@_N_J_KNVallocator@2@Uadl_serializer@nlohmann@@@nlohmann@@U?$less@V?$basic_string@DU?$char_traits@D@std@@V?$allocator@D@2@@std@@@2@V?$allocator@U?$pair@$$CBV?$basic_string@DU?$char_traits@D@std@@V?$allocator@D@2@@std@@V?$basic_json@Vmap@std@@Vvector@2@V?$basic_string@DU?$char_traits@D@std@@V?$allocator@D@2@@2@_N_J_KNVallocator@2@Uadl_serializer@nlohmann@@@nlohmann@@@std@@@2@$0A@@std@@@std@@QAEXV?$_Tree_const_iterator@V?$_Tree_val@U?$_Tree_simple_types@U?$pair@$$CBV?$basic_string@DU?$char_traits@D@std@@V?$allocator@D@2@@std@@V12@@std@@@std@@@std@@@1@0@Z 100dce40 f i KitParser.obj
 0002:0002dec0       ??$isfinite@N@@YA_NN@Z     100dcec0 f i KitParser.obj
 0002:0002df10       ??$make_shared@V?$output_stream_adapter@D@detail@nlohmann@@AAV?$basic_ostream@DU?$char_traits@D@std@@@std@@@std@@YA?AV?$shared_ptr@V?$output_stream_adapter@D@detail@nlohmann@@@0@AAV?$basic_ostream@DU?$char_traits@D@std@@@0@@Z 100dcf10 f i KitParser.obj
 0002:0002e040       ??$move@AAV?$allocator@D@std@@@std@@YA$$QAV?$allocator@D@0@AAV10@@Z 100dd040 f i KitParser.obj
 0002:0002e060       ??$move@AAV?$basic_string@DU?$char_traits@D@std@@V?$allocator@D@2@@std@@@std@@YA$$QAV?$basic_string@DU?$char_traits@D@std@@V?$allocator@D@2@@0@AAV10@@Z 100dd060 f i KitParser.obj
 0002:0002e080       ??$move@AAV?$shared_ptr@U?$output_adapter_protocol@D@detail@nlohmann@@@std@@@std@@YA$$QAV?$shared_ptr@U?$output_adapter_protocol@D@detail@nlohmann@@@0@AAV10@@Z 100dd080 f i KitParser.obj
 0002:0002e0a0       ??$move@AAV?$shared_ptr@V?$output_stream_adapter@D@detail@nlohmann@@@std@@@std@@YA$$QAV?$shared_ptr@V?$output_stream_adapter@D@detail@nlohmann@@@0@AAV10@@Z 100dd0a0 f i KitParser.obj
 0002:0002e0c0       ??$move@AAV?$tuple@$$QAV?$basic_string@DU?$char_traits@D@std@@V?$allocator@D@2@@std@@@std@@@std@@YA$$QAV?$tuple@$$QAV?$basic_string@DU?$char_traits@D@std@@V?$allocator@D@2@@std@@@0@AAV10@@Z 100dd0c0 f i KitParser.obj
 0002:0002e0e0       ??$next@V?$_Tree_const_iterator@V?$_Tree_val@U?$_Tree_simple_types@U?$pair@$$CBV?$basic_string@DU?$char_traits@D@std@@V?$allocator@D@2@@std@@V?$basic_json@Vmap@std@@Vvector@2@V?$basic_string@DU?$char_traits@D@std@@V?$allocator@D@2@@2@_N_J_KNVallocator@2@Uadl_serializer@nlohmann@@@nlohmann@@@std@@@std@@@std@@@std@@@std@@YA?AV?$_Tree_const_iterator@V?$_Tree_val@U?$_Tree_simple_types@U?$pair@$$CBV?$basic_string@DU?$char_traits@D@std@@V?$allocator@D@2@@std@@V?$basic_json@Vmap@std@@Vvector@2@V?$basic_string@DU?$char_traits@D@std@@V?$allocator@D@2@@2@_N_J_KNVallocator@2@Uadl_serializer@nlohmann@@@nlohmann@@@std@@@std@@@std@@@0@V10@H@Z 100dd0e0 f i KitParser.obj
 0002:0002e120       ??$reinterpret_bits@_KN@dtoa_impl@detail@nlohmann@@YA_KN@Z 100dd120 f i KitParser.obj
 0002:0002e170       ??$reverse@V?$_Array_iterator@D$0EA@@std@@@std@@YAXV?$_Array_iterator@D$0EA@@0@0@Z 100dd170 f i KitParser.obj
 0002:0002e1b0       ??$setfill@D@std@@YA?AU?$_Fillobj@D@0@D@Z 100dd1b0 f i KitParser.obj
 0002:0002e1e0       ??$strcat_s@$0EA@@@YAHAAY0EA@DPBD@Z 100dd1e0 f i KitParser.obj
 0002:0002e210       ??$strcpy_s@$0EA@@@YAHAAY0EA@DPBD@Z 100dd210 f i KitParser.obj
 0002:0002e240       ??$to_chars@N@detail@nlohmann@@YAPADPAD0N@Z 100dd240 f i KitParser.obj
 0002:0002e4a0       ??$to_json@V?$basic_json@Vmap@std@@Vvector@2@V?$basic_string@DU?$char_traits@D@std@@V?$allocator@D@2@@2@_N_J_KNVallocator@2@Uadl_serializer@nlohmann@@@nlohmann@@AAV?$map@V?$basic_string@DU?$char_traits@D@std@@V?$allocator@D@2@@std@@V12@U?$less@V?$basic_string@DU?$char_traits@D@std@@V?$allocator@D@2@@std@@@2@V?$allocator@U?$pair@$$CBV?$basic_string@DU?$char_traits@D@std@@V?$allocator@D@2@@std@@V12@@std@@@2@@std@@@?$adl_serializer@V?$map@V?$basic_string@DU?$char_traits@D@std@@V?$allocator@D@2@@std@@V12@U?$less@V?$basic_string@DU?$char_traits@D@std@@V?$allocator@D@2@@std@@@2@V?$allocator@U?$pair@$$CBV?$basic_string@DU?$char_traits@D@std@@V?$allocator@D@2@@std@@V12@@std@@@2@@std@@X@nlohmann@@SAXAAV?$basic_json@Vmap@std@@Vvector@2@V?$basic_string@DU?$char_traits@D@std@@V?$allocator@D@2@@2@_N_J_KNVallocator@2@Uadl_serializer@nlohmann@@@1@AAV?$map@V?$basic_string@DU?$char_traits@D@std@@V?$allocator@D@2@@std@@V12@U?$less@V?$basic_string@DU?$char_traits@D@std@@V?$allocator@D@2@@std@@@2@V?$allocator@U?$pair@$$CBV?$basic_string@DU?$char_traits@D@std@@V?$allocator@D@2@@std@@V12@@std@@@2@@std@@@Z 100dd4a0 f i KitParser.obj
 0002:0002e4e0       ??$to_json@V?$basic_json@Vmap@std@@Vvector@2@V?$basic_string@DU?$char_traits@D@std@@V?$allocator@D@2@@2@_N_J_KNVallocator@2@Uadl_serializer@nlohmann@@@nlohmann@@ABV?$basic_string@DU?$char_traits@D@std@@V?$allocator@D@2@@std@@@?$adl_serializer@V?$basic_string@DU?$char_traits@D@std@@V?$allocator@D@2@@std@@X@nlohmann@@SAXAAV?$basic_json@Vmap@std@@Vvector@2@V?$basic_string@DU?$char_traits@D@std@@V?$allocator@D@2@@2@_N_J_KNVallocator@2@Uadl_serializer@nlohmann@@@1@ABV?$basic_string@DU?$char_traits@D@std@@V?$allocator@D@2@@std@@@Z 100dd4e0 f i KitParser.obj
 0002:0002e520       ??$to_json@V?$basic_json@Vmap@std@@Vvector@2@V?$basic_string@DU?$char_traits@D@std@@V?$allocator@D@2@@2@_N_J_KNVallocator@2@Uadl_serializer@nlohmann@@@nlohmann@@V?$basic_string@DU?$char_traits@D@std@@V?$allocator@D@2@@std@@$0A@@detail@nlohmann@@YAXAAV?$basic_json@Vmap@std@@Vvector@2@V?$basic_string@DU?$char_traits@D@std@@V?$allocator@D@2@@2@_N_J_KNVallocator@2@Uadl_serializer@nlohmann@@@1@ABV?$basic_string@DU?$char_traits@D@std@@V?$allocator@D@2@@std@@@Z 100dd520 f i KitParser.obj
 0002:0002e550       ??$to_json@V?$basic_json@Vmap@std@@Vvector@2@V?$basic_string@DU?$char_traits@D@std@@V?$allocator@D@2@@2@_N_J_KNVallocator@2@Uadl_serializer@nlohmann@@@nlohmann@@V?$map@V?$basic_string@DU?$char_traits@D@std@@V?$allocator@D@2@@std@@V12@U?$less@V?$basic_string@DU?$char_traits@D@std@@V?$allocator@D@2@@std@@@2@V?$allocator@U?$pair@$$CBV?$basic_string@DU?$char_traits@D@std@@V?$allocator@D@2@@std@@V12@@std@@@2@@std@@$0A@@detail@nlohmann@@YAXAAV?$basic_json@Vmap@std@@Vvector@2@V?$basic_string@DU?$char_traits@D@std@@V?$allocator@D@2@@2@_N_J_KNVallocator@2@Uadl_serializer@nlohmann@@@1@ABV?$map@V?$basic_string@DU?$char_traits@D@std@@V?$allocator@D@2@@std@@V12@U?$less@V?$basic_string@DU?$char_traits@D@std@@V?$allocator@D@2@@std@@@2@V?$allocator@U?$pair@$$CBV?$basic_string@DU?$char_traits@D@std@@V?$allocator@D@2@@std@@V12@@std@@@2@@std@@@Z 100dd550 f i KitParser.obj
 0002:0002e580       ??$try_emplace@$$V@?$map@V?$basic_string@DU?$char_traits@D@std@@V?$allocator@D@2@@std@@V12@U?$less@V?$basic_string@DU?$char_traits@D@std@@V?$allocator@D@2@@std@@@2@V?$allocator@U?$pair@$$CBV?$basic_string@DU?$char_traits@D@std@@V?$allocator@D@2@@std@@V12@@std@@@2@@std@@QAE?AU?$pair@V?$_Tree_iterator@V?$_Tree_val@U?$_Tree_simple_types@U?$pair@$$CBV?$basic_string@DU?$char_traits@D@std@@V?$allocator@D@2@@std@@V12@@std@@@std@@@std@@@std@@_N@1@$$QAV?$basic_string@DU?$char_traits@D@std@@V?$allocator@D@2@@1@@Z 100dd580 f i KitParser.obj
 0002:0002e5c0       ??$use_facet@V?$codecvt@DDU_Mbstatet@@@std@@@std@@YAABV?$codecvt@DDU_Mbstatet@@@0@ABVlocale@0@@Z 100dd5c0 f i KitParser.obj
 0002:0002e770       ??0?$_Array_const_iterator@D$0EA@@std@@QAE@PBDI@Z 100dd770 f i KitParser.obj
 0002:0002e7a0       ??0?$_Array_iterator@D$0EA@@std@@QAE@PADI@Z 100dd7a0 f i KitParser.obj
 0002:0002e7e0       ??0?$_Fillobj@D@std@@QAE@D@Z 100dd7e0 f i KitParser.obj
 0002:0002e810       ??0?$_Ptr_base@U?$output_adapter_protocol@D@detail@nlohmann@@@std@@IAE@XZ 100dd810 f i KitParser.obj
 0002:0002e850       ??0?$_Ptr_base@V?$output_stream_adapter@D@detail@nlohmann@@@std@@IAE@XZ 100dd850 f i KitParser.obj
 0002:0002e890       ??0?$_String_alloc@U?$_String_base_types@_WV?$allocator@_W@std@@@std@@@std@@QAE@XZ 100dd890 f i KitParser.obj
 0002:0002e8c0       ??0?$_String_const_iterator@V?$_String_val@U?$_Simple_types@D@std@@@std@@@std@@QAE@PBDPBU_Container_base0@1@@Z 100dd8c0 f i KitParser.obj
 0002:0002e900       ??0?$_String_iterator@V?$_String_val@U?$_Simple_types@D@std@@@std@@@std@@QAE@PADPBU_Container_base0@1@@Z 100dd900 f i KitParser.obj
 0002:0002e940       ??0?$_String_val@U?$_Simple_types@_W@std@@@std@@QAE@XZ 100dd940 f i KitParser.obj
 0002:0002e980       ??0?$_Tree@V?$_Tmap_traits@V?$basic_string@DU?$char_traits@D@std@@V?$allocator@D@2@@std@@V?$basic_json@Vmap@std@@Vvector@2@V?$basic_string@DU?$char_traits@D@std@@V?$allocator@D@2@@2@_N_J_KNVallocator@2@Uadl_serializer@nlohmann@@@nlohmann@@U?$less@V?$basic_string@DU?$char_traits@D@std@@V?$allocator@D@2@@std@@@2@V?$allocator@U?$pair@$$CBV?$basic_string@DU?$char_traits@D@std@@V?$allocator@D@2@@std@@V?$basic_json@Vmap@std@@Vvector@2@V?$basic_string@DU?$char_traits@D@std@@V?$allocator@D@2@@2@_N_J_KNVallocator@2@Uadl_serializer@nlohmann@@@nlohmann@@@std@@@2@$0A@@std@@@std@@QAE@ABU?$less@V?$basic_string@DU?$char_traits@D@std@@V?$allocator@D@2@@std@@@1@@Z 100dd980 f i KitParser.obj
 0002:0002e9b0       ??0?$_Tree_comp_alloc@V?$_Tmap_traits@V?$basic_string@DU?$char_traits@D@std@@V?$allocator@D@2@@std@@V?$basic_json@Vmap@std@@Vvector@2@V?$basic_string@DU?$char_traits@D@std@@V?$allocator@D@2@@2@_N_J_KNVallocator@2@Uadl_serializer@nlohmann@@@nlohmann@@U?$less@V?$basic_string@DU?$char_traits@D@std@@V?$allocator@D@2@@std@@@2@V?$allocator@U?$pair@$$CBV?$basic_string@DU?$char_traits@D@std@@V?$allocator@D@2@@std@@V?$basic_json@Vmap@std@@Vvector@2@V?$basic_string@DU?$char_traits@D@std@@V?$allocator@D@2@@2@_N_J_KNVallocator@2@Uadl_serializer@nlohmann@@@nlohmann@@@std@@@2@$0A@@std@@@std@@QAE@ABU?$less@V?$basic_string@DU?$char_traits@D@std@@V?$allocator@D@2@@std@@@1@@Z 100dd9b0 f i KitParser.obj
 0002:0002ea00       ??0?$_Tree_const_iterator@V?$_Tree_val@U?$_Tree_simple_types@U?$pair@$$CBV?$basic_string@DU?$char_traits@D@std@@V?$allocator@D@2@@std@@V12@@std@@@std@@@std@@@std@@QAE@PAU?$_Tree_node@U?$pair@$$CBV?$basic_string@DU?$char_traits@D@std@@V?$allocator@D@2@@std@@V12@@std@@PAX@1@PBV?$_Tree_val@U?$_Tree_simple_types@U?$pair@$$CBV?$basic_string@DU?$char_traits@D@std@@V?$allocator@D@2@@std@@V12@@std@@@std@@@1@@Z 100dda00 f i KitParser.obj
 0002:0002ea40       ??0?$_Tree_const_iterator@V?$_Tree_val@U?$_Tree_simple_types@U?$pair@$$CBV?$basic_string@DU?$char_traits@D@std@@V?$allocator@D@2@@std@@V12@@std@@@std@@@std@@@std@@QAE@XZ 100dda40 f i KitParser.obj
 0002:0002ea70       ??0?$_Tree_const_iterator@V?$_Tree_val@U?$_Tree_simple_types@U?$pair@$$CBV?$basic_string@DU?$char_traits@D@std@@V?$allocator@D@2@@std@@V?$basic_json@Vmap@std@@Vvector@2@V?$basic_string@DU?$char_traits@D@std@@V?$allocator@D@2@@2@_N_J_KNVallocator@2@Uadl_serializer@nlohmann@@@nlohmann@@@std@@@std@@@std@@@std@@QAE@PAU?$_Tree_node@U?$pair@$$CBV?$basic_string@DU?$char_traits@D@std@@V?$allocator@D@2@@std@@V?$basic_json@Vmap@std@@Vvector@2@V?$basic_string@DU?$char_traits@D@std@@V?$allocator@D@2@@2@_N_J_KNVallocator@2@Uadl_serializer@nlohmann@@@nlohmann@@@std@@PAX@1@PBV?$_Tree_val@U?$_Tree_simple_types@U?$pair@$$CBV?$basic_string@DU?$char_traits@D@std@@V?$allocator@D@2@@std@@V?$basic_json@Vmap@std@@Vvector@2@V?$basic_string@DU?$char_traits@D@std@@V?$allocator@D@2@@2@_N_J_KNVallocator@2@Uadl_serializer@nlohmann@@@nlohmann@@@std@@@std@@@1@@Z 100dda70 f i KitParser.obj
 0002:0002eab0       ??0?$_Tree_const_iterator@V?$_Tree_val@U?$_Tree_simple_types@U?$pair@$$CBV?$basic_string@DU?$char_traits@D@std@@V?$allocator@D@2@@std@@V?$basic_json@Vmap@std@@Vvector@2@V?$basic_string@DU?$char_traits@D@std@@V?$allocator@D@2@@2@_N_J_KNVallocator@2@Uadl_serializer@nlohmann@@@nlohmann@@@std@@@std@@@std@@@std@@QAE@XZ 100ddab0 f i KitParser.obj
 0002:0002eae0       ??0?$_Tree_iterator@V?$_Tree_val@U?$_Tree_simple_types@U?$pair@$$CBV?$basic_string@DU?$char_traits@D@std@@V?$allocator@D@2@@std@@V12@@std@@@std@@@std@@@std@@QAE@PAU?$_Tree_node@U?$pair@$$CBV?$basic_string@DU?$char_traits@D@std@@V?$allocator@D@2@@std@@V12@@std@@PAX@1@PBV?$_Tree_val@U?$_Tree_simple_types@U?$pair@$$CBV?$basic_string@DU?$char_traits@D@std@@V?$allocator@D@2@@std@@V12@@std@@@std@@@1@@Z 100ddae0 f i KitParser.obj
 0002:0002eb20       ??0?$_Tree_iterator@V?$_Tree_val@U?$_Tree_simple_types@U?$pair@$$CBV?$basic_string@DU?$char_traits@D@std@@V?$allocator@D@2@@std@@V?$basic_json@Vmap@std@@Vvector@2@V?$basic_string@DU?$char_traits@D@std@@V?$allocator@D@2@@2@_N_J_KNVallocator@2@Uadl_serializer@nlohmann@@@nlohmann@@@std@@@std@@@std@@@std@@QAE@PAU?$_Tree_node@U?$pair@$$CBV?$basic_string@DU?$char_traits@D@std@@V?$allocator@D@2@@std@@V?$basic_json@Vmap@std@@Vvector@2@V?$basic_string@DU?$char_traits@D@std@@V?$allocator@D@2@@2@_N_J_KNVallocator@2@Uadl_serializer@nlohmann@@@nlohmann@@@std@@PAX@1@PBV?$_Tree_val@U?$_Tree_simple_types@U?$pair@$$CBV?$basic_string@DU?$char_traits@D@std@@V?$allocator@D@2@@std@@V?$basic_json@Vmap@std@@Vvector@2@V?$basic_string@DU?$char_traits@D@std@@V?$allocator@D@2@@2@_N_J_KNVallocator@2@Uadl_serializer@nlohmann@@@nlohmann@@@std@@@std@@@1@@Z 100ddb20 f i KitParser.obj
 0002:0002eb60       ??0?$_Tree_unchecked_const_iterator@V?$_Tree_val@U?$_Tree_simple_types@U?$pair@$$CBV?$basic_string@DU?$char_traits@D@std@@V?$allocator@D@2@@std@@V12@@std@@@std@@@std@@U_Iterator_base0@2@@std@@QAE@PAU?$_Tree_node@U?$pair@$$CBV?$basic_string@DU?$char_traits@D@std@@V?$allocator@D@2@@std@@V12@@std@@PAX@1@PBV?$_Tree_val@U?$_Tree_simple_types@U?$pair@$$CBV?$basic_string@DU?$char_traits@D@std@@V?$allocator@D@2@@std@@V12@@std@@@std@@@1@@Z 100ddb60 f i KitParser.obj
 0002:0002eba0       ??0?$_Tree_unchecked_const_iterator@V?$_Tree_val@U?$_Tree_simple_types@U?$pair@$$CBV?$basic_string@DU?$char_traits@D@std@@V?$allocator@D@2@@std@@V12@@std@@@std@@@std@@U_Iterator_base0@2@@std@@QAE@XZ 100ddba0 f i KitParser.obj
 0002:0002ebd0       ??0?$_Tree_unchecked_const_iterator@V?$_Tree_val@U?$_Tree_simple_types@U?$pair@$$CBV?$basic_string@DU?$char_traits@D@std@@V?$allocator@D@2@@std@@V?$basic_json@Vmap@std@@Vvector@2@V?$basic_string@DU?$char_traits@D@std@@V?$allocator@D@2@@2@_N_J_KNVallocator@2@Uadl_serializer@nlohmann@@@nlohmann@@@std@@@std@@@std@@U_Iterator_base0@2@@std@@QAE@PAU?$_Tree_node@U?$pair@$$CBV?$basic_string@DU?$char_traits@D@std@@V?$allocator@D@2@@std@@V?$basic_json@Vmap@std@@Vvector@2@V?$basic_string@DU?$char_traits@D@std@@V?$allocator@D@2@@2@_N_J_KNVallocator@2@Uadl_serializer@nlohmann@@@nlohmann@@@std@@PAX@1@PBV?$_Tree_val@U?$_Tree_simple_types@U?$pair@$$CBV?$basic_string@DU?$char_traits@D@std@@V?$allocator@D@2@@std@@V?$basic_json@Vmap@std@@Vvector@2@V?$basic_string@DU?$char_traits@D@std@@V?$allocator@D@2@@2@_N_J_KNVallocator@2@Uadl_serializer@nlohmann@@@nlohmann@@@std@@@std@@@1@@Z 100ddbd0 f i KitParser.obj
 0002:0002ec10       ??0?$_Tree_unchecked_const_iterator@V?$_Tree_val@U?$_Tree_simple_types@U?$pair@$$CBV?$basic_string@DU?$char_traits@D@std@@V?$allocator@D@2@@std@@V?$basic_json@Vmap@std@@Vvector@2@V?$basic_string@DU?$char_traits@D@std@@V?$allocator@D@2@@2@_N_J_KNVallocator@2@Uadl_serializer@nlohmann@@@nlohmann@@@std@@@std@@@std@@U_Iterator_base0@2@@std@@QAE@XZ 100ddc10 f i KitParser.obj
 0002:0002ec40       ??0?$_Tree_val@U?$_Tree_simple_types@U?$pair@$$CBV?$basic_string@DU?$char_traits@D@std@@V?$allocator@D@2@@std@@V?$basic_json@Vmap@std@@Vvector@2@V?$basic_string@DU?$char_traits@D@std@@V?$allocator@D@2@@2@_N_J_KNVallocator@2@Uadl_serializer@nlohmann@@@nlohmann@@@std@@@std@@@std@@QAE@XZ 100ddc40 f i KitParser.obj
 0002:0002ec80       ??0?$_Vector_const_iterator@V?$_Vector_val@U?$_Simple_types@V?$basic_json@Vmap@std@@Vvector@2@V?$basic_string@DU?$char_traits@D@std@@V?$allocator@D@2@@2@_N_J_KNVallocator@2@Uadl_serializer@nlohmann@@@nlohmann@@@std@@@std@@@std@@QAE@PAV?$basic_json@Vmap@std@@Vvector@2@V?$basic_string@DU?$char_traits@D@std@@V?$allocator@D@2@@2@_N_J_KNVallocator@2@Uadl_serializer@nlohmann@@@nlohmann@@PBU_Container_base0@1@@Z 100ddc80 f i KitParser.obj
 0002:0002ecc0       ??0?$allocator@U?$_Tree_node@U?$pair@$$CBV?$basic_string@DU?$char_traits@D@std@@V?$allocator@D@2@@std@@V?$basic_json@Vmap@std@@Vvector@2@V?$basic_string@DU?$char_traits@D@std@@V?$allocator@D@2@@2@_N_J_KNVallocator@2@Uadl_serializer@nlohmann@@@nlohmann@@@std@@PAX@std@@@std@@QAE@XZ 100ddcc0 f i KitParser.obj
 0002:0002ece0       ??0?$allocator@V?$basic_string@DU?$char_traits@D@std@@V?$allocator@D@2@@std@@@std@@QAE@XZ 100ddce0 f i KitParser.obj
 0002:0002ed00       ??0?$allocator@V?$map@V?$basic_string@DU?$char_traits@D@std@@V?$allocator@D@2@@std@@V?$basic_json@Vmap@std@@Vvector@2@V?$basic_string@DU?$char_traits@D@std@@V?$allocator@D@2@@2@_N_J_KNVallocator@2@Uadl_serializer@nlohmann@@@nlohmann@@U?$less@V?$basic_string@DU?$char_traits@D@std@@V?$allocator@D@2@@std@@@2@V?$allocator@U?$pair@$$CBV?$basic_string@DU?$char_traits@D@std@@V?$allocator@D@2@@std@@V?$basic_json@Vmap@std@@Vvector@2@V?$basic_string@DU?$char_traits@D@std@@V?$allocator@D@2@@2@_N_J_KNVallocator@2@Uadl_serializer@nlohmann@@@nlohmann@@@std@@@2@@std@@@std@@QAE@XZ 100ddd00 f i KitParser.obj
 0002:0002ed20       ??0?$allocator@V?$vector@V?$basic_json@Vmap@std@@Vvector@2@V?$basic_string@DU?$char_traits@D@std@@V?$allocator@D@2@@2@_N_J_KNVallocator@2@Uadl_serializer@nlohmann@@@nlohmann@@V?$allocator@V?$basic_json@Vmap@std@@Vvector@2@V?$basic_string@DU?$char_traits@D@std@@V?$allocator@D@2@@2@_N_J_KNVallocator@2@Uadl_serializer@nlohmann@@@nlohmann@@@std@@@std@@@std@@QAE@XZ 100ddd20 f i KitParser.obj
 0002:0002ed40       ??0?$allocator@_W@std@@QAE@XZ 100ddd40 f i KitParser.obj
 0002:0002ed60       ??0?$basic_filebuf@DU?$char_traits@D@std@@@std@@QAE@PAU_iobuf@@@Z 100ddd60 f i KitParser.obj
 0002:0002edf0       ??0?$basic_ofstream@DU?$char_traits@D@std@@@std@@QAE@PBDHH@Z 100dddf0 f i KitParser.obj
 0002:0002ef40       ??0?$basic_string@DU?$char_traits@D@std@@V?$allocator@D@2@@std@@QAE@$$QAV01@@Z 100ddf40 f i KitParser.obj
 0002:0002efe0       ??0?$basic_string@DU?$char_traits@D@std@@V?$allocator@D@2@@std@@QAE@ABV01@@Z 100ddfe0 f i KitParser.obj
 0002:0002f080       ??0?$basic_string@DU?$char_traits@D@std@@V?$allocator@D@2@@std@@QAE@ID@Z 100de080 f i KitParser.obj
 0002:0002f110       ??0?$basic_string@DU?$char_traits@D@std@@V?$allocator@D@2@@std@@QAE@QBDI@Z 100de110 f i KitParser.obj
 0002:0002f1a0       ??0?$basic_string@DU?$char_traits@D@std@@V?$allocator@D@2@@std@@QAE@XZ 100de1a0 f i KitParser.obj
 0002:0002f210       ??0?$basic_string@_WU?$char_traits@_W@std@@V?$allocator@_W@2@@std@@QAE@XZ 100de210 f i KitParser.obj
 0002:0002f280       ??0?$basic_stringbuf@DU?$char_traits@D@std@@V?$allocator@D@2@@std@@QAE@H@Z 100de280 f i KitParser.obj
 0002:0002f330       ??0?$basic_stringstream@DU?$char_traits@D@std@@V?$allocator@D@2@@std@@QAE@H@Z 100de330 f i KitParser.obj
 0002:0002f440       ??0?$codecvt_utf8_utf16@_W$0BAPPPP@$0A@@std@@QAE@I@Z 100de440 f i KitParser.obj
 0002:0002f480       ??0?$fpos@U_Mbstatet@@@std@@QAE@U_Mbstatet@@_J@Z 100de480 f i KitParser.obj
 0002:0002f4e0       ??0?$fpos@U_Mbstatet@@@std@@QAE@_J@Z 100de4e0 f i KitParser.obj
 0002:0002f540       ??0?$output_adapter@D@detail@nlohmann@@QAE@AAV?$basic_ostream@DU?$char_traits@D@std@@@std@@@Z 100de540 f i KitParser.obj
 0002:0002f590       ??0?$output_adapter_protocol@D@detail@nlohmann@@QAE@XZ 100de590 f i KitParser.obj
 0002:0002f5c0       ??0?$output_stream_adapter@D@detail@nlohmann@@QAE@AAV?$basic_ostream@DU?$char_traits@D@std@@@std@@@Z 100de5c0 f i KitParser.obj
 0002:0002f600       ??0?$serializer@V?$basic_json@Vmap@std@@Vvector@2@V?$basic_string@DU?$char_traits@D@std@@V?$allocator@D@2@@2@_N_J_KNVallocator@2@Uadl_serializer@nlohmann@@@nlohmann@@@detail@nlohmann@@QAE@V?$shared_ptr@U?$output_adapter_protocol@D@detail@nlohmann@@@std@@D@Z 100de600 f i KitParser.obj
 0002:0002f770       ??0?$shared_ptr@U?$output_adapter_protocol@D@detail@nlohmann@@@std@@QAE@$$QAV01@@Z 100de770 f i KitParser.obj
 0002:0002f7f0       ??0?$shared_ptr@U?$output_adapter_protocol@D@detail@nlohmann@@@std@@QAE@ABV01@@Z 100de7f0 f i KitParser.obj
 0002:0002f860       ??0?$shared_ptr@V?$output_stream_adapter@D@detail@nlohmann@@@std@@QAE@$$QAV01@@Z 100de860 f i KitParser.obj
 0002:0002f8e0       ??0?$shared_ptr@V?$output_stream_adapter@D@detail@nlohmann@@@std@@QAE@XZ 100de8e0 f i KitParser.obj
 0002:0002f910       ??0?$tuple@$$V@std@@QAE@XZ 100de910 f i KitParser.obj
 0002:0002f930       ??0?$wstring_convert@V?$codecvt_utf8_utf16@_W$0BAPPPP@$0A@@std@@_WV?$allocator@_W@2@V?$allocator@D@2@@std@@QAE@XZ 100de930 f i KitParser.obj
 0002:0002fa40       ??0_Bxty@?$_String_val@U?$_Simple_types@_W@std@@@std@@QAE@XZ 100dea40 f i KitParser.obj
 0002:0002fa60       ??0_Ref_count_base@std@@IAE@XZ 100dea60 f i KitParser.obj
 0002:0002faa0       ??0bad_cast@std@@QAE@ABV01@@Z 100deaa0 f i KitParser.obj
 0002:0002fae0       ??0bad_cast@std@@QAE@XZ    100deae0 f i KitParser.obj
 0002:0002fb20       ??0diyfp@dtoa_impl@detail@nlohmann@@QAE@_KH@Z 100deb20 f i KitParser.obj
 0002:0002fb60       ??0exception@detail@nlohmann@@IAE@HPBD@Z 100deb60 f i KitParser.obj
 0002:0002fc00       ??0exception@detail@nlohmann@@QAE@ABV012@@Z 100dec00 f i KitParser.obj
 0002:0002fc60       ??0exception@std@@QAE@ABV01@@Z 100dec60 f i KitParser.obj
 0002:0002fcc0       ??0exception@std@@QAE@QBD@Z 100decc0 f i KitParser.obj
 0002:0002fd40       ??0exception@std@@QAE@QBDH@Z 100ded40 f i KitParser.obj
 0002:0002fd90       ??0exception@std@@QAE@XZ   100ded90 f i KitParser.obj
 0002:0002fdd0       ??0jkjunwr@@QAE@XZ         100dedd0 f   KitParser.obj
 0002:000306e0       ??0json_value@?$basic_json@Vmap@std@@Vvector@2@V?$basic_string@DU?$char_traits@D@std@@V?$allocator@D@2@@2@_N_J_KNVallocator@2@Uadl_serializer@nlohmann@@@nlohmann@@QAE@ABV?$basic_string@DU?$char_traits@D@std@@V?$allocator@D@2@@std@@@Z 100df6e0 f i KitParser.obj
 0002:00030720       ??0locale@std@@QAE@XZ      100df720 f i KitParser.obj
 0002:00030790       ??0naxefsj@@QAE@XZ         100df790 f   KitParser.obj
 0002:00030e40       ??0range_error@std@@QAE@ABV01@@Z 100dfe40 f i KitParser.obj
 0002:00030e80       ??0range_error@std@@QAE@PBD@Z 100dfe80 f i KitParser.obj
 0002:00030ec0       ??0runtime_error@std@@QAE@ABV01@@Z 100dfec0 f i KitParser.obj
 0002:00030f00       ??0runtime_error@std@@QAE@PBD@Z 100dff00 f i KitParser.obj
 0002:00030f40       ??0trfivjo@@QAE@XZ         100dff40 f   KitParser.obj
 0002:00031760       ??0type_error@detail@nlohmann@@AAE@HPBD@Z 100e0760 f i KitParser.obj
 0002:000317a0       ??0type_error@detail@nlohmann@@QAE@ABV012@@Z 100e07a0 f i KitParser.obj
 0002:000317e0       ??1?$_Compressed_pair@V?$allocator@_W@std@@V?$_String_val@U?$_Simple_types@_W@std@@@2@$00@std@@QAE@XZ 100e07e0 f i KitParser.obj
 0002:00031810       ??1?$_Ref_count_obj@V?$output_stream_adapter@D@detail@nlohmann@@@std@@UAE@XZ 100e0810 f i KitParser.obj
 0002:00031840       ??1?$_String_alloc@U?$_String_base_types@_WV?$allocator@_W@std@@@std@@@std@@QAE@XZ 100e0840 f i KitParser.obj
 0002:00031870       ??1?$_String_val@U?$_Simple_types@_W@std@@@std@@QAE@XZ 100e0870 f i KitParser.obj
 0002:000318a0       ??1?$_Tree@V?$_Tmap_traits@V?$basic_string@DU?$char_traits@D@std@@V?$allocator@D@2@@std@@V?$basic_json@Vmap@std@@Vvector@2@V?$basic_string@DU?$char_traits@D@std@@V?$allocator@D@2@@2@_N_J_KNVallocator@2@Uadl_serializer@nlohmann@@@nlohmann@@U?$less@V?$basic_string@DU?$char_traits@D@std@@V?$allocator@D@2@@std@@@2@V?$allocator@U?$pair@$$CBV?$basic_string@DU?$char_traits@D@std@@V?$allocator@D@2@@std@@V?$basic_json@Vmap@std@@Vvector@2@V?$basic_string@DU?$char_traits@D@std@@V?$allocator@D@2@@2@_N_J_KNVallocator@2@Uadl_serializer@nlohmann@@@nlohmann@@@std@@@2@$0A@@std@@@std@@QAE@XZ 100e08a0 f i KitParser.obj
 0002:00031900       ??1?$_Tree_comp_alloc@V?$_Tmap_traits@V?$basic_string@DU?$char_traits@D@std@@V?$allocator@D@2@@std@@V?$basic_json@Vmap@std@@Vvector@2@V?$basic_string@DU?$char_traits@D@std@@V?$allocator@D@2@@2@_N_J_KNVallocator@2@Uadl_serializer@nlohmann@@@nlohmann@@U?$less@V?$basic_string@DU?$char_traits@D@std@@V?$allocator@D@2@@std@@@2@V?$allocator@U?$pair@$$CBV?$basic_string@DU?$char_traits@D@std@@V?$allocator@D@2@@std@@V?$basic_json@Vmap@std@@Vvector@2@V?$basic_string@DU?$char_traits@D@std@@V?$allocator@D@2@@2@_N_J_KNVallocator@2@Uadl_serializer@nlohmann@@@nlohmann@@@std@@@2@$0A@@std@@@std@@QAE@XZ 100e0900 f i KitParser.obj
 0002:00031970       ??1?$basic_filebuf@DU?$char_traits@D@std@@@std@@UAE@XZ 100e0970 f i KitParser.obj
 0002:00031a00       ??1?$basic_json@Vmap@std@@Vvector@2@V?$basic_string@DU?$char_traits@D@std@@V?$allocator@D@2@@2@_N_J_KNVallocator@2@Uadl_serializer@nlohmann@@@nlohmann@@QAE@XZ 100e0a00 f i KitParser.obj
 0002:00031a40       ??1?$basic_ofstream@DU?$char_traits@D@std@@@std@@UAE@XZ 100e0a40 f i KitParser.obj
 0002:00031ab0       ??1?$basic_string@_WU?$char_traits@_W@std@@V?$allocator@_W@2@@std@@QAE@XZ 100e0ab0 f i KitParser.obj
 0002:00031b10       ??1?$basic_stringbuf@DU?$char_traits@D@std@@V?$allocator@D@2@@std@@UAE@XZ 100e0b10 f i KitParser.obj
 0002:00031b80       ??1?$basic_stringstream@DU?$char_traits@D@std@@V?$allocator@D@2@@std@@UAE@XZ 100e0b80 f i KitParser.obj
 0002:00031bf0       ??1?$codecvt_utf8_utf16@_W$0BAPPPP@$0A@@std@@UAE@XZ 100e0bf0 f i KitParser.obj
 0002:00031c20       ??1?$map@V?$basic_string@DU?$char_traits@D@std@@V?$allocator@D@2@@std@@V?$basic_json@Vmap@std@@Vvector@2@V?$basic_string@DU?$char_traits@D@std@@V?$allocator@D@2@@2@_N_J_KNVallocator@2@Uadl_serializer@nlohmann@@@nlohmann@@U?$less@V?$basic_string@DU?$char_traits@D@std@@V?$allocator@D@2@@std@@@2@V?$allocator@U?$pair@$$CBV?$basic_string@DU?$char_traits@D@std@@V?$allocator@D@2@@std@@V?$basic_json@Vmap@std@@Vvector@2@V?$basic_string@DU?$char_traits@D@std@@V?$allocator@D@2@@2@_N_J_KNVallocator@2@Uadl_serializer@nlohmann@@@nlohmann@@@std@@@2@@std@@QAE@XZ 100e0c20 f i KitParser.obj
 0002:00031c50       ??1?$output_adapter@D@detail@nlohmann@@QAE@XZ 100e0c50 f i KitParser.obj
 0002:00031c80       ??1?$output_adapter_protocol@D@detail@nlohmann@@UAE@XZ 100e0c80 f i KitParser.obj
 0002:00031ca0       ??1?$output_stream_adapter@D@detail@nlohmann@@UAE@XZ 100e0ca0 f i KitParser.obj
 0002:00031cd0       ??1?$pair@$$CBV?$basic_string@DU?$char_traits@D@std@@V?$allocator@D@2@@std@@V12@@std@@QAE@XZ 100e0cd0 f i KitParser.obj
 0002:00031d00       ??1?$pair@$$CBV?$basic_string@DU?$char_traits@D@std@@V?$allocator@D@2@@std@@V?$basic_json@Vmap@std@@Vvector@2@V?$basic_string@DU?$char_traits@D@std@@V?$allocator@D@2@@2@_N_J_KNVallocator@2@Uadl_serializer@nlohmann@@@nlohmann@@@std@@QAE@XZ 100e0d00 f i KitParser.obj
 0002:00031d30       ??1?$serializer@V?$basic_json@Vmap@std@@Vvector@2@V?$basic_string@DU?$char_traits@D@std@@V?$allocator@D@2@@2@_N_J_KNVallocator@2@Uadl_serializer@nlohmann@@@nlohmann@@@detail@nlohmann@@QAE@XZ 100e0d30 f i KitParser.obj
 0002:00031d70       ??1?$shared_ptr@U?$output_adapter_protocol@D@detail@nlohmann@@@std@@QAE@XZ 100e0d70 f i KitParser.obj
 0002:00031dd0       ??1?$shared_ptr@V?$output_stream_adapter@D@detail@nlohmann@@@std@@QAE@XZ 100e0dd0 f i KitParser.obj
 0002:00031f30       ??1?$vector@V?$basic_json@Vmap@std@@Vvector@2@V?$basic_string@DU?$char_traits@D@std@@V?$allocator@D@2@@2@_N_J_KNVallocator@2@Uadl_serializer@nlohmann@@@nlohmann@@V?$allocator@V?$basic_json@Vmap@std@@Vvector@2@V?$basic_string@DU?$char_traits@D@std@@V?$allocator@D@2@@2@_N_J_KNVallocator@2@Uadl_serializer@nlohmann@@@nlohmann@@@std@@@std@@QAE@XZ 100e0f30 f i KitParser.obj
 0002:00031f90       ??1?$wstring_convert@V?$codecvt_utf8_utf16@_W$0BAPPPP@$0A@@std@@_WV?$allocator@_W@2@V?$allocator@D@2@@std@@UAE@XZ 100e0f90 f i KitParser.obj
 0002:00031fe0       ??1_Bxty@?$_String_val@U?$_Simple_types@_W@std@@@std@@QAE@XZ 100e0fe0 f i KitParser.obj
 0002:00032000       ??1_Ref_count_base@std@@UAE@XZ 100e1000 f i KitParser.obj
 0002:00032030       ??1bad_cast@std@@UAE@XZ    100e1030 f i KitParser.obj
 0002:00032060       ??1exception@detail@nlohmann@@UAE@XZ 100e1060 f i KitParser.obj
 0002:00032090       ??1exception@std@@UAE@XZ   100e1090 f i KitParser.obj
 0002:000320d0       ??1locale@std@@QAE@XZ      100e10d0 f i KitParser.obj
 0002:00032180       ??1range_error@std@@UAE@XZ 100e1180 f i KitParser.obj
 0002:000321b0       ??1runtime_error@std@@UAE@XZ 100e11b0 f i KitParser.obj
 0002:000321e0       ??1type_error@detail@nlohmann@@UAE@XZ 100e11e0 f i KitParser.obj
 0002:00032210       ??3@YAXPAX0@Z              100e1210 f i KitParser.obj
 0002:00032230       ??4?$basic_string@DU?$char_traits@D@std@@V?$allocator@D@2@@std@@QAEAAV01@ABV01@@Z 100e1230 f i KitParser.obj
 0002:000322c0       ??4locale@std@@QAEAAV01@ABV01@@Z 100e12c0 f i KitParser.obj
 0002:000323a0       ??6nlohmann@@YAAAV?$basic_ostream@DU?$char_traits@D@std@@@std@@AAV12@ABV?$basic_json@Vmap@std@@Vvector@2@V?$basic_string@DU?$char_traits@D@std@@V?$allocator@D@2@@2@_N_J_KNVallocator@2@Uadl_serializer@nlohmann@@@0@@Z 100e13a0 f i KitParser.obj
 0002:000325d0       ??8?$_Tree_const_iterator@V?$_Tree_val@U?$_Tree_simple_types@U?$pair@$$CBV?$basic_string@DU?$char_traits@D@std@@V?$allocator@D@2@@std@@V12@@std@@@std@@@std@@@std@@QBE_NABV01@@Z 100e15d0 f i KitParser.obj
 0002:00032620       ??8?$_Tree_const_iterator@V?$_Tree_val@U?$_Tree_simple_types@U?$pair@$$CBV?$basic_string@DU?$char_traits@D@std@@V?$allocator@D@2@@std@@V?$basic_json@Vmap@std@@Vvector@2@V?$basic_string@DU?$char_traits@D@std@@V?$allocator@D@2@@2@_N_J_KNVallocator@2@Uadl_serializer@nlohmann@@@nlohmann@@@std@@@std@@@std@@@std@@QBE_NABV01@@Z 100e1620 f i KitParser.obj
 0002:00032670       ??8?$_Vector_const_iterator@V?$_Vector_val@U?$_Simple_types@V?$basic_json@Vmap@std@@Vvector@2@V?$basic_string@DU?$char_traits@D@std@@V?$allocator@D@2@@2@_N_J_KNVallocator@2@Uadl_serializer@nlohmann@@@nlohmann@@@std@@@std@@@std@@QBE_NABV01@@Z 100e1670 f i KitParser.obj
 0002:000326c0       ??9?$_Tree_const_iterator@V?$_Tree_val@U?$_Tree_simple_types@U?$pair@$$CBV?$basic_string@DU?$char_traits@D@std@@V?$allocator@D@2@@std@@V12@@std@@@std@@@std@@@std@@QBE_NABV01@@Z 100e16c0 f i KitParser.obj
 0002:00032710       ??9?$_Tree_const_iterator@V?$_Tree_val@U?$_Tree_simple_types@U?$pair@$$CBV?$basic_string@DU?$char_traits@D@std@@V?$allocator@D@2@@std@@V?$basic_json@Vmap@std@@Vvector@2@V?$basic_string@DU?$char_traits@D@std@@V?$allocator@D@2@@2@_N_J_KNVallocator@2@Uadl_serializer@nlohmann@@@nlohmann@@@std@@@std@@@std@@@std@@QBE_NABV01@@Z 100e1710 f i KitParser.obj
 0002:00032760       ??9?$_Vector_const_iterator@V?$_Vector_val@U?$_Simple_types@V?$basic_json@Vmap@std@@Vvector@2@V?$basic_string@DU?$char_traits@D@std@@V?$allocator@D@2@@2@_N_J_KNVallocator@2@Uadl_serializer@nlohmann@@@nlohmann@@@std@@@std@@@std@@QBE_NABV01@@Z 100e1760 f i KitParser.obj
 0002:000327b0       ??A?$array@D$0CAA@@std@@QAEAADI@Z 100e17b0 f i KitParser.obj
 0002:000327e0       ??A?$array@D$0EA@@std@@QAEAADI@Z 100e17e0 f i KitParser.obj
 0002:00032810       ??A?$array@E$0BJA@@std@@QBEABEI@Z 100e1810 f i KitParser.obj
 0002:00032840       ??A?$basic_string@DU?$char_traits@D@std@@V?$allocator@D@2@@std@@QBEABDI@Z 100e1840 f i KitParser.obj
 0002:00032880       ??A?$map@V?$basic_string@DU?$char_traits@D@std@@V?$allocator@D@2@@std@@V12@U?$less@V?$basic_string@DU?$char_traits@D@std@@V?$allocator@D@2@@std@@@2@V?$allocator@U?$pair@$$CBV?$basic_string@DU?$char_traits@D@std@@V?$allocator@D@2@@std@@V12@@std@@@2@@std@@QAEAAV?$basic_string@DU?$char_traits@D@std@@V?$allocator@D@2@@1@$$QAV21@@Z 100e1880 f i KitParser.obj
 0002:000328d0       ??B?$fpos@U_Mbstatet@@@std@@QBE_JXZ 100e18d0 f i KitParser.obj
 0002:00032910       ??B?$output_adapter@D@detail@nlohmann@@QAE?AV?$shared_ptr@U?$output_adapter_protocol@D@detail@nlohmann@@@std@@XZ 100e1910 f i KitParser.obj
 0002:000329e0       ??C?$_Tree_const_iterator@V?$_Tree_val@U?$_Tree_simple_types@U?$pair@$$CBV?$basic_string@DU?$char_traits@D@std@@V?$allocator@D@2@@std@@V?$basic_json@Vmap@std@@Vvector@2@V?$basic_string@DU?$char_traits@D@std@@V?$allocator@D@2@@2@_N_J_KNVallocator@2@Uadl_serializer@nlohmann@@@nlohmann@@@std@@@std@@@std@@@std@@QBEPBU?$pair@$$CBV?$basic_string@DU?$char_traits@D@std@@V?$allocator@D@2@@std@@V?$basic_json@Vmap@std@@Vvector@2@V?$basic_string@DU?$char_traits@D@std@@V?$allocator@D@2@@2@_N_J_KNVallocator@2@Uadl_serializer@nlohmann@@@nlohmann@@@1@XZ 100e19e0 f i KitParser.obj
 0002:00032a10       ??C?$_Tree_iterator@V?$_Tree_val@U?$_Tree_simple_types@U?$pair@$$CBV?$basic_string@DU?$char_traits@D@std@@V?$allocator@D@2@@std@@V12@@std@@@std@@@std@@@std@@QBEPAU?$pair@$$CBV?$basic_string@DU?$char_traits@D@std@@V?$allocator@D@2@@std@@V12@@1@XZ 100e1a10 f i KitParser.obj
 0002:00032a40       ??D?$_String_const_iterator@V?$_String_val@U?$_Simple_types@D@std@@@std@@@std@@QBEABDXZ 100e1a40 f i KitParser.obj
 0002:00032a60       ??D?$_String_iterator@V?$_String_val@U?$_Simple_types@D@std@@@std@@@std@@QBEAADXZ 100e1a60 f i KitParser.obj
 0002:00032a90       ??D?$_Tree_const_iterator@V?$_Tree_val@U?$_Tree_simple_types@U?$pair@$$CBV?$basic_string@DU?$char_traits@D@std@@V?$allocator@D@2@@std@@V12@@std@@@std@@@std@@@std@@QBEABU?$pair@$$CBV?$basic_string@DU?$char_traits@D@std@@V?$allocator@D@2@@std@@V12@@1@XZ 100e1a90 f i KitParser.obj
 0002:00032ac0       ??D?$_Tree_const_iterator@V?$_Tree_val@U?$_Tree_simple_types@U?$pair@$$CBV?$basic_string@DU?$char_traits@D@std@@V?$allocator@D@2@@std@@V?$basic_json@Vmap@std@@Vvector@2@V?$basic_string@DU?$char_traits@D@std@@V?$allocator@D@2@@2@_N_J_KNVallocator@2@Uadl_serializer@nlohmann@@@nlohmann@@@std@@@std@@@std@@@std@@QBEABU?$pair@$$CBV?$basic_string@DU?$char_traits@D@std@@V?$allocator@D@2@@std@@V?$basic_json@Vmap@std@@Vvector@2@V?$basic_string@DU?$char_traits@D@std@@V?$allocator@D@2@@2@_N_J_KNVallocator@2@Uadl_serializer@nlohmann@@@nlohmann@@@1@XZ 100e1ac0 f i KitParser.obj
 0002:00032af0       ??D?$_Tree_iterator@V?$_Tree_val@U?$_Tree_simple_types@U?$pair@$$CBV?$basic_string@DU?$char_traits@D@std@@V?$allocator@D@2@@std@@V12@@std@@@std@@@std@@@std@@QBEAAU?$pair@$$CBV?$basic_string@DU?$char_traits@D@std@@V?$allocator@D@2@@std@@V12@@1@XZ 100e1af0 f i KitParser.obj
 0002:00032b20       ??D?$_Vector_const_iterator@V?$_Vector_val@U?$_Simple_types@V?$basic_json@Vmap@std@@Vvector@2@V?$basic_string@DU?$char_traits@D@std@@V?$allocator@D@2@@2@_N_J_KNVallocator@2@Uadl_serializer@nlohmann@@@nlohmann@@@std@@@std@@@std@@QBEABV?$basic_json@Vmap@std@@Vvector@2@V?$basic_string@DU?$char_traits@D@std@@V?$allocator@D@2@@2@_N_J_KNVallocator@2@Uadl_serializer@nlohmann@@@nlohmann@@XZ 100e1b20 f i KitParser.obj
 0002:00032b40       ??E?$_Tree_const_iterator@V?$_Tree_val@U?$_Tree_simple_types@U?$pair@$$CBV?$basic_string@DU?$char_traits@D@std@@V?$allocator@D@2@@std@@V12@@std@@@std@@@std@@@std@@QAEAAV01@XZ 100e1b40 f i KitParser.obj
 0002:00032b70       ??E?$_Tree_const_iterator@V?$_Tree_val@U?$_Tree_simple_types@U?$pair@$$CBV?$basic_string@DU?$char_traits@D@std@@V?$allocator@D@2@@std@@V?$basic_json@Vmap@std@@Vvector@2@V?$basic_string@DU?$char_traits@D@std@@V?$allocator@D@2@@2@_N_J_KNVallocator@2@Uadl_serializer@nlohmann@@@nlohmann@@@std@@@std@@@std@@@std@@QAE?AV01@H@Z 100e1b70 f i KitParser.obj
 0002:00032be0       ??E?$_Tree_const_iterator@V?$_Tree_val@U?$_Tree_simple_types@U?$pair@$$CBV?$basic_string@DU?$char_traits@D@std@@V?$allocator@D@2@@std@@V?$basic_json@Vmap@std@@Vvector@2@V?$basic_string@DU?$char_traits@D@std@@V?$allocator@D@2@@2@_N_J_KNVallocator@2@Uadl_serializer@nlohmann@@@nlohmann@@@std@@@std@@@std@@@std@@QAEAAV01@XZ 100e1be0 f i KitParser.obj
 0002:00032c10       ??E?$_Tree_unchecked_const_iterator@V?$_Tree_val@U?$_Tree_simple_types@U?$pair@$$CBV?$basic_string@DU?$char_traits@D@std@@V?$allocator@D@2@@std@@V12@@std@@@std@@@std@@U_Iterator_base0@2@@std@@QAEAAV01@XZ 100e1c10 f i KitParser.obj
 0002:00032cc0       ??E?$_Tree_unchecked_const_iterator@V?$_Tree_val@U?$_Tree_simple_types@U?$pair@$$CBV?$basic_string@DU?$char_traits@D@std@@V?$allocator@D@2@@std@@V?$basic_json@Vmap@std@@Vvector@2@V?$basic_string@DU?$char_traits@D@std@@V?$allocator@D@2@@2@_N_J_KNVallocator@2@Uadl_serializer@nlohmann@@@nlohmann@@@std@@@std@@@std@@U_Iterator_base0@2@@std@@QAEAAV01@XZ 100e1cc0 f i KitParser.obj
 0002:00032d70       ??E?$_Vector_const_iterator@V?$_Vector_val@U?$_Simple_types@V?$basic_json@Vmap@std@@Vvector@2@V?$basic_string@DU?$char_traits@D@std@@V?$allocator@D@2@@2@_N_J_KNVallocator@2@Uadl_serializer@nlohmann@@@nlohmann@@@std@@@std@@@std@@QAEAAV01@XZ 100e1d70 f i KitParser.obj
 0002:00032da0       ??F?$_Tree_const_iterator@V?$_Tree_val@U?$_Tree_simple_types@U?$pair@$$CBV?$basic_string@DU?$char_traits@D@std@@V?$allocator@D@2@@std@@V12@@std@@@std@@@std@@@std@@QAEAAV01@XZ 100e1da0 f i KitParser.obj
 0002:00032dd0       ??F?$_Tree_const_iterator@V?$_Tree_val@U?$_Tree_simple_types@U?$pair@$$CBV?$basic_string@DU?$char_traits@D@std@@V?$allocator@D@2@@std@@V?$basic_json@Vmap@std@@Vvector@2@V?$basic_string@DU?$char_traits@D@std@@V?$allocator@D@2@@2@_N_J_KNVallocator@2@Uadl_serializer@nlohmann@@@nlohmann@@@std@@@std@@@std@@@std@@QAEAAV01@XZ 100e1dd0 f i KitParser.obj
 0002:00032e00       ??F?$_Tree_iterator@V?$_Tree_val@U?$_Tree_simple_types@U?$pair@$$CBV?$basic_string@DU?$char_traits@D@std@@V?$allocator@D@2@@std@@V12@@std@@@std@@@std@@@std@@QAEAAV01@XZ 100e1e00 f i KitParser.obj
 0002:00032e30       ??F?$_Tree_iterator@V?$_Tree_val@U?$_Tree_simple_types@U?$pair@$$CBV?$basic_string@DU?$char_traits@D@std@@V?$allocator@D@2@@std@@V?$basic_json@Vmap@std@@Vvector@2@V?$basic_string@DU?$char_traits@D@std@@V?$allocator@D@2@@2@_N_J_KNVallocator@2@Uadl_serializer@nlohmann@@@nlohmann@@@std@@@std@@@std@@@std@@QAEAAV01@XZ 100e1e30 f i KitParser.obj
 0002:00032e60       ??F?$_Tree_unchecked_const_iterator@V?$_Tree_val@U?$_Tree_simple_types@U?$pair@$$CBV?$basic_string@DU?$char_traits@D@std@@V?$allocator@D@2@@std@@V12@@std@@@std@@@std@@U_Iterator_base0@2@@std@@QAEAAV01@XZ 100e1e60 f i KitParser.obj
 0002:00032f30       ??F?$_Tree_unchecked_const_iterator@V?$_Tree_val@U?$_Tree_simple_types@U?$pair@$$CBV?$basic_string@DU?$char_traits@D@std@@V?$allocator@D@2@@std@@V?$basic_json@Vmap@std@@Vvector@2@V?$basic_string@DU?$char_traits@D@std@@V?$allocator@D@2@@2@_N_J_KNVallocator@2@Uadl_serializer@nlohmann@@@nlohmann@@@std@@@std@@@std@@U_Iterator_base0@2@@std@@QAEAAV01@XZ 100e1f30 f i KitParser.obj
 0002:00033000       ??G?$_String_const_iterator@V?$_String_val@U?$_Simple_types@D@std@@@std@@@std@@QBE?AV01@H@Z 100e2000 f i KitParser.obj
 0002:00033070       ??G?$_Vector_const_iterator@V?$_Vector_val@U?$_Simple_types@V?$basic_json@Vmap@std@@Vvector@2@V?$basic_string@DU?$char_traits@D@std@@V?$allocator@D@2@@2@_N_J_KNVallocator@2@Uadl_serializer@nlohmann@@@nlohmann@@@std@@@std@@@std@@QBE?AV01@H@Z 100e2070 f i KitParser.obj
 0002:000330e0       ??H?$_Array_iterator@D$0EA@@std@@QBE?AV01@H@Z 100e20e0 f i KitParser.obj
 0002:00033430       ??R?$less@V?$basic_string@DU?$char_traits@D@std@@V?$allocator@D@2@@std@@@std@@QBE_NABV?$basic_string@DU?$char_traits@D@std@@V?$allocator@D@2@@1@0@Z 100e2430 f i KitParser.obj
 0002:00033460       ??Y?$_Array_const_iterator@D$0EA@@std@@QAEAAV01@H@Z 100e2460 f i KitParser.obj
 0002:00033490       ??Y?$_Array_iterator@D$0EA@@std@@QAEAAV01@H@Z 100e2490 f i KitParser.obj
 0002:000334c0       ??Y?$_String_const_iterator@V?$_String_val@U?$_Simple_types@D@std@@@std@@@std@@QAEAAV01@H@Z 100e24c0 f i KitParser.obj
 0002:000334f0       ??Y?$_Vector_const_iterator@V?$_Vector_val@U?$_Simple_types@V?$basic_json@Vmap@std@@Vvector@2@V?$basic_string@DU?$char_traits@D@std@@V?$allocator@D@2@@2@_N_J_KNVallocator@2@Uadl_serializer@nlohmann@@@nlohmann@@@std@@@std@@@std@@QAEAAV01@H@Z 100e24f0 f i KitParser.obj
 0002:00033530       ??Y?$basic_string@DU?$char_traits@D@std@@V?$allocator@D@2@@std@@QAEAAV01@ABV01@@Z 100e2530 f i KitParser.obj
 0002:00033560       ??Y?$basic_string@DU?$char_traits@D@std@@V?$allocator@D@2@@std@@QAEAAV01@QBD@Z 100e2560 f i KitParser.obj
 0002:00033590       ??Z?$_String_const_iterator@V?$_String_val@U?$_Simple_types@D@std@@@std@@@std@@QAEAAV01@H@Z 100e2590 f i KitParser.obj
 0002:000335c0       ??Z?$_Vector_const_iterator@V?$_Vector_val@U?$_Simple_types@V?$basic_json@Vmap@std@@Vvector@2@V?$basic_string@DU?$char_traits@D@std@@V?$allocator@D@2@@2@_N_J_KNVallocator@2@Uadl_serializer@nlohmann@@@nlohmann@@@std@@@std@@@std@@QAEAAV01@H@Z 100e25c0 f i KitParser.obj
 0002:000335f0       ??_D?$basic_ofstream@DU?$char_traits@D@std@@@std@@QAEXXZ 100e25f0 f i KitParser.obj
 0002:00033630       ??_D?$basic_stringstream@DU?$char_traits@D@std@@V?$allocator@D@2@@std@@QAEXXZ 100e2630 f i KitParser.obj
 0002:00033664       ??_E?$basic_ofstream@DU?$char_traits@D@std@@@std@@$4PPPPPPPM@A@AEPAXI@Z 100e2664 f i KitParser.obj
 0002:0003366e       ??_E?$basic_stringstream@DU?$char_traits@D@std@@V?$allocator@D@2@@std@@$4PPPPPPPM@A@AEPAXI@Z 100e266e f i KitParser.obj
 0002:00033680       ??_G?$_Ref_count_obj@V?$output_stream_adapter@D@detail@nlohmann@@@std@@UAEPAXI@Z 100e2680 f i KitParser.obj
 0002:00033680       ??_E?$_Ref_count_obj@V?$output_stream_adapter@D@detail@nlohmann@@@std@@UAEPAXI@Z 100e2680 f i KitParser.obj
 0002:000336d0       ??_G?$basic_filebuf@DU?$char_traits@D@std@@@std@@UAEPAXI@Z 100e26d0 f i KitParser.obj
 0002:000336d0       ??_E?$basic_filebuf@DU?$char_traits@D@std@@@std@@UAEPAXI@Z 100e26d0 f i KitParser.obj
 0002:00033720       ??_G?$basic_json@Vmap@std@@Vvector@2@V?$basic_string@DU?$char_traits@D@std@@V?$allocator@D@2@@2@_N_J_KNVallocator@2@Uadl_serializer@nlohmann@@@nlohmann@@QAEPAXI@Z 100e2720 f i KitParser.obj
 0002:00033770       ??_G?$basic_ofstream@DU?$char_traits@D@std@@@std@@UAEPAXI@Z 100e2770 f i KitParser.obj
 0002:00033770       ??_E?$basic_ofstream@DU?$char_traits@D@std@@@std@@UAEPAXI@Z 100e2770 f i KitParser.obj
 0002:000337d0       ??_G?$basic_string@DU?$char_traits@D@std@@V?$allocator@D@2@@std@@QAEPAXI@Z 100e27d0 f i KitParser.obj
 0002:00033820       ??_G?$basic_stringbuf@DU?$char_traits@D@std@@V?$allocator@D@2@@std@@UAEPAXI@Z 100e2820 f i KitParser.obj
 0002:00033820       ??_E?$basic_stringbuf@DU?$char_traits@D@std@@V?$allocator@D@2@@std@@UAEPAXI@Z 100e2820 f i KitParser.obj
 0002:00033870       ??_E?$basic_stringstream@DU?$char_traits@D@std@@V?$allocator@D@2@@std@@UAEPAXI@Z 100e2870 f i KitParser.obj
 0002:00033870       ??_G?$basic_stringstream@DU?$char_traits@D@std@@V?$allocator@D@2@@std@@UAEPAXI@Z 100e2870 f i KitParser.obj
 0002:000338d0       ??_E?$codecvt_utf8_utf16@_W$0BAPPPP@$0A@@std@@UAEPAXI@Z 100e28d0 f i KitParser.obj
 0002:000338d0       ??_G?$codecvt_utf8_utf16@_W$0BAPPPP@$0A@@std@@UAEPAXI@Z 100e28d0 f i KitParser.obj
 0002:00033920       ??_G?$map@V?$basic_string@DU?$char_traits@D@std@@V?$allocator@D@2@@std@@V?$basic_json@Vmap@std@@Vvector@2@V?$basic_string@DU?$char_traits@D@std@@V?$allocator@D@2@@2@_N_J_KNVallocator@2@Uadl_serializer@nlohmann@@@nlohmann@@U?$less@V?$basic_string@DU?$char_traits@D@std@@V?$allocator@D@2@@std@@@2@V?$allocator@U?$pair@$$CBV?$basic_string@DU?$char_traits@D@std@@V?$allocator@D@2@@std@@V?$basic_json@Vmap@std@@Vvector@2@V?$basic_string@DU?$char_traits@D@std@@V?$allocator@D@2@@2@_N_J_KNVallocator@2@Uadl_serializer@nlohmann@@@nlohmann@@@std@@@2@@std@@QAEPAXI@Z 100e2920 f i KitParser.obj
 0002:00033970       ??_E?$output_adapter_protocol@D@detail@nlohmann@@UAEPAXI@Z 100e2970 f i KitParser.obj
 0002:00033970       ??_G?$output_adapter_protocol@D@detail@nlohmann@@UAEPAXI@Z 100e2970 f i KitParser.obj
 0002:000339c0       ??_G?$output_stream_adapter@D@detail@nlohmann@@UAEPAXI@Z 100e29c0 f i KitParser.obj
 0002:000339c0       ??_E?$output_stream_adapter@D@detail@nlohmann@@UAEPAXI@Z 100e29c0 f i KitParser.obj
 0002:00033a10       ??_G?$pair@$$CBV?$basic_string@DU?$char_traits@D@std@@V?$allocator@D@2@@std@@V12@@std@@QAEPAXI@Z 100e2a10 f i KitParser.obj
 0002:00033a60       ??_G?$pair@$$CBV?$basic_string@DU?$char_traits@D@std@@V?$allocator@D@2@@std@@V?$basic_json@Vmap@std@@Vvector@2@V?$basic_string@DU?$char_traits@D@std@@V?$allocator@D@2@@2@_N_J_KNVallocator@2@Uadl_serializer@nlohmann@@@nlohmann@@@std@@QAEPAXI@Z 100e2a60 f i KitParser.obj
 0002:00033ab0       ??_G?$vector@V?$basic_json@Vmap@std@@Vvector@2@V?$basic_string@DU?$char_traits@D@std@@V?$allocator@D@2@@2@_N_J_KNVallocator@2@Uadl_serializer@nlohmann@@@nlohmann@@V?$allocator@V?$basic_json@Vmap@std@@Vvector@2@V?$basic_string@DU?$char_traits@D@std@@V?$allocator@D@2@@2@_N_J_KNVallocator@2@Uadl_serializer@nlohmann@@@nlohmann@@@std@@@std@@QAEPAXI@Z 100e2ab0 f i KitParser.obj
 0002:00033b00       ??_E?$wstring_convert@V?$codecvt_utf8_utf16@_W$0BAPPPP@$0A@@std@@_WV?$allocator@_W@2@V?$allocator@D@2@@std@@UAEPAXI@Z 100e2b00 f i KitParser.obj
 0002:00033b00       ??_G?$wstring_convert@V?$codecvt_utf8_utf16@_W$0BAPPPP@$0A@@std@@_WV?$allocator@_W@2@V?$allocator@D@2@@std@@UAEPAXI@Z 100e2b00 f i KitParser.obj
 0002:00033b50       ??_G_Ref_count_base@std@@UAEPAXI@Z 100e2b50 f i KitParser.obj
 0002:00033b50       ??_E_Ref_count_base@std@@UAEPAXI@Z 100e2b50 f i KitParser.obj
 0002:00033ba0       ??_Gbad_cast@std@@UAEPAXI@Z 100e2ba0 f i KitParser.obj
 0002:00033ba0       ??_Ebad_cast@std@@UAEPAXI@Z 100e2ba0 f i KitParser.obj
 0002:00033bf0       ??_Gexception@detail@nlohmann@@UAEPAXI@Z 100e2bf0 f i KitParser.obj
 0002:00033bf0       ??_Eexception@detail@nlohmann@@UAEPAXI@Z 100e2bf0 f i KitParser.obj
 0002:00033c40       ??_Eexception@std@@UAEPAXI@Z 100e2c40 f i KitParser.obj
 0002:00033c40       ??_Gexception@std@@UAEPAXI@Z 100e2c40 f i KitParser.obj
 0002:00033c90       ??_Grange_error@std@@UAEPAXI@Z 100e2c90 f i KitParser.obj
 0002:00033c90       ??_Erange_error@std@@UAEPAXI@Z 100e2c90 f i KitParser.obj
 0002:00033ce0       ??_Eruntime_error@std@@UAEPAXI@Z 100e2ce0 f i KitParser.obj
 0002:00033ce0       ??_Gruntime_error@std@@UAEPAXI@Z 100e2ce0 f i KitParser.obj
 0002:00033d30       ??_Etype_error@detail@nlohmann@@UAEPAXI@Z 100e2d30 f i KitParser.obj
 0002:00033d30       ??_Gtype_error@detail@nlohmann@@UAEPAXI@Z 100e2d30 f i KitParser.obj
 0002:00033d80       ?Dump@KitParser@@QAEXXZ    100e2d80 f   KitParser.obj
 0002:00034540       ?_Assign_rv_contents_with_alloc_always_equal@?$basic_string@DU?$char_traits@D@std@@V?$allocator@D@2@@std@@QAEX$$QAV12@U?$integral_constant@_N$00@2@@Z 100e3540 f i KitParser.obj
 0002:000345c0       ?_Become_small@?$basic_string@DU?$char_traits@D@std@@V?$allocator@D@2@@std@@QAEXXZ 100e35c0 f i KitParser.obj
 0002:00034680       ?_Buyheadnode@?$_Tree_comp_alloc@V?$_Tmap_traits@V?$basic_string@DU?$char_traits@D@std@@V?$allocator@D@2@@std@@V?$basic_json@Vmap@std@@Vvector@2@V?$basic_string@DU?$char_traits@D@std@@V?$allocator@D@2@@2@_N_J_KNVallocator@2@Uadl_serializer@nlohmann@@@nlohmann@@U?$less@V?$basic_string@DU?$char_traits@D@std@@V?$allocator@D@2@@std@@@2@V?$allocator@U?$pair@$$CBV?$basic_string@DU?$char_traits@D@std@@V?$allocator@D@2@@std@@V?$basic_json@Vmap@std@@Vvector@2@V?$basic_string@DU?$char_traits@D@std@@V?$allocator@D@2@@2@_N_J_KNVallocator@2@Uadl_serializer@nlohmann@@@nlohmann@@@std@@@2@$0A@@std@@@std@@QAEPAU?$_Tree_node@U?$pair@$$CBV?$basic_string@DU?$char_traits@D@std@@V?$allocator@D@2@@std@@V?$basic_json@Vmap@std@@Vvector@2@V?$basic_string@DU?$char_traits@D@std@@V?$allocator@D@2@@2@_N_J_KNVallocator@2@Uadl_serializer@nlohmann@@@nlohmann@@@std@@PAX@2@XZ 100e3680 f i KitParser.obj
 0002:000347d0       ?_Buynode0@?$_Tree_comp_alloc@V?$_Tmap_traits@V?$basic_string@DU?$char_traits@D@std@@V?$allocator@D@2@@std@@V12@U?$less@V?$basic_string@DU?$char_traits@D@std@@V?$allocator@D@2@@std@@@2@V?$allocator@U?$pair@$$CBV?$basic_string@DU?$char_traits@D@std@@V?$allocator@D@2@@std@@V12@@std@@@2@$0A@@std@@@std@@QAEPAU?$_Tree_node@U?$pair@$$CBV?$basic_string@DU?$char_traits@D@std@@V?$allocator@D@2@@std@@V12@@std@@PAX@2@XZ 100e37d0 f i KitParser.obj
 0002:00034910       ?_Buynode0@?$_Tree_comp_alloc@V?$_Tmap_traits@V?$basic_string@DU?$char_traits@D@std@@V?$allocator@D@2@@std@@V?$basic_json@Vmap@std@@Vvector@2@V?$basic_string@DU?$char_traits@D@std@@V?$allocator@D@2@@2@_N_J_KNVallocator@2@Uadl_serializer@nlohmann@@@nlohmann@@U?$less@V?$basic_string@DU?$char_traits@D@std@@V?$allocator@D@2@@std@@@2@V?$allocator@U?$pair@$$CBV?$basic_string@DU?$char_traits@D@std@@V?$allocator@D@2@@std@@V?$basic_json@Vmap@std@@Vvector@2@V?$basic_string@DU?$char_traits@D@std@@V?$allocator@D@2@@2@_N_J_KNVallocator@2@Uadl_serializer@nlohmann@@@nlohmann@@@std@@@2@$0A@@std@@@std@@QAEPAU?$_Tree_node@U?$pair@$$CBV?$basic_string@DU?$char_traits@D@std@@V?$allocator@D@2@@std@@V?$basic_json@Vmap@std@@Vvector@2@V?$basic_string@DU?$char_traits@D@std@@V?$allocator@D@2@@2@_N_J_KNVallocator@2@Uadl_serializer@nlohmann@@@nlohmann@@@std@@PAX@2@XZ 100e3910 f i KitParser.obj
 0002:00034a50       ?_Check_offset@?$_String_val@U?$_Simple_types@D@std@@@std@@QBEXI@Z 100e3a50 f i KitParser.obj
 0002:00034a80       ?_Clamp_suffix_size@?$_String_val@U?$_Simple_types@D@std@@@std@@QBEIII@Z 100e3a80 f i KitParser.obj
 0002:00034ac0       ?_Compare@?$_Tree@V?$_Tmap_traits@V?$basic_string@DU?$char_traits@D@std@@V?$allocator@D@2@@std@@V12@U?$less@V?$basic_string@DU?$char_traits@D@std@@V?$allocator@D@2@@std@@@2@V?$allocator@U?$pair@$$CBV?$basic_string@DU?$char_traits@D@std@@V?$allocator@D@2@@std@@V12@@std@@@2@$0A@@std@@@std@@IBE_NABV?$basic_string@DU?$char_traits@D@std@@V?$allocator@D@2@@2@0@Z 100e3ac0 f i KitParser.obj
 0002:00034b00       ?_Compat@?$_Vector_const_iterator@V?$_Vector_val@U?$_Simple_types@V?$basic_json@Vmap@std@@Vvector@2@V?$basic_string@DU?$char_traits@D@std@@V?$allocator@D@2@@2@_N_J_KNVallocator@2@Uadl_serializer@nlohmann@@@nlohmann@@@std@@@std@@@std@@QBEXABV12@@Z 100e3b00 f i KitParser.obj
 0002:00034b20       ?_Construct@?$_Tree_comp_alloc@V?$_Tmap_traits@V?$basic_string@DU?$char_traits@D@std@@V?$allocator@D@2@@std@@V?$basic_json@Vmap@std@@Vvector@2@V?$basic_string@DU?$char_traits@D@std@@V?$allocator@D@2@@2@_N_J_KNVallocator@2@Uadl_serializer@nlohmann@@@nlohmann@@U?$less@V?$basic_string@DU?$char_traits@D@std@@V?$allocator@D@2@@std@@@2@V?$allocator@U?$pair@$$CBV?$basic_string@DU?$char_traits@D@std@@V?$allocator@D@2@@std@@V?$basic_json@Vmap@std@@Vvector@2@V?$basic_string@DU?$char_traits@D@std@@V?$allocator@D@2@@2@_N_J_KNVallocator@2@Uadl_serializer@nlohmann@@@nlohmann@@@std@@@2@$0A@@std@@@std@@QAEXXZ 100e3b20 f i KitParser.obj
 0002:00034b50       ?_Construct@?$basic_string@DU?$char_traits@D@std@@V?$allocator@D@2@@std@@QAEXQAD0Urandom_access_iterator_tag@2@@Z 100e3b50 f i KitParser.obj
 0002:00034ba0       ?_Construct_lv_contents@?$basic_string@DU?$char_traits@D@std@@V?$allocator@D@2@@std@@QAEXABV12@@Z 100e3ba0 f i KitParser.obj
 0002:00034d00       ?_Copy_alloc@?$_String_alloc@U?$_String_base_types@DV?$allocator@D@std@@@std@@@std@@QAEXABV?$allocator@D@2@@Z 100e3d00 f i KitParser.obj
 0002:00034d40       ?_Decref@?$_Ptr_base@U?$output_adapter_protocol@D@detail@nlohmann@@@std@@IAEXXZ 100e3d40 f i KitParser.obj
 0002:00034d70       ?_Decref@?$_Ptr_base@V?$output_stream_adapter@D@detail@nlohmann@@@std@@IAEXXZ 100e3d70 f i KitParser.obj
 0002:00034da0       ?_Decref@_Ref_count_base@std@@QAEXXZ 100e3da0 f i KitParser.obj
 0002:00034df0       ?_Decwref@_Ref_count_base@std@@QAEXXZ 100e3df0 f i KitParser.obj
 0002:00034e30       ?_Delete_this@?$_Ref_count_obj@V?$output_stream_adapter@D@detail@nlohmann@@@std@@EAEXXZ 100e3e30 f i KitParser.obj
 0002:00034e80       ?_Destroy@?$_Ref_count_obj@V?$output_stream_adapter@D@detail@nlohmann@@@std@@EAEXXZ 100e3e80 f i KitParser.obj
 0002:00034ef0       ?_Destroy@?$vector@V?$basic_json@Vmap@std@@Vvector@2@V?$basic_string@DU?$char_traits@D@std@@V?$allocator@D@2@@2@_N_J_KNVallocator@2@Uadl_serializer@nlohmann@@@nlohmann@@V?$allocator@V?$basic_json@Vmap@std@@Vvector@2@V?$basic_string@DU?$char_traits@D@std@@V?$allocator@D@2@@2@_N_J_KNVallocator@2@Uadl_serializer@nlohmann@@@nlohmann@@@std@@@std@@AAEXPAV?$basic_json@Vmap@std@@Vvector@2@V?$basic_string@DU?$char_traits@D@std@@V?$allocator@D@2@@2@_N_J_KNVallocator@2@Uadl_serializer@nlohmann@@@nlohmann@@0@Z 100e3ef0 f i KitParser.obj
 0002:00034f30       ?_Destroy_if_node@?$_Tree@V?$_Tmap_traits@V?$basic_string@DU?$char_traits@D@std@@V?$allocator@D@2@@std@@V12@U?$less@V?$basic_string@DU?$char_traits@D@std@@V?$allocator@D@2@@std@@@2@V?$allocator@U?$pair@$$CBV?$basic_string@DU?$char_traits@D@std@@V?$allocator@D@2@@std@@V12@@std@@@2@$0A@@std@@@std@@IAEXPAU?$_Tree_node@U?$pair@$$CBV?$basic_string@DU?$char_traits@D@std@@V?$allocator@D@2@@std@@V12@@std@@PAX@2@@Z 100e3f30 f i KitParser.obj
 0002:00034f90       ?_Destroy_if_node@?$_Tree@V?$_Tmap_traits@V?$basic_string@DU?$char_traits@D@std@@V?$allocator@D@2@@std@@V?$basic_json@Vmap@std@@Vvector@2@V?$basic_string@DU?$char_traits@D@std@@V?$allocator@D@2@@2@_N_J_KNVallocator@2@Uadl_serializer@nlohmann@@@nlohmann@@U?$less@V?$basic_string@DU?$char_traits@D@std@@V?$allocator@D@2@@std@@@2@V?$allocator@U?$pair@$$CBV?$basic_string@DU?$char_traits@D@std@@V?$allocator@D@2@@std@@V?$basic_json@Vmap@std@@Vvector@2@V?$basic_string@DU?$char_traits@D@std@@V?$allocator@D@2@@2@_N_J_KNVallocator@2@Uadl_serializer@nlohmann@@@nlohmann@@@std@@@2@$0A@@std@@@std@@IAEXPAU?$_Tree_node@U?$pair@$$CBV?$basic_string@DU?$char_traits@D@std@@V?$allocator@D@2@@std@@V?$basic_json@Vmap@std@@Vvector@2@V?$basic_string@DU?$char_traits@D@std@@V?$allocator@D@2@@2@_N_J_KNVallocator@2@Uadl_serializer@nlohmann@@@nlohmann@@@std@@PAX@2@@Z 100e3f90 f i KitParser.obj
 0002:00034ff0       ?_Endwrite@?$basic_filebuf@DU?$char_traits@D@std@@@std@@IAE_NXZ 100e3ff0 f i KitParser.obj
 0002:000352d0       ?_Eos@?$basic_string@DU?$char_traits@D@std@@V?$allocator@D@2@@std@@QAEXI@Z 100e42d0 f i KitParser.obj
 0002:00035330       ?_Equal@?$basic_string@DU?$char_traits@D@std@@V?$allocator@D@2@@std@@QBE_NABV12@@Z 100e4330 f i KitParser.obj
 0002:000353d0       ?_Erase@?$_Tree@V?$_Tmap_traits@V?$basic_string@DU?$char_traits@D@std@@V?$allocator@D@2@@std@@V?$basic_json@Vmap@std@@Vvector@2@V?$basic_string@DU?$char_traits@D@std@@V?$allocator@D@2@@2@_N_J_KNVallocator@2@Uadl_serializer@nlohmann@@@nlohmann@@U?$less@V?$basic_string@DU?$char_traits@D@std@@V?$allocator@D@2@@std@@@2@V?$allocator@U?$pair@$$CBV?$basic_string@DU?$char_traits@D@std@@V?$allocator@D@2@@std@@V?$basic_json@Vmap@std@@Vvector@2@V?$basic_string@DU?$char_traits@D@std@@V?$allocator@D@2@@2@_N_J_KNVallocator@2@Uadl_serializer@nlohmann@@@nlohmann@@@std@@@2@$0A@@std@@@std@@IAEXPAU?$_Tree_node@U?$pair@$$CBV?$basic_string@DU?$char_traits@D@std@@V?$allocator@D@2@@std@@V?$basic_json@Vmap@std@@Vvector@2@V?$basic_string@DU?$char_traits@D@std@@V?$allocator@D@2@@2@_N_J_KNVallocator@2@Uadl_serializer@nlohmann@@@nlohmann@@@std@@PAX@2@@Z 100e43d0 f i KitParser.obj
 0002:00035470       ?_Extract@?$_Tree@V?$_Tmap_traits@V?$basic_string@DU?$char_traits@D@std@@V?$allocator@D@2@@std@@V?$basic_json@Vmap@std@@Vvector@2@V?$basic_string@DU?$char_traits@D@std@@V?$allocator@D@2@@2@_N_J_KNVallocator@2@Uadl_serializer@nlohmann@@@nlohmann@@U?$less@V?$basic_string@DU?$char_traits@D@std@@V?$allocator@D@2@@std@@@2@V?$allocator@U?$pair@$$CBV?$basic_string@DU?$char_traits@D@std@@V?$allocator@D@2@@std@@V?$basic_json@Vmap@std@@Vvector@2@V?$basic_string@DU?$char_traits@D@std@@V?$allocator@D@2@@2@_N_J_KNVallocator@2@Uadl_serializer@nlohmann@@@nlohmann@@@std@@@2@$0A@@std@@@std@@QAEPAU?$_Tree_node@U?$pair@$$CBV?$basic_string@DU?$char_traits@D@std@@V?$allocator@D@2@@std@@V?$basic_json@Vmap@std@@Vvector@2@V?$basic_string@DU?$char_traits@D@std@@V?$allocator@D@2@@2@_N_J_KNVallocator@2@Uadl_serializer@nlohmann@@@nlohmann@@@std@@PAX@2@V?$_Tree_const_iterator@V?$_Tree_val@U?$_Tree_simple_types@U?$pair@$$CBV?$basic_string@DU?$char_traits@D@std@@V?$allocator@D@2@@std@@V?$basic_json@Vmap@std@@Vvector@2@V?$basic_string@DU?$char_traits@D@std@@V?$allocator@D@2@@2@_N_J_KNVallocator@2@Uadl_serializer@nlohmann@@@nlohmann@@@std@@@std@@@std@@@2@@Z 100e4470 f i KitParser.obj
 0002:000359d0       ?_Freeheadnode@?$_Tree_comp_alloc@V?$_Tmap_traits@V?$basic_string@DU?$char_traits@D@std@@V?$allocator@D@2@@std@@V?$basic_json@Vmap@std@@Vvector@2@V?$basic_string@DU?$char_traits@D@std@@V?$allocator@D@2@@2@_N_J_KNVallocator@2@Uadl_serializer@nlohmann@@@nlohmann@@U?$less@V?$basic_string@DU?$char_traits@D@std@@V?$allocator@D@2@@std@@@2@V?$allocator@U?$pair@$$CBV?$basic_string@DU?$char_traits@D@std@@V?$allocator@D@2@@std@@V?$basic_json@Vmap@std@@Vvector@2@V?$basic_string@DU?$char_traits@D@std@@V?$allocator@D@2@@2@_N_J_KNVallocator@2@Uadl_serializer@nlohmann@@@nlohmann@@@std@@@2@$0A@@std@@@std@@QAEXPAU?$_Tree_node@U?$pair@$$CBV?$basic_string@DU?$char_traits@D@std@@V?$allocator@D@2@@std@@V?$basic_json@Vmap@std@@Vvector@2@V?$basic_string@DU?$char_traits@D@std@@V?$allocator@D@2@@2@_N_J_KNVallocator@2@Uadl_serializer@nlohmann@@@nlohmann@@@std@@PAX@2@@Z 100e49d0 f i KitParser.obj
 0002:00035a10       ?_Freenode0@?$_Tree_comp_alloc@V?$_Tmap_traits@V?$basic_string@DU?$char_traits@D@std@@V?$allocator@D@2@@std@@V12@U?$less@V?$basic_string@DU?$char_traits@D@std@@V?$allocator@D@2@@std@@@2@V?$allocator@U?$pair@$$CBV?$basic_string@DU?$char_traits@D@std@@V?$allocator@D@2@@std@@V12@@std@@@2@$0A@@std@@@std@@QAEXPAU?$_Tree_node@U?$pair@$$CBV?$basic_string@DU?$char_traits@D@std@@V?$allocator@D@2@@std@@V12@@std@@PAX@2@@Z 100e4a10 f i KitParser.obj
 0002:00035a50       ?_Freenode0@?$_Tree_comp_alloc@V?$_Tmap_traits@V?$basic_string@DU?$char_traits@D@std@@V?$allocator@D@2@@std@@V?$basic_json@Vmap@std@@Vvector@2@V?$basic_string@DU?$char_traits@D@std@@V?$allocator@D@2@@2@_N_J_KNVallocator@2@Uadl_serializer@nlohmann@@@nlohmann@@U?$less@V?$basic_string@DU?$char_traits@D@std@@V?$allocator@D@2@@std@@@2@V?$allocator@U?$pair@$$CBV?$basic_string@DU?$char_traits@D@std@@V?$allocator@D@2@@std@@V?$basic_json@Vmap@std@@Vvector@2@V?$basic_string@DU?$char_traits@D@std@@V?$allocator@D@2@@2@_N_J_KNVallocator@2@Uadl_serializer@nlohmann@@@nlohmann@@@std@@@2@$0A@@std@@@std@@QAEXPAU?$_Tree_node@U?$pair@$$CBV?$basic_string@DU?$char_traits@D@std@@V?$allocator@D@2@@std@@V?$basic_json@Vmap@std@@Vvector@2@V?$basic_string@DU?$char_traits@D@std@@V?$allocator@D@2@@2@_N_J_KNVallocator@2@Uadl_serializer@nlohmann@@@nlohmann@@@std@@PAX@2@@Z 100e4a50 f i KitParser.obj
 0002:00035a90       ?_Get_data@?$_String_alloc@U?$_String_base_types@_WV?$allocator@_W@std@@@std@@@std@@QAEAAV?$_String_val@U?$_Simple_types@_W@std@@@2@XZ 100e4a90 f i KitParser.obj
 0002:00035ac0       ?_Get_data@?$_Tree_comp_alloc@V?$_Tmap_traits@V?$basic_string@DU?$char_traits@D@std@@V?$allocator@D@2@@std@@V12@U?$less@V?$basic_string@DU?$char_traits@D@std@@V?$allocator@D@2@@std@@@2@V?$allocator@U?$pair@$$CBV?$basic_string@DU?$char_traits@D@std@@V?$allocator@D@2@@std@@V12@@std@@@2@$0A@@std@@@std@@QAEAAV?$_Tree_val@U?$_Tree_simple_types@U?$pair@$$CBV?$basic_string@DU?$char_traits@D@std@@V?$allocator@D@2@@std@@V12@@std@@@std@@@2@XZ 100e4ac0 f i KitParser.obj
 0002:00035af0       ?_Get_data@?$_Tree_comp_alloc@V?$_Tmap_traits@V?$basic_string@DU?$char_traits@D@std@@V?$allocator@D@2@@std@@V12@U?$less@V?$basic_string@DU?$char_traits@D@std@@V?$allocator@D@2@@std@@@2@V?$allocator@U?$pair@$$CBV?$basic_string@DU?$char_traits@D@std@@V?$allocator@D@2@@std@@V12@@std@@@2@$0A@@std@@@std@@QBEABV?$_Tree_val@U?$_Tree_simple_types@U?$pair@$$CBV?$basic_string@DU?$char_traits@D@std@@V?$allocator@D@2@@std@@V12@@std@@@std@@@2@XZ 100e4af0 f i KitParser.obj
 0002:00035b20       ?_Get_data@?$_Tree_comp_alloc@V?$_Tmap_traits@V?$basic_string@DU?$char_traits@D@std@@V?$allocator@D@2@@std@@V?$basic_json@Vmap@std@@Vvector@2@V?$basic_string@DU?$char_traits@D@std@@V?$allocator@D@2@@2@_N_J_KNVallocator@2@Uadl_serializer@nlohmann@@@nlohmann@@U?$less@V?$basic_string@DU?$char_traits@D@std@@V?$allocator@D@2@@std@@@2@V?$allocator@U?$pair@$$CBV?$basic_string@DU?$char_traits@D@std@@V?$allocator@D@2@@std@@V?$basic_json@Vmap@std@@Vvector@2@V?$basic_string@DU?$char_traits@D@std@@V?$allocator@D@2@@2@_N_J_KNVallocator@2@Uadl_serializer@nlohmann@@@nlohmann@@@std@@@2@$0A@@std@@@std@@QAEAAV?$_Tree_val@U?$_Tree_simple_types@U?$pair@$$CBV?$basic_string@DU?$char_traits@D@std@@V?$allocator@D@2@@std@@V?$basic_json@Vmap@std@@Vvector@2@V?$basic_string@DU?$char_traits@D@std@@V?$allocator@D@2@@2@_N_J_KNVallocator@2@Uadl_serializer@nlohmann@@@nlohmann@@@std@@@std@@@2@XZ 100e4b20 f i KitParser.obj
 0002:00035b50       ?_Get_data@?$_Tree_comp_alloc@V?$_Tmap_traits@V?$basic_string@DU?$char_traits@D@std@@V?$allocator@D@2@@std@@V?$basic_json@Vmap@std@@Vvector@2@V?$basic_string@DU?$char_traits@D@std@@V?$allocator@D@2@@2@_N_J_KNVallocator@2@Uadl_serializer@nlohmann@@@nlohmann@@U?$less@V?$basic_string@DU?$char_traits@D@std@@V?$allocator@D@2@@std@@@2@V?$allocator@U?$pair@$$CBV?$basic_string@DU?$char_traits@D@std@@V?$allocator@D@2@@std@@V?$basic_json@Vmap@std@@Vvector@2@V?$basic_string@DU?$char_traits@D@std@@V?$allocator@D@2@@2@_N_J_KNVallocator@2@Uadl_serializer@nlohmann@@@nlohmann@@@std@@@2@$0A@@std@@@std@@QBEABV?$_Tree_val@U?$_Tree_simple_types@U?$pair@$$CBV?$basic_string@DU?$char_traits@D@std@@V?$allocator@D@2@@std@@V?$basic_json@Vmap@std@@Vvector@2@V?$basic_string@DU?$char_traits@D@std@@V?$allocator@D@2@@2@_N_J_KNVallocator@2@Uadl_serializer@nlohmann@@@nlohmann@@@std@@@std@@@2@XZ 100e4b50 f i KitParser.obj
 0002:00035b80       ?_Get_data@?$_Vector_alloc@U?$_Vec_base_types@V?$basic_json@Vmap@std@@Vvector@2@V?$basic_string@DU?$char_traits@D@std@@V?$allocator@D@2@@2@_N_J_KNVallocator@2@Uadl_serializer@nlohmann@@@nlohmann@@V?$allocator@V?$basic_json@Vmap@std@@Vvector@2@V?$basic_string@DU?$char_traits@D@std@@V?$allocator@D@2@@2@_N_J_KNVallocator@2@Uadl_serializer@nlohmann@@@nlohmann@@@std@@@std@@@std@@QAEAAV?$_Vector_val@U?$_Simple_types@V?$basic_json@Vmap@std@@Vvector@2@V?$basic_string@DU?$char_traits@D@std@@V?$allocator@D@2@@2@_N_J_KNVallocator@2@Uadl_serializer@nlohmann@@@nlohmann@@@std@@@2@XZ 100e4b80 f i KitParser.obj
 0002:00035bb0       ?_Get_data@?$_Vector_alloc@U?$_Vec_base_types@V?$basic_json@Vmap@std@@Vvector@2@V?$basic_string@DU?$char_traits@D@std@@V?$allocator@D@2@@2@_N_J_KNVallocator@2@Uadl_serializer@nlohmann@@@nlohmann@@V?$allocator@V?$basic_json@Vmap@std@@Vvector@2@V?$basic_string@DU?$char_traits@D@std@@V?$allocator@D@2@@2@_N_J_KNVallocator@2@Uadl_serializer@nlohmann@@@nlohmann@@@std@@@std@@@std@@QBEABV?$_Vector_val@U?$_Simple_types@V?$basic_json@Vmap@std@@Vvector@2@V?$basic_string@DU?$char_traits@D@std@@V?$allocator@D@2@@2@_N_J_KNVallocator@2@Uadl_serializer@nlohmann@@@nlohmann@@@std@@@2@XZ 100e4bb0 f i KitParser.obj
 0002:00035be0       ?_Get_deleter@_Ref_count_base@std@@UBEPAXABVtype_info@@@Z 100e4be0 f i KitParser.obj
 0002:00035c00       ?_Get_first@?$_Compressed_pair@U?$less@V?$basic_string@DU?$char_traits@D@std@@V?$allocator@D@2@@std@@@std@@V?$_Compressed_pair@V?$allocator@U?$_Tree_node@U?$pair@$$CBV?$basic_string@DU?$char_traits@D@std@@V?$allocator@D@2@@std@@V12@@std@@PAX@std@@@std@@V?$_Tree_val@U?$_Tree_simple_types@U?$pair@$$CBV?$basic_string@DU?$char_traits@D@std@@V?$allocator@D@2@@std@@V12@@std@@@std@@@2@$00@2@$00@std@@QAEAAU?$less@V?$basic_string@DU?$char_traits@D@std@@V?$allocator@D@2@@std@@@2@XZ 100e4c00 f i KitParser.obj
 0002:00035c20       ?_Get_first@?$_Compressed_pair@U?$less@V?$basic_string@DU?$char_traits@D@std@@V?$allocator@D@2@@std@@@std@@V?$_Compressed_pair@V?$allocator@U?$_Tree_node@U?$pair@$$CBV?$basic_string@DU?$char_traits@D@std@@V?$allocator@D@2@@std@@V12@@std@@PAX@std@@@std@@V?$_Tree_val@U?$_Tree_simple_types@U?$pair@$$CBV?$basic_string@DU?$char_traits@D@std@@V?$allocator@D@2@@std@@V12@@std@@@std@@@2@$00@2@$00@std@@QBEABU?$less@V?$basic_string@DU?$char_traits@D@std@@V?$allocator@D@2@@std@@@2@XZ 100e4c20 f i KitParser.obj
 0002:00035c40       ?_Get_first@?$_Compressed_pair@U?$less@V?$basic_string@DU?$char_traits@D@std@@V?$allocator@D@2@@std@@@std@@V?$_Compressed_pair@V?$allocator@U?$_Tree_node@U?$pair@$$CBV?$basic_string@DU?$char_traits@D@std@@V?$allocator@D@2@@std@@V?$basic_json@Vmap@std@@Vvector@2@V?$basic_string@DU?$char_traits@D@std@@V?$allocator@D@2@@2@_N_J_KNVallocator@2@Uadl_serializer@nlohmann@@@nlohmann@@@std@@PAX@std@@@std@@V?$_Tree_val@U?$_Tree_simple_types@U?$pair@$$CBV?$basic_string@DU?$char_traits@D@std@@V?$allocator@D@2@@std@@V?$basic_json@Vmap@std@@Vvector@2@V?$basic_string@DU?$char_traits@D@std@@V?$allocator@D@2@@2@_N_J_KNVallocator@2@Uadl_serializer@nlohmann@@@nlohmann@@@std@@@std@@@2@$00@2@$00@std@@QAEAAU?$less@V?$basic_string@DU?$char_traits@D@std@@V?$allocator@D@2@@std@@@2@XZ 100e4c40 f i KitParser.obj
 0002:00035ca0       ?_Get_first@?$_Compressed_pair@V?$allocator@U?$_Tree_node@U?$pair@$$CBV?$basic_string@DU?$char_traits@D@std@@V?$allocator@D@2@@std@@V12@@std@@PAX@std@@@std@@V?$_Tree_val@U?$_Tree_simple_types@U?$pair@$$CBV?$basic_string@DU?$char_traits@D@std@@V?$allocator@D@2@@std@@V12@@std@@@std@@@2@$00@std@@QAEAAV?$allocator@U?$_Tree_node@U?$pair@$$CBV?$basic_string@DU?$char_traits@D@std@@V?$allocator@D@2@@std@@V12@@std@@PAX@std@@@2@XZ 100e4ca0 f i KitParser.obj
 0002:00035cc0       ?_Get_first@?$_Compressed_pair@V?$allocator@U?$_Tree_node@U?$pair@$$CBV?$basic_string@DU?$char_traits@D@std@@V?$allocator@D@2@@std@@V12@@std@@PAX@std@@@std@@V?$_Tree_val@U?$_Tree_simple_types@U?$pair@$$CBV?$basic_string@DU?$char_traits@D@std@@V?$allocator@D@2@@std@@V12@@std@@@std@@@2@$00@std@@QBEABV?$allocator@U?$_Tree_node@U?$pair@$$CBV?$basic_string@DU?$char_traits@D@std@@V?$allocator@D@2@@std@@V12@@std@@PAX@std@@@2@XZ 100e4cc0 f i KitParser.obj
 0002:00035ce0       ?_Get_first@?$_Compressed_pair@V?$allocator@U?$_Tree_node@U?$pair@$$CBV?$basic_string@DU?$char_traits@D@std@@V?$allocator@D@2@@std@@V?$basic_json@Vmap@std@@Vvector@2@V?$basic_string@DU?$char_traits@D@std@@V?$allocator@D@2@@2@_N_J_KNVallocator@2@Uadl_serializer@nlohmann@@@nlohmann@@@std@@PAX@std@@@std@@V?$_Tree_val@U?$_Tree_simple_types@U?$pair@$$CBV?$basic_string@DU?$char_traits@D@std@@V?$allocator@D@2@@std@@V?$basic_json@Vmap@std@@Vvector@2@V?$basic_string@DU?$char_traits@D@std@@V?$allocator@D@2@@2@_N_J_KNVallocator@2@Uadl_serializer@nlohmann@@@nlohmann@@@std@@@std@@@2@$00@std@@QAEAAV?$allocator@U?$_Tree_node@U?$pair@$$CBV?$basic_string@DU?$char_traits@D@std@@V?$allocator@D@2@@std@@V?$basic_json@Vmap@std@@Vvector@2@V?$basic_string@DU?$char_traits@D@std@@V?$allocator@D@2@@2@_N_J_KNVallocator@2@Uadl_serializer@nlohmann@@@nlohmann@@@std@@PAX@std@@@2@XZ 100e4ce0 f i KitParser.obj
 0002:00035d00       ?_Get_first@?$_Compressed_pair@V?$allocator@U?$_Tree_node@U?$pair@$$CBV?$basic_string@DU?$char_traits@D@std@@V?$allocator@D@2@@std@@V?$basic_json@Vmap@std@@Vvector@2@V?$basic_string@DU?$char_traits@D@std@@V?$allocator@D@2@@2@_N_J_KNVallocator@2@Uadl_serializer@nlohmann@@@nlohmann@@@std@@PAX@std@@@std@@V?$_Tree_val@U?$_Tree_simple_types@U?$pair@$$CBV?$basic_string@DU?$char_traits@D@std@@V?$allocator@D@2@@std@@V?$basic_json@Vmap@std@@Vvector@2@V?$basic_string@DU?$char_traits@D@std@@V?$allocator@D@2@@2@_N_J_KNVallocator@2@Uadl_serializer@nlohmann@@@nlohmann@@@std@@@std@@@2@$00@std@@QBEABV?$allocator@U?$_Tree_node@U?$pair@$$CBV?$basic_string@DU?$char_traits@D@std@@V?$allocator@D@2@@std@@V?$basic_json@Vmap@std@@Vvector@2@V?$basic_string@DU?$char_traits@D@std@@V?$allocator@D@2@@2@_N_J_KNVallocator@2@Uadl_serializer@nlohmann@@@nlohmann@@@std@@PAX@std@@@2@XZ 100e4d00 f i KitParser.obj
 0002:00035d20       ?_Get_first@?$_Compressed_pair@V?$allocator@V?$basic_json@Vmap@std@@Vvector@2@V?$basic_string@DU?$char_traits@D@std@@V?$allocator@D@2@@2@_N_J_KNVallocator@2@Uadl_serializer@nlohmann@@@nlohmann@@@std@@V?$_Vector_val@U?$_Simple_types@V?$basic_json@Vmap@std@@Vvector@2@V?$basic_string@DU?$char_traits@D@std@@V?$allocator@D@2@@2@_N_J_KNVallocator@2@Uadl_serializer@nlohmann@@@nlohmann@@@std@@@2@$00@std@@QAEAAV?$allocator@V?$basic_json@Vmap@std@@Vvector@2@V?$basic_string@DU?$char_traits@D@std@@V?$allocator@D@2@@2@_N_J_KNVallocator@2@Uadl_serializer@nlohmann@@@nlohmann@@@2@XZ 100e4d20 f i KitParser.obj
 0002:00035d40       ?_Get_first@?$_Compressed_pair@V?$allocator@_W@std@@V?$_String_val@U?$_Simple_types@_W@std@@@2@$00@std@@QAEAAV?$allocator@_W@2@XZ 100e4d40 f i KitParser.obj
 0002:00035d60       ?_Get_second@?$_Compressed_pair@U?$less@V?$basic_string@DU?$char_traits@D@std@@V?$allocator@D@2@@std@@@std@@V?$_Compressed_pair@V?$allocator@U?$_Tree_node@U?$pair@$$CBV?$basic_string@DU?$char_traits@D@std@@V?$allocator@D@2@@std@@V12@@std@@PAX@std@@@std@@V?$_Tree_val@U?$_Tree_simple_types@U?$pair@$$CBV?$basic_string@DU?$char_traits@D@std@@V?$allocator@D@2@@std@@V12@@std@@@std@@@2@$00@2@$00@std@@QAEAAV?$_Compressed_pair@V?$allocator@U?$_Tree_node@U?$pair@$$CBV?$basic_string@DU?$char_traits@D@std@@V?$allocator@D@2@@std@@V12@@std@@PAX@std@@@std@@V?$_Tree_val@U?$_Tree_simple_types@U?$pair@$$CBV?$basic_string@DU?$char_traits@D@std@@V?$allocator@D@2@@std@@V12@@std@@@std@@@2@$00@2@XZ 100e4d60 f i KitParser.obj
 0002:00035d80       ?_Get_second@?$_Compressed_pair@U?$less@V?$basic_string@DU?$char_traits@D@std@@V?$allocator@D@2@@std@@@std@@V?$_Compressed_pair@V?$allocator@U?$_Tree_node@U?$pair@$$CBV?$basic_string@DU?$char_traits@D@std@@V?$allocator@D@2@@std@@V12@@std@@PAX@std@@@std@@V?$_Tree_val@U?$_Tree_simple_types@U?$pair@$$CBV?$basic_string@DU?$char_traits@D@std@@V?$allocator@D@2@@std@@V12@@std@@@std@@@2@$00@2@$00@std@@QBEABV?$_Compressed_pair@V?$allocator@U?$_Tree_node@U?$pair@$$CBV?$basic_string@DU?$char_traits@D@std@@V?$allocator@D@2@@std@@V12@@std@@PAX@std@@@std@@V?$_Tree_val@U?$_Tree_simple_types@U?$pair@$$CBV?$basic_string@DU?$char_traits@D@std@@V?$allocator@D@2@@std@@V12@@std@@@std@@@2@$00@2@XZ 100e4d80 f i KitParser.obj
 0002:00035da0       ?_Get_second@?$_Compressed_pair@U?$less@V?$basic_string@DU?$char_traits@D@std@@V?$allocator@D@2@@std@@@std@@V?$_Compressed_pair@V?$allocator@U?$_Tree_node@U?$pair@$$CBV?$basic_string@DU?$char_traits@D@std@@V?$allocator@D@2@@std@@V?$basic_json@Vmap@std@@Vvector@2@V?$basic_string@DU?$char_traits@D@std@@V?$allocator@D@2@@2@_N_J_KNVallocator@2@Uadl_serializer@nlohmann@@@nlohmann@@@std@@PAX@std@@@std@@V?$_Tree_val@U?$_Tree_simple_types@U?$pair@$$CBV?$basic_string@DU?$char_traits@D@std@@V?$allocator@D@2@@std@@V?$basic_json@Vmap@std@@Vvector@2@V?$basic_string@DU?$char_traits@D@std@@V?$allocator@D@2@@2@_N_J_KNVallocator@2@Uadl_serializer@nlohmann@@@nlohmann@@@std@@@std@@@2@$00@2@$00@std@@QAEAAV?$_Compressed_pair@V?$allocator@U?$_Tree_node@U?$pair@$$CBV?$basic_string@DU?$char_traits@D@std@@V?$allocator@D@2@@std@@V?$basic_json@Vmap@std@@Vvector@2@V?$basic_string@DU?$char_traits@D@std@@V?$allocator@D@2@@2@_N_J_KNVallocator@2@Uadl_serializer@nlohmann@@@nlohmann@@@std@@PAX@std@@@std@@V?$_Tree_val@U?$_Tree_simple_types@U?$pair@$$CBV?$basic_string@DU?$char_traits@D@std@@V?$allocator@D@2@@std@@V?$basic_json@Vmap@std@@Vvector@2@V?$basic_string@DU?$char_traits@D@std@@V?$allocator@D@2@@2@_N_J_KNVallocator@2@Uadl_serializer@nlohmann@@@nlohmann@@@std@@@std@@@2@$00@2@XZ 100e4da0 f i KitParser.obj
 0002:00035dc0       ?_Get_second@?$_Compressed_pair@U?$less@V?$basic_string@DU?$char_traits@D@std@@V?$allocator@D@2@@std@@@std@@V?$_Compressed_pair@V?$allocator@U?$_Tree_node@U?$pair@$$CBV?$basic_string@DU?$char_traits@D@std@@V?$allocator@D@2@@std@@V?$basic_json@Vmap@std@@Vvector@2@V?$basic_string@DU?$char_traits@D@std@@V?$allocator@D@2@@2@_N_J_KNVallocator@2@Uadl_serializer@nlohmann@@@nlohmann@@@std@@PAX@std@@@std@@V?$_Tree_val@U?$_Tree_simple_types@U?$pair@$$CBV?$basic_string@DU?$char_traits@D@std@@V?$allocator@D@2@@std@@V?$basic_json@Vmap@std@@Vvector@2@V?$basic_string@DU?$char_traits@D@std@@V?$allocator@D@2@@2@_N_J_KNVallocator@2@Uadl_serializer@nlohmann@@@nlohmann@@@std@@@std@@@2@$00@2@$00@std@@QBEABV?$_Compressed_pair@V?$allocator@U?$_Tree_node@U?$pair@$$CBV?$basic_string@DU?$char_traits@D@std@@V?$allocator@D@2@@std@@V?$basic_json@Vmap@std@@Vvector@2@V?$basic_string@DU?$char_traits@D@std@@V?$allocator@D@2@@2@_N_J_KNVallocator@2@Uadl_serializer@nlohmann@@@nlohmann@@@std@@PAX@std@@@std@@V?$_Tree_val@U?$_Tree_simple_types@U?$pair@$$CBV?$basic_string@DU?$char_traits@D@std@@V?$allocator@D@2@@std@@V?$basic_json@Vmap@std@@Vvector@2@V?$basic_string@DU?$char_traits@D@std@@V?$allocator@D@2@@2@_N_J_KNVallocator@2@Uadl_serializer@nlohmann@@@nlohmann@@@std@@@std@@@2@$00@2@XZ 100e4dc0 f i KitParser.obj
 0002:00035e60       ?_Get_second@?$_Compressed_pair@V?$allocator@U?$_Tree_node@U?$pair@$$CBV?$basic_string@DU?$char_traits@D@std@@V?$allocator@D@2@@std@@V12@@std@@PAX@std@@@std@@V?$_Tree_val@U?$_Tree_simple_types@U?$pair@$$CBV?$basic_string@DU?$char_traits@D@std@@V?$allocator@D@2@@std@@V12@@std@@@std@@@2@$00@std@@QAEAAV?$_Tree_val@U?$_Tree_simple_types@U?$pair@$$CBV?$basic_string@DU?$char_traits@D@std@@V?$allocator@D@2@@std@@V12@@std@@@std@@@2@XZ 100e4e60 f i KitParser.obj
 0002:00035e80       ?_Get_second@?$_Compressed_pair@V?$allocator@U?$_Tree_node@U?$pair@$$CBV?$basic_string@DU?$char_traits@D@std@@V?$allocator@D@2@@std@@V12@@std@@PAX@std@@@std@@V?$_Tree_val@U?$_Tree_simple_types@U?$pair@$$CBV?$basic_string@DU?$char_traits@D@std@@V?$allocator@D@2@@std@@V12@@std@@@std@@@2@$00@std@@QBEABV?$_Tree_val@U?$_Tree_simple_types@U?$pair@$$CBV?$basic_string@DU?$char_traits@D@std@@V?$allocator@D@2@@std@@V12@@std@@@std@@@2@XZ 100e4e80 f i KitParser.obj
 0002:00035ea0       ?_Get_second@?$_Compressed_pair@V?$allocator@U?$_Tree_node@U?$pair@$$CBV?$basic_string@DU?$char_traits@D@std@@V?$allocator@D@2@@std@@V?$basic_json@Vmap@std@@Vvector@2@V?$basic_string@DU?$char_traits@D@std@@V?$allocator@D@2@@2@_N_J_KNVallocator@2@Uadl_serializer@nlohmann@@@nlohmann@@@std@@PAX@std@@@std@@V?$_Tree_val@U?$_Tree_simple_types@U?$pair@$$CBV?$basic_string@DU?$char_traits@D@std@@V?$allocator@D@2@@std@@V?$basic_json@Vmap@std@@Vvector@2@V?$basic_string@DU?$char_traits@D@std@@V?$allocator@D@2@@2@_N_J_KNVallocator@2@Uadl_serializer@nlohmann@@@nlohmann@@@std@@@std@@@2@$00@std@@QAEAAV?$_Tree_val@U?$_Tree_simple_types@U?$pair@$$CBV?$basic_string@DU?$char_traits@D@std@@V?$allocator@D@2@@std@@V?$basic_json@Vmap@std@@Vvector@2@V?$basic_string@DU?$char_traits@D@std@@V?$allocator@D@2@@2@_N_J_KNVallocator@2@Uadl_serializer@nlohmann@@@nlohmann@@@std@@@std@@@2@XZ 100e4ea0 f i KitParser.obj
 0002:00035ec0       ?_Get_second@?$_Compressed_pair@V?$allocator@U?$_Tree_node@U?$pair@$$CBV?$basic_string@DU?$char_traits@D@std@@V?$allocator@D@2@@std@@V?$basic_json@Vmap@std@@Vvector@2@V?$basic_string@DU?$char_traits@D@std@@V?$allocator@D@2@@2@_N_J_KNVallocator@2@Uadl_serializer@nlohmann@@@nlohmann@@@std@@PAX@std@@@std@@V?$_Tree_val@U?$_Tree_simple_types@U?$pair@$$CBV?$basic_string@DU?$char_traits@D@std@@V?$allocator@D@2@@std@@V?$basic_json@Vmap@std@@Vvector@2@V?$basic_string@DU?$char_traits@D@std@@V?$allocator@D@2@@2@_N_J_KNVallocator@2@Uadl_serializer@nlohmann@@@nlohmann@@@std@@@std@@@2@$00@std@@QBEABV?$_Tree_val@U?$_Tree_simple_types@U?$pair@$$CBV?$basic_string@DU?$char_traits@D@std@@V?$allocator@D@2@@std@@V?$basic_json@Vmap@std@@Vvector@2@V?$basic_string@DU?$char_traits@D@std@@V?$allocator@D@2@@2@_N_J_KNVallocator@2@Uadl_serializer@nlohmann@@@nlohmann@@@std@@@std@@@2@XZ 100e4ec0 f i KitParser.obj
 0002:00035ee0       ?_Get_second@?$_Compressed_pair@V?$allocator@V?$basic_json@Vmap@std@@Vvector@2@V?$basic_string@DU?$char_traits@D@std@@V?$allocator@D@2@@2@_N_J_KNVallocator@2@Uadl_serializer@nlohmann@@@nlohmann@@@std@@V?$_Vector_val@U?$_Simple_types@V?$basic_json@Vmap@std@@Vvector@2@V?$basic_string@DU?$char_traits@D@std@@V?$allocator@D@2@@2@_N_J_KNVallocator@2@Uadl_serializer@nlohmann@@@nlohmann@@@std@@@2@$00@std@@QAEAAV?$_Vector_val@U?$_Simple_types@V?$basic_json@Vmap@std@@Vvector@2@V?$basic_string@DU?$char_traits@D@std@@V?$allocator@D@2@@2@_N_J_KNVallocator@2@Uadl_serializer@nlohmann@@@nlohmann@@@std@@@2@XZ 100e4ee0 f i KitParser.obj
 0002:00035f00       ?_Get_second@?$_Compressed_pair@V?$allocator@V?$basic_json@Vmap@std@@Vvector@2@V?$basic_string@DU?$char_traits@D@std@@V?$allocator@D@2@@2@_N_J_KNVallocator@2@Uadl_serializer@nlohmann@@@nlohmann@@@std@@V?$_Vector_val@U?$_Simple_types@V?$basic_json@Vmap@std@@Vvector@2@V?$basic_string@DU?$char_traits@D@std@@V?$allocator@D@2@@2@_N_J_KNVallocator@2@Uadl_serializer@nlohmann@@@nlohmann@@@std@@@2@$00@std@@QBEABV?$_Vector_val@U?$_Simple_types@V?$basic_json@Vmap@std@@Vvector@2@V?$basic_string@DU?$char_traits@D@std@@V?$allocator@D@2@@2@_N_J_KNVallocator@2@Uadl_serializer@nlohmann@@@nlohmann@@@std@@@2@XZ 100e4f00 f i KitParser.obj
 0002:00035f20       ?_Get_second@?$_Compressed_pair@V?$allocator@_W@std@@V?$_String_val@U?$_Simple_types@_W@std@@@2@$00@std@@QAEAAV?$_String_val@U?$_Simple_types@_W@std@@@2@XZ 100e4f20 f i KitParser.obj
 0002:00035f40       ?_Getal@?$_String_alloc@U?$_String_base_types@_WV?$allocator@_W@std@@@std@@@std@@QAEAAV?$allocator@_W@2@XZ 100e4f40 f i KitParser.obj
 0002:00035f70       ?_Getal@?$_Tree_comp_alloc@V?$_Tmap_traits@V?$basic_string@DU?$char_traits@D@std@@V?$allocator@D@2@@std@@V12@U?$less@V?$basic_string@DU?$char_traits@D@std@@V?$allocator@D@2@@std@@@2@V?$allocator@U?$pair@$$CBV?$basic_string@DU?$char_traits@D@std@@V?$allocator@D@2@@std@@V12@@std@@@2@$0A@@std@@@std@@QAEAAV?$allocator@U?$_Tree_node@U?$pair@$$CBV?$basic_string@DU?$char_traits@D@std@@V?$allocator@D@2@@std@@V12@@std@@PAX@std@@@2@XZ 100e4f70 f i KitParser.obj
 0002:00035fa0       ?_Getal@?$_Tree_comp_alloc@V?$_Tmap_traits@V?$basic_string@DU?$char_traits@D@std@@V?$allocator@D@2@@std@@V12@U?$less@V?$basic_string@DU?$char_traits@D@std@@V?$allocator@D@2@@std@@@2@V?$allocator@U?$pair@$$CBV?$basic_string@DU?$char_traits@D@std@@V?$allocator@D@2@@std@@V12@@std@@@2@$0A@@std@@@std@@QBEABV?$allocator@U?$_Tree_node@U?$pair@$$CBV?$basic_string@DU?$char_traits@D@std@@V?$allocator@D@2@@std@@V12@@std@@PAX@std@@@2@XZ 100e4fa0 f i KitParser.obj
 0002:00035fd0       ?_Getal@?$_Tree_comp_alloc@V?$_Tmap_traits@V?$basic_string@DU?$char_traits@D@std@@V?$allocator@D@2@@std@@V?$basic_json@Vmap@std@@Vvector@2@V?$basic_string@DU?$char_traits@D@std@@V?$allocator@D@2@@2@_N_J_KNVallocator@2@Uadl_serializer@nlohmann@@@nlohmann@@U?$less@V?$basic_string@DU?$char_traits@D@std@@V?$allocator@D@2@@std@@@2@V?$allocator@U?$pair@$$CBV?$basic_string@DU?$char_traits@D@std@@V?$allocator@D@2@@std@@V?$basic_json@Vmap@std@@Vvector@2@V?$basic_string@DU?$char_traits@D@std@@V?$allocator@D@2@@2@_N_J_KNVallocator@2@Uadl_serializer@nlohmann@@@nlohmann@@@std@@@2@$0A@@std@@@std@@QAEAAV?$allocator@U?$_Tree_node@U?$pair@$$CBV?$basic_string@DU?$char_traits@D@std@@V?$allocator@D@2@@std@@V?$basic_json@Vmap@std@@Vvector@2@V?$basic_string@DU?$char_traits@D@std@@V?$allocator@D@2@@2@_N_J_KNVallocator@2@Uadl_serializer@nlohmann@@@nlohmann@@@std@@PAX@std@@@2@XZ 100e4fd0 f i KitParser.obj
 0002:00036000       ?_Getal@?$_Tree_comp_alloc@V?$_Tmap_traits@V?$basic_string@DU?$char_traits@D@std@@V?$allocator@D@2@@std@@V?$basic_json@Vmap@std@@Vvector@2@V?$basic_string@DU?$char_traits@D@std@@V?$allocator@D@2@@2@_N_J_KNVallocator@2@Uadl_serializer@nlohmann@@@nlohmann@@U?$less@V?$basic_string@DU?$char_traits@D@std@@V?$allocator@D@2@@std@@@2@V?$allocator@U?$pair@$$CBV?$basic_string@DU?$char_traits@D@std@@V?$allocator@D@2@@std@@V?$basic_json@Vmap@std@@Vvector@2@V?$basic_string@DU?$char_traits@D@std@@V?$allocator@D@2@@2@_N_J_KNVallocator@2@Uadl_serializer@nlohmann@@@nlohmann@@@std@@@2@$0A@@std@@@std@@QBEABV?$allocator@U?$_Tree_node@U?$pair@$$CBV?$basic_string@DU?$char_traits@D@std@@V?$allocator@D@2@@std@@V?$basic_json@Vmap@std@@Vvector@2@V?$basic_string@DU?$char_traits@D@std@@V?$allocator@D@2@@2@_N_J_KNVallocator@2@Uadl_serializer@nlohmann@@@nlohmann@@@std@@PAX@std@@@2@XZ 100e5000 f i KitParser.obj
 0002:00036030       ?_Getal@?$_Vector_alloc@U?$_Vec_base_types@V?$basic_json@Vmap@std@@Vvector@2@V?$basic_string@DU?$char_traits@D@std@@V?$allocator@D@2@@2@_N_J_KNVallocator@2@Uadl_serializer@nlohmann@@@nlohmann@@V?$allocator@V?$basic_json@Vmap@std@@Vvector@2@V?$basic_string@DU?$char_traits@D@std@@V?$allocator@D@2@@2@_N_J_KNVallocator@2@Uadl_serializer@nlohmann@@@nlohmann@@@std@@@std@@@std@@QAEAAV?$allocator@V?$basic_json@Vmap@std@@Vvector@2@V?$basic_string@DU?$char_traits@D@std@@V?$allocator@D@2@@2@_N_J_KNVallocator@2@Uadl_serializer@nlohmann@@@nlohmann@@@2@XZ 100e5030 f i KitParser.obj
 0002:00036060       ?_Getcomp@?$_Tree_comp_alloc@V?$_Tmap_traits@V?$basic_string@DU?$char_traits@D@std@@V?$allocator@D@2@@std@@V12@U?$less@V?$basic_string@DU?$char_traits@D@std@@V?$allocator@D@2@@std@@@2@V?$allocator@U?$pair@$$CBV?$basic_string@DU?$char_traits@D@std@@V?$allocator@D@2@@std@@V12@@std@@@2@$0A@@std@@@std@@QAEAAU?$less@V?$basic_string@DU?$char_traits@D@std@@V?$allocator@D@2@@std@@@2@XZ 100e5060 f i KitParser.obj
 0002:00036090       ?_Getcomp@?$_Tree_comp_alloc@V?$_Tmap_traits@V?$basic_string@DU?$char_traits@D@std@@V?$allocator@D@2@@std@@V12@U?$less@V?$basic_string@DU?$char_traits@D@std@@V?$allocator@D@2@@std@@@2@V?$allocator@U?$pair@$$CBV?$basic_string@DU?$char_traits@D@std@@V?$allocator@D@2@@std@@V12@@std@@@2@$0A@@std@@@std@@QBEABU?$less@V?$basic_string@DU?$char_traits@D@std@@V?$allocator@D@2@@std@@@2@XZ 100e5090 f i KitParser.obj
 0002:000360c0       ?_Getcomp@?$_Tree_comp_alloc@V?$_Tmap_traits@V?$basic_string@DU?$char_traits@D@std@@V?$allocator@D@2@@std@@V?$basic_json@Vmap@std@@Vvector@2@V?$basic_string@DU?$char_traits@D@std@@V?$allocator@D@2@@2@_N_J_KNVallocator@2@Uadl_serializer@nlohmann@@@nlohmann@@U?$less@V?$basic_string@DU?$char_traits@D@std@@V?$allocator@D@2@@std@@@2@V?$allocator@U?$pair@$$CBV?$basic_string@DU?$char_traits@D@std@@V?$allocator@D@2@@std@@V?$basic_json@Vmap@std@@Vvector@2@V?$basic_string@DU?$char_traits@D@std@@V?$allocator@D@2@@2@_N_J_KNVallocator@2@Uadl_serializer@nlohmann@@@nlohmann@@@std@@@2@$0A@@std@@@std@@QAEAAU?$less@V?$basic_string@DU?$char_traits@D@std@@V?$allocator@D@2@@std@@@2@XZ 100e50c0 f i KitParser.obj
 0002:000360f0       ?_Getfacet@locale@std@@QBEPBVfacet@12@I@Z 100e50f0 f i KitParser.obj
 0002:000361a0       ?_Getptr@?$_Ref_count_obj@V?$output_stream_adapter@D@detail@nlohmann@@@std@@QAEPAV?$output_stream_adapter@D@detail@nlohmann@@XZ 100e51a0 f i KitParser.obj
 0002:000361c0       ?_Getstate@?$basic_stringbuf@DU?$char_traits@D@std@@V?$allocator@D@2@@std@@AAEHH@Z 100e51c0 f i KitParser.obj
 0002:00036240       ?_Incref@_Ref_count_base@std@@QAEXXZ 100e5240 f i KitParser.obj
 0002:00036270       ?_Init@?$basic_filebuf@DU?$char_traits@D@std@@@std@@IAEXPAU_iobuf@@W4_Initfl@12@@Z 100e5270 f i KitParser.obj
 0002:00036390       ?_Init@?$basic_stringbuf@DU?$char_traits@D@std@@V?$allocator@D@2@@std@@IAEXPBDIH@Z 100e5390 f i KitParser.obj
 0002:000364f0       ?_Init@?$wstring_convert@V?$codecvt_utf8_utf16@_W$0BAPPPP@$0A@@std@@_WV?$allocator@_W@2@V?$allocator@D@2@@std@@AAEXPBV?$codecvt_utf8_utf16@_W$0BAPPPP@$0A@@2@@Z 100e54f0 f i KitParser.obj
 0002:00036580       ?_Initcvt@?$basic_filebuf@DU?$char_traits@D@std@@@std@@IAEXPBV?$codecvt@DDU_Mbstatet@@@2@@Z 100e5580 f i KitParser.obj
 0002:000365e0       ?_Key@?$_Tree@V?$_Tmap_traits@V?$basic_string@DU?$char_traits@D@std@@V?$allocator@D@2@@std@@V12@U?$less@V?$basic_string@DU?$char_traits@D@std@@V?$allocator@D@2@@std@@@2@V?$allocator@U?$pair@$$CBV?$basic_string@DU?$char_traits@D@std@@V?$allocator@D@2@@std@@V12@@std@@@2@$0A@@std@@@std@@IBEABV?$basic_string@DU?$char_traits@D@std@@V?$allocator@D@2@@2@PAU?$_Tree_node@U?$pair@$$CBV?$basic_string@DU?$char_traits@D@std@@V?$allocator@D@2@@std@@V12@@std@@PAX@2@@Z 100e55e0 f i KitParser.obj
 0002:00036610       ?_Key@?$_Tree@V?$_Tmap_traits@V?$basic_string@DU?$char_traits@D@std@@V?$allocator@D@2@@std@@V?$basic_json@Vmap@std@@Vvector@2@V?$basic_string@DU?$char_traits@D@std@@V?$allocator@D@2@@2@_N_J_KNVallocator@2@Uadl_serializer@nlohmann@@@nlohmann@@U?$less@V?$basic_string@DU?$char_traits@D@std@@V?$allocator@D@2@@std@@@2@V?$allocator@U?$pair@$$CBV?$basic_string@DU?$char_traits@D@std@@V?$allocator@D@2@@std@@V?$basic_json@Vmap@std@@Vvector@2@V?$basic_string@DU?$char_traits@D@std@@V?$allocator@D@2@@2@_N_J_KNVallocator@2@Uadl_serializer@nlohmann@@@nlohmann@@@std@@@2@$0A@@std@@@std@@IBEABV?$basic_string@DU?$char_traits@D@std@@V?$allocator@D@2@@2@PAU?$_Tree_node@U?$pair@$$CBV?$basic_string@DU?$char_traits@D@std@@V?$allocator@D@2@@std@@V?$basic_json@Vmap@std@@Vvector@2@V?$basic_string@DU?$char_traits@D@std@@V?$allocator@D@2@@2@_N_J_KNVallocator@2@Uadl_serializer@nlohmann@@@nlohmann@@@std@@PAX@2@@Z 100e5610 f i KitParser.obj
 0002:00036640       ?_Kfn@?$_Tree@V?$_Tmap_traits@V?$basic_string@DU?$char_traits@D@std@@V?$allocator@D@2@@std@@V12@U?$less@V?$basic_string@DU?$char_traits@D@std@@V?$allocator@D@2@@std@@@2@V?$allocator@U?$pair@$$CBV?$basic_string@DU?$char_traits@D@std@@V?$allocator@D@2@@std@@V12@@std@@@2@$0A@@std@@@std@@IBEABV?$basic_string@DU?$char_traits@D@std@@V?$allocator@D@2@@2@ABU?$pair@$$CBV?$basic_string@DU?$char_traits@D@std@@V?$allocator@D@2@@std@@V12@@2@@Z 100e5640 f i KitParser.obj
 0002:00036670       ?_Kfn@?$_Tree@V?$_Tmap_traits@V?$basic_string@DU?$char_traits@D@std@@V?$allocator@D@2@@std@@V?$basic_json@Vmap@std@@Vvector@2@V?$basic_string@DU?$char_traits@D@std@@V?$allocator@D@2@@2@_N_J_KNVallocator@2@Uadl_serializer@nlohmann@@@nlohmann@@U?$less@V?$basic_string@DU?$char_traits@D@std@@V?$allocator@D@2@@std@@@2@V?$allocator@U?$pair@$$CBV?$basic_string@DU?$char_traits@D@std@@V?$allocator@D@2@@std@@V?$basic_json@Vmap@std@@Vvector@2@V?$basic_string@DU?$char_traits@D@std@@V?$allocator@D@2@@2@_N_J_KNVallocator@2@Uadl_serializer@nlohmann@@@nlohmann@@@std@@@2@$0A@@std@@@std@@IBEABV?$basic_string@DU?$char_traits@D@std@@V?$allocator@D@2@@2@ABU?$pair@$$CBV?$basic_string@DU?$char_traits@D@std@@V?$allocator@D@2@@std@@V?$basic_json@Vmap@std@@Vvector@2@V?$basic_string@DU?$char_traits@D@std@@V?$allocator@D@2@@2@_N_J_KNVallocator@2@Uadl_serializer@nlohmann@@@nlohmann@@@2@@Z 100e5670 f i KitParser.obj
 0002:000366a0       ?_Large_string_engaged@?$_String_val@U?$_Simple_types@_W@std@@@std@@QBE_NXZ 100e56a0 f i KitParser.obj
 0002:000366e0       ?_Lmost@?$_Tree@V?$_Tmap_traits@V?$basic_string@DU?$char_traits@D@std@@V?$allocator@D@2@@std@@V12@U?$less@V?$basic_string@DU?$char_traits@D@std@@V?$allocator@D@2@@std@@@2@V?$allocator@U?$pair@$$CBV?$basic_string@DU?$char_traits@D@std@@V?$allocator@D@2@@std@@V12@@std@@@2@$0A@@std@@@std@@IBEAAPAU?$_Tree_node@U?$pair@$$CBV?$basic_string@DU?$char_traits@D@std@@V?$allocator@D@2@@std@@V12@@std@@PAX@2@XZ 100e56e0 f i KitParser.obj
 0002:00036710       ?_Lmost@?$_Tree@V?$_Tmap_traits@V?$basic_string@DU?$char_traits@D@std@@V?$allocator@D@2@@std@@V?$basic_json@Vmap@std@@Vvector@2@V?$basic_string@DU?$char_traits@D@std@@V?$allocator@D@2@@2@_N_J_KNVallocator@2@Uadl_serializer@nlohmann@@@nlohmann@@U?$less@V?$basic_string@DU?$char_traits@D@std@@V?$allocator@D@2@@std@@@2@V?$allocator@U?$pair@$$CBV?$basic_string@DU?$char_traits@D@std@@V?$allocator@D@2@@std@@V?$basic_json@Vmap@std@@Vvector@2@V?$basic_string@DU?$char_traits@D@std@@V?$allocator@D@2@@2@_N_J_KNVallocator@2@Uadl_serializer@nlohmann@@@nlohmann@@@std@@@2@$0A@@std@@@std@@IBEAAPAU?$_Tree_node@U?$pair@$$CBV?$basic_string@DU?$char_traits@D@std@@V?$allocator@D@2@@std@@V?$basic_json@Vmap@std@@Vvector@2@V?$basic_string@DU?$char_traits@D@std@@V?$allocator@D@2@@2@_N_J_KNVallocator@2@Uadl_serializer@nlohmann@@@nlohmann@@@std@@PAX@2@XZ 100e5710 f i KitParser.obj
 0002:00036740       ?_Lock@?$basic_filebuf@DU?$char_traits@D@std@@@std@@UAEXXZ 100e5740 f i KitParser.obj
 0002:00036780       ?_Lrotate@?$_Tree@V?$_Tmap_traits@V?$basic_string@DU?$char_traits@D@std@@V?$allocator@D@2@@std@@V12@U?$less@V?$basic_string@DU?$char_traits@D@std@@V?$allocator@D@2@@std@@@2@V?$allocator@U?$pair@$$CBV?$basic_string@DU?$char_traits@D@std@@V?$allocator@D@2@@std@@V12@@std@@@2@$0A@@std@@@std@@IAEXPAU?$_Tree_node@U?$pair@$$CBV?$basic_string@DU?$char_traits@D@std@@V?$allocator@D@2@@std@@V12@@std@@PAX@2@@Z 100e5780 f i KitParser.obj
 0002:00036850       ?_Lrotate@?$_Tree@V?$_Tmap_traits@V?$basic_string@DU?$char_traits@D@std@@V?$allocator@D@2@@std@@V?$basic_json@Vmap@std@@Vvector@2@V?$basic_string@DU?$char_traits@D@std@@V?$allocator@D@2@@2@_N_J_KNVallocator@2@Uadl_serializer@nlohmann@@@nlohmann@@U?$less@V?$basic_string@DU?$char_traits@D@std@@V?$allocator@D@2@@std@@@2@V?$allocator@U?$pair@$$CBV?$basic_string@DU?$char_traits@D@std@@V?$allocator@D@2@@std@@V?$basic_json@Vmap@std@@Vvector@2@V?$basic_string@DU?$char_traits@D@std@@V?$allocator@D@2@@2@_N_J_KNVallocator@2@Uadl_serializer@nlohmann@@@nlohmann@@@std@@@2@$0A@@std@@@std@@IAEXPAU?$_Tree_node@U?$pair@$$CBV?$basic_string@DU?$char_traits@D@std@@V?$allocator@D@2@@std@@V?$basic_json@Vmap@std@@Vvector@2@V?$basic_string@DU?$char_traits@D@std@@V?$allocator@D@2@@2@_N_J_KNVallocator@2@Uadl_serializer@nlohmann@@@nlohmann@@@std@@PAX@2@@Z 100e5850 f i KitParser.obj
 0002:00036920       ?_Max@?$_Tree_comp_alloc@V?$_Tmap_traits@V?$basic_string@DU?$char_traits@D@std@@V?$allocator@D@2@@std@@V?$basic_json@Vmap@std@@Vvector@2@V?$basic_string@DU?$char_traits@D@std@@V?$allocator@D@2@@2@_N_J_KNVallocator@2@Uadl_serializer@nlohmann@@@nlohmann@@U?$less@V?$basic_string@DU?$char_traits@D@std@@V?$allocator@D@2@@std@@@2@V?$allocator@U?$pair@$$CBV?$basic_string@DU?$char_traits@D@std@@V?$allocator@D@2@@std@@V?$basic_json@Vmap@std@@Vvector@2@V?$basic_string@DU?$char_traits@D@std@@V?$allocator@D@2@@2@_N_J_KNVallocator@2@Uadl_serializer@nlohmann@@@nlohmann@@@std@@@2@$0A@@std@@@std@@SAPAU?$_Tree_node@U?$pair@$$CBV?$basic_string@DU?$char_traits@D@std@@V?$allocator@D@2@@std@@V?$basic_json@Vmap@std@@Vvector@2@V?$basic_string@DU?$char_traits@D@std@@V?$allocator@D@2@@2@_N_J_KNVallocator@2@Uadl_serializer@nlohmann@@@nlohmann@@@std@@PAX@2@PAU32@@Z 100e5920 f i KitParser.obj
 0002:00036950       ?_Max@?$_Tree_val@U?$_Tree_simple_types@U?$pair@$$CBV?$basic_string@DU?$char_traits@D@std@@V?$allocator@D@2@@std@@V12@@std@@@std@@@std@@SAPAU?$_Tree_node@U?$pair@$$CBV?$basic_string@DU?$char_traits@D@std@@V?$allocator@D@2@@std@@V12@@std@@PAX@2@PAU32@@Z 100e5950 f i KitParser.obj
 0002:00036990       ?_Max@?$_Tree_val@U?$_Tree_simple_types@U?$pair@$$CBV?$basic_string@DU?$char_traits@D@std@@V?$allocator@D@2@@std@@V?$basic_json@Vmap@std@@Vvector@2@V?$basic_string@DU?$char_traits@D@std@@V?$allocator@D@2@@2@_N_J_KNVallocator@2@Uadl_serializer@nlohmann@@@nlohmann@@@std@@@std@@@std@@SAPAU?$_Tree_node@U?$pair@$$CBV?$basic_string@DU?$char_traits@D@std@@V?$allocator@D@2@@std@@V?$basic_json@Vmap@std@@Vvector@2@V?$basic_string@DU?$char_traits@D@std@@V?$allocator@D@2@@2@_N_J_KNVallocator@2@Uadl_serializer@nlohmann@@@nlohmann@@@std@@PAX@2@PAU32@@Z 100e5990 f i KitParser.obj
 0002:000369d0       ?_Min@?$_Tree_comp_alloc@V?$_Tmap_traits@V?$basic_string@DU?$char_traits@D@std@@V?$allocator@D@2@@std@@V?$basic_json@Vmap@std@@Vvector@2@V?$basic_string@DU?$char_traits@D@std@@V?$allocator@D@2@@2@_N_J_KNVallocator@2@Uadl_serializer@nlohmann@@@nlohmann@@U?$less@V?$basic_string@DU?$char_traits@D@std@@V?$allocator@D@2@@std@@@2@V?$allocator@U?$pair@$$CBV?$basic_string@DU?$char_traits@D@std@@V?$allocator@D@2@@std@@V?$basic_json@Vmap@std@@Vvector@2@V?$basic_string@DU?$char_traits@D@std@@V?$allocator@D@2@@2@_N_J_KNVallocator@2@Uadl_serializer@nlohmann@@@nlohmann@@@std@@@2@$0A@@std@@@std@@SAPAU?$_Tree_node@U?$pair@$$CBV?$basic_string@DU?$char_traits@D@std@@V?$allocator@D@2@@std@@V?$basic_json@Vmap@std@@Vvector@2@V?$basic_string@DU?$char_traits@D@std@@V?$allocator@D@2@@2@_N_J_KNVallocator@2@Uadl_serializer@nlohmann@@@nlohmann@@@std@@PAX@2@PAU32@@Z 100e59d0 f i KitParser.obj
 0002:00036a00       ?_Min@?$_Tree_val@U?$_Tree_simple_types@U?$pair@$$CBV?$basic_string@DU?$char_traits@D@std@@V?$allocator@D@2@@std@@V12@@std@@@std@@@std@@SAPAU?$_Tree_node@U?$pair@$$CBV?$basic_string@DU?$char_traits@D@std@@V?$allocator@D@2@@std@@V12@@std@@PAX@2@PAU32@@Z 100e5a00 f i KitParser.obj
 0002:00036a40       ?_Min@?$_Tree_val@U?$_Tree_simple_types@U?$pair@$$CBV?$basic_string@DU?$char_traits@D@std@@V?$allocator@D@2@@std@@V?$basic_json@Vmap@std@@Vvector@2@V?$basic_string@DU?$char_traits@D@std@@V?$allocator@D@2@@2@_N_J_KNVallocator@2@Uadl_serializer@nlohmann@@@nlohmann@@@std@@@std@@@std@@SAPAU?$_Tree_node@U?$pair@$$CBV?$basic_string@DU?$char_traits@D@std@@V?$allocator@D@2@@std@@V?$basic_json@Vmap@std@@Vvector@2@V?$basic_string@DU?$char_traits@D@std@@V?$allocator@D@2@@2@_N_J_KNVallocator@2@Uadl_serializer@nlohmann@@@nlohmann@@@std@@PAX@2@PAU32@@Z 100e5a40 f i KitParser.obj
 0002:00036a80       ?_Myend@?$_Vector_alloc@U?$_Vec_base_types@V?$basic_json@Vmap@std@@Vvector@2@V?$basic_string@DU?$char_traits@D@std@@V?$allocator@D@2@@2@_N_J_KNVallocator@2@Uadl_serializer@nlohmann@@@nlohmann@@V?$allocator@V?$basic_json@Vmap@std@@Vvector@2@V?$basic_string@DU?$char_traits@D@std@@V?$allocator@D@2@@2@_N_J_KNVallocator@2@Uadl_serializer@nlohmann@@@nlohmann@@@std@@@std@@@std@@QAEAAPAV?$basic_json@Vmap@std@@Vvector@2@V?$basic_string@DU?$char_traits@D@std@@V?$allocator@D@2@@2@_N_J_KNVallocator@2@Uadl_serializer@nlohmann@@@nlohmann@@XZ 100e5a80 f i KitParser.obj
 0002:00036ab0       ?_Myend@?$_Vector_alloc@U?$_Vec_base_types@V?$basic_json@Vmap@std@@Vvector@2@V?$basic_string@DU?$char_traits@D@std@@V?$allocator@D@2@@2@_N_J_KNVallocator@2@Uadl_serializer@nlohmann@@@nlohmann@@V?$allocator@V?$basic_json@Vmap@std@@Vvector@2@V?$basic_string@DU?$char_traits@D@std@@V?$allocator@D@2@@2@_N_J_KNVallocator@2@Uadl_serializer@nlohmann@@@nlohmann@@@std@@@std@@@std@@QBEABQAV?$basic_json@Vmap@std@@Vvector@2@V?$basic_string@DU?$char_traits@D@std@@V?$allocator@D@2@@2@_N_J_KNVallocator@2@Uadl_serializer@nlohmann@@@nlohmann@@XZ 100e5ab0 f i KitParser.obj
 0002:00036ae0       ?_Myfirst@?$_Vector_alloc@U?$_Vec_base_types@V?$basic_json@Vmap@std@@Vvector@2@V?$basic_string@DU?$char_traits@D@std@@V?$allocator@D@2@@2@_N_J_KNVallocator@2@Uadl_serializer@nlohmann@@@nlohmann@@V?$allocator@V?$basic_json@Vmap@std@@Vvector@2@V?$basic_string@DU?$char_traits@D@std@@V?$allocator@D@2@@2@_N_J_KNVallocator@2@Uadl_serializer@nlohmann@@@nlohmann@@@std@@@std@@@std@@QAEAAPAV?$basic_json@Vmap@std@@Vvector@2@V?$basic_string@DU?$char_traits@D@std@@V?$allocator@D@2@@2@_N_J_KNVallocator@2@Uadl_serializer@nlohmann@@@nlohmann@@XZ 100e5ae0 f i KitParser.obj
 0002:00036b10       ?_Myfirst@?$_Vector_alloc@U?$_Vec_base_types@V?$basic_json@Vmap@std@@Vvector@2@V?$basic_string@DU?$char_traits@D@std@@V?$allocator@D@2@@2@_N_J_KNVallocator@2@Uadl_serializer@nlohmann@@@nlohmann@@V?$allocator@V?$basic_json@Vmap@std@@Vvector@2@V?$basic_string@DU?$char_traits@D@std@@V?$allocator@D@2@@2@_N_J_KNVallocator@2@Uadl_serializer@nlohmann@@@nlohmann@@@std@@@std@@@std@@QBEABQAV?$basic_json@Vmap@std@@Vvector@2@V?$basic_string@DU?$char_traits@D@std@@V?$allocator@D@2@@2@_N_J_KNVallocator@2@Uadl_serializer@nlohmann@@@nlohmann@@XZ 100e5b10 f i KitParser.obj
 0002:00036b40       ?_Myhead@?$_Tree_comp_alloc@V?$_Tmap_traits@V?$basic_string@DU?$char_traits@D@std@@V?$allocator@D@2@@std@@V12@U?$less@V?$basic_string@DU?$char_traits@D@std@@V?$allocator@D@2@@std@@@2@V?$allocator@U?$pair@$$CBV?$basic_string@DU?$char_traits@D@std@@V?$allocator@D@2@@std@@V12@@std@@@2@$0A@@std@@@std@@QAEAAPAU?$_Tree_node@U?$pair@$$CBV?$basic_string@DU?$char_traits@D@std@@V?$allocator@D@2@@std@@V12@@std@@PAX@2@XZ 100e5b40 f i KitParser.obj
 0002:00036b70       ?_Myhead@?$_Tree_comp_alloc@V?$_Tmap_traits@V?$basic_string@DU?$char_traits@D@std@@V?$allocator@D@2@@std@@V12@U?$less@V?$basic_string@DU?$char_traits@D@std@@V?$allocator@D@2@@std@@@2@V?$allocator@U?$pair@$$CBV?$basic_string@DU?$char_traits@D@std@@V?$allocator@D@2@@std@@V12@@std@@@2@$0A@@std@@@std@@QBEABQAU?$_Tree_node@U?$pair@$$CBV?$basic_string@DU?$char_traits@D@std@@V?$allocator@D@2@@std@@V12@@std@@PAX@2@XZ 100e5b70 f i KitParser.obj
 0002:00036ba0       ?_Myhead@?$_Tree_comp_alloc@V?$_Tmap_traits@V?$basic_string@DU?$char_traits@D@std@@V?$allocator@D@2@@std@@V?$basic_json@Vmap@std@@Vvector@2@V?$basic_string@DU?$char_traits@D@std@@V?$allocator@D@2@@2@_N_J_KNVallocator@2@Uadl_serializer@nlohmann@@@nlohmann@@U?$less@V?$basic_string@DU?$char_traits@D@std@@V?$allocator@D@2@@std@@@2@V?$allocator@U?$pair@$$CBV?$basic_string@DU?$char_traits@D@std@@V?$allocator@D@2@@std@@V?$basic_json@Vmap@std@@Vvector@2@V?$basic_string@DU?$char_traits@D@std@@V?$allocator@D@2@@2@_N_J_KNVallocator@2@Uadl_serializer@nlohmann@@@nlohmann@@@std@@@2@$0A@@std@@@std@@QAEAAPAU?$_Tree_node@U?$pair@$$CBV?$basic_string@DU?$char_traits@D@std@@V?$allocator@D@2@@std@@V?$basic_json@Vmap@std@@Vvector@2@V?$basic_string@DU?$char_traits@D@std@@V?$allocator@D@2@@2@_N_J_KNVallocator@2@Uadl_serializer@nlohmann@@@nlohmann@@@std@@PAX@2@XZ 100e5ba0 f i KitParser.obj
 0002:00036bd0       ?_Myhead@?$_Tree_comp_alloc@V?$_Tmap_traits@V?$basic_string@DU?$char_traits@D@std@@V?$allocator@D@2@@std@@V?$basic_json@Vmap@std@@Vvector@2@V?$basic_string@DU?$char_traits@D@std@@V?$allocator@D@2@@2@_N_J_KNVallocator@2@Uadl_serializer@nlohmann@@@nlohmann@@U?$less@V?$basic_string@DU?$char_traits@D@std@@V?$allocator@D@2@@std@@@2@V?$allocator@U?$pair@$$CBV?$basic_string@DU?$char_traits@D@std@@V?$allocator@D@2@@std@@V?$basic_json@Vmap@std@@Vvector@2@V?$basic_string@DU?$char_traits@D@std@@V?$allocator@D@2@@2@_N_J_KNVallocator@2@Uadl_serializer@nlohmann@@@nlohmann@@@std@@@2@$0A@@std@@@std@@QBEABQAU?$_Tree_node@U?$pair@$$CBV?$basic_string@DU?$char_traits@D@std@@V?$allocator@D@2@@std@@V?$basic_json@Vmap@std@@Vvector@2@V?$basic_string@DU?$char_traits@D@std@@V?$allocator@D@2@@2@_N_J_KNVallocator@2@Uadl_serializer@nlohmann@@@nlohmann@@@std@@PAX@2@XZ 100e5bd0 f i KitParser.obj
 0002:00036c00       ?_Mylast@?$_Vector_alloc@U?$_Vec_base_types@V?$basic_json@Vmap@std@@Vvector@2@V?$basic_string@DU?$char_traits@D@std@@V?$allocator@D@2@@2@_N_J_KNVallocator@2@Uadl_serializer@nlohmann@@@nlohmann@@V?$allocator@V?$basic_json@Vmap@std@@Vvector@2@V?$basic_string@DU?$char_traits@D@std@@V?$allocator@D@2@@2@_N_J_KNVallocator@2@Uadl_serializer@nlohmann@@@nlohmann@@@std@@@std@@@std@@QAEAAPAV?$basic_json@Vmap@std@@Vvector@2@V?$basic_string@DU?$char_traits@D@std@@V?$allocator@D@2@@2@_N_J_KNVallocator@2@Uadl_serializer@nlohmann@@@nlohmann@@XZ 100e5c00 f i KitParser.obj
 0002:00036c30       ?_Mylast@?$_Vector_alloc@U?$_Vec_base_types@V?$basic_json@Vmap@std@@Vvector@2@V?$basic_string@DU?$char_traits@D@std@@V?$allocator@D@2@@2@_N_J_KNVallocator@2@Uadl_serializer@nlohmann@@@nlohmann@@V?$allocator@V?$basic_json@Vmap@std@@Vvector@2@V?$basic_string@DU?$char_traits@D@std@@V?$allocator@D@2@@2@_N_J_KNVallocator@2@Uadl_serializer@nlohmann@@@nlohmann@@@std@@@std@@@std@@QBEABQAV?$basic_json@Vmap@std@@Vvector@2@V?$basic_string@DU?$char_traits@D@std@@V?$allocator@D@2@@2@_N_J_KNVallocator@2@Uadl_serializer@nlohmann@@@nlohmann@@XZ 100e5c30 f i KitParser.obj
 0002:00036c60       ?_Myptr@?$_String_val@U?$_Simple_types@D@std@@@std@@QBEPBDXZ 100e5c60 f i KitParser.obj
 0002:00036d70       ?_Mysize@?$_Tree_comp_alloc@V?$_Tmap_traits@V?$basic_string@DU?$char_traits@D@std@@V?$allocator@D@2@@std@@V12@U?$less@V?$basic_string@DU?$char_traits@D@std@@V?$allocator@D@2@@std@@@2@V?$allocator@U?$pair@$$CBV?$basic_string@DU?$char_traits@D@std@@V?$allocator@D@2@@std@@V12@@std@@@2@$0A@@std@@@std@@QAEAAIXZ 100e5d70 f i KitParser.obj
 0002:00036da0       ?_Mysize@?$_Tree_comp_alloc@V?$_Tmap_traits@V?$basic_string@DU?$char_traits@D@std@@V?$allocator@D@2@@std@@V12@U?$less@V?$basic_string@DU?$char_traits@D@std@@V?$allocator@D@2@@std@@@2@V?$allocator@U?$pair@$$CBV?$basic_string@DU?$char_traits@D@std@@V?$allocator@D@2@@std@@V12@@std@@@2@$0A@@std@@@std@@QBEABIXZ 100e5da0 f i KitParser.obj
 0002:00036dd0       ?_Mysize@?$_Tree_comp_alloc@V?$_Tmap_traits@V?$basic_string@DU?$char_traits@D@std@@V?$allocator@D@2@@std@@V?$basic_json@Vmap@std@@Vvector@2@V?$basic_string@DU?$char_traits@D@std@@V?$allocator@D@2@@2@_N_J_KNVallocator@2@Uadl_serializer@nlohmann@@@nlohmann@@U?$less@V?$basic_string@DU?$char_traits@D@std@@V?$allocator@D@2@@std@@@2@V?$allocator@U?$pair@$$CBV?$basic_string@DU?$char_traits@D@std@@V?$allocator@D@2@@std@@V?$basic_json@Vmap@std@@Vvector@2@V?$basic_string@DU?$char_traits@D@std@@V?$allocator@D@2@@2@_N_J_KNVallocator@2@Uadl_serializer@nlohmann@@@nlohmann@@@std@@@2@$0A@@std@@@std@@QAEAAIXZ 100e5dd0 f i KitParser.obj
 0002:00036e00       ?_Mysize@?$_Tree_comp_alloc@V?$_Tmap_traits@V?$basic_string@DU?$char_traits@D@std@@V?$allocator@D@2@@std@@V?$basic_json@Vmap@std@@Vvector@2@V?$basic_string@DU?$char_traits@D@std@@V?$allocator@D@2@@2@_N_J_KNVallocator@2@Uadl_serializer@nlohmann@@@nlohmann@@U?$less@V?$basic_string@DU?$char_traits@D@std@@V?$allocator@D@2@@std@@@2@V?$allocator@U?$pair@$$CBV?$basic_string@DU?$char_traits@D@std@@V?$allocator@D@2@@std@@V?$basic_json@Vmap@std@@Vvector@2@V?$basic_string@DU?$char_traits@D@std@@V?$allocator@D@2@@2@_N_J_KNVallocator@2@Uadl_serializer@nlohmann@@@nlohmann@@@std@@@2@$0A@@std@@@std@@QBEABIXZ 100e5e00 f i KitParser.obj
 0002:00036e30       ?_Orphan_all@?$_String_alloc@U?$_String_base_types@_WV?$allocator@_W@std@@@std@@@std@@QAEXXZ 100e5e30 f i KitParser.obj
 0002:00036e60       ?_Orphan_all@?$_Vector_alloc@U?$_Vec_base_types@V?$basic_json@Vmap@std@@Vvector@2@V?$basic_string@DU?$char_traits@D@std@@V?$allocator@D@2@@2@_N_J_KNVallocator@2@Uadl_serializer@nlohmann@@@nlohmann@@V?$allocator@V?$basic_json@Vmap@std@@Vvector@2@V?$basic_string@DU?$char_traits@D@std@@V?$allocator@D@2@@2@_N_J_KNVallocator@2@Uadl_serializer@nlohmann@@@nlohmann@@@std@@@std@@@std@@QAEXXZ 100e5e60 f i KitParser.obj
 0002:00036e90       ?_Reset_back@?$basic_filebuf@DU?$char_traits@D@std@@@std@@AAEXXZ 100e5e90 f i KitParser.obj
 0002:00036ef0       ?_Rmost@?$_Tree@V?$_Tmap_traits@V?$basic_string@DU?$char_traits@D@std@@V?$allocator@D@2@@std@@V12@U?$less@V?$basic_string@DU?$char_traits@D@std@@V?$allocator@D@2@@std@@@2@V?$allocator@U?$pair@$$CBV?$basic_string@DU?$char_traits@D@std@@V?$allocator@D@2@@std@@V12@@std@@@2@$0A@@std@@@std@@IBEAAPAU?$_Tree_node@U?$pair@$$CBV?$basic_string@DU?$char_traits@D@std@@V?$allocator@D@2@@std@@V12@@std@@PAX@2@XZ 100e5ef0 f i KitParser.obj
 0002:00036f20       ?_Rmost@?$_Tree@V?$_Tmap_traits@V?$basic_string@DU?$char_traits@D@std@@V?$allocator@D@2@@std@@V?$basic_json@Vmap@std@@Vvector@2@V?$basic_string@DU?$char_traits@D@std@@V?$allocator@D@2@@2@_N_J_KNVallocator@2@Uadl_serializer@nlohmann@@@nlohmann@@U?$less@V?$basic_string@DU?$char_traits@D@std@@V?$allocator@D@2@@std@@@2@V?$allocator@U?$pair@$$CBV?$basic_string@DU?$char_traits@D@std@@V?$allocator@D@2@@std@@V?$basic_json@Vmap@std@@Vvector@2@V?$basic_string@DU?$char_traits@D@std@@V?$allocator@D@2@@2@_N_J_KNVallocator@2@Uadl_serializer@nlohmann@@@nlohmann@@@std@@@2@$0A@@std@@@std@@IBEAAPAU?$_Tree_node@U?$pair@$$CBV?$basic_string@DU?$char_traits@D@std@@V?$allocator@D@2@@std@@V?$basic_json@Vmap@std@@Vvector@2@V?$basic_string@DU?$char_traits@D@std@@V?$allocator@D@2@@2@_N_J_KNVallocator@2@Uadl_serializer@nlohmann@@@nlohmann@@@std@@PAX@2@XZ 100e5f20 f i KitParser.obj
 0002:00036f50       ?_Root@?$_Tree@V?$_Tmap_traits@V?$basic_string@DU?$char_traits@D@std@@V?$allocator@D@2@@std@@V12@U?$less@V?$basic_string@DU?$char_traits@D@std@@V?$allocator@D@2@@std@@@2@V?$allocator@U?$pair@$$CBV?$basic_string@DU?$char_traits@D@std@@V?$allocator@D@2@@std@@V12@@std@@@2@$0A@@std@@@std@@IBEAAPAU?$_Tree_node@U?$pair@$$CBV?$basic_string@DU?$char_traits@D@std@@V?$allocator@D@2@@std@@V12@@std@@PAX@2@XZ 100e5f50 f i KitParser.obj
 0002:00036f80       ?_Root@?$_Tree@V?$_Tmap_traits@V?$basic_string@DU?$char_traits@D@std@@V?$allocator@D@2@@std@@V?$basic_json@Vmap@std@@Vvector@2@V?$basic_string@DU?$char_traits@D@std@@V?$allocator@D@2@@2@_N_J_KNVallocator@2@Uadl_serializer@nlohmann@@@nlohmann@@U?$less@V?$basic_string@DU?$char_traits@D@std@@V?$allocator@D@2@@std@@@2@V?$allocator@U?$pair@$$CBV?$basic_string@DU?$char_traits@D@std@@V?$allocator@D@2@@std@@V?$basic_json@Vmap@std@@Vvector@2@V?$basic_string@DU?$char_traits@D@std@@V?$allocator@D@2@@2@_N_J_KNVallocator@2@Uadl_serializer@nlohmann@@@nlohmann@@@std@@@2@$0A@@std@@@std@@IBEAAPAU?$_Tree_node@U?$pair@$$CBV?$basic_string@DU?$char_traits@D@std@@V?$allocator@D@2@@std@@V?$basic_json@Vmap@std@@Vvector@2@V?$basic_string@DU?$char_traits@D@std@@V?$allocator@D@2@@2@_N_J_KNVallocator@2@Uadl_serializer@nlohmann@@@nlohmann@@@std@@PAX@2@XZ 100e5f80 f i KitParser.obj
 0002:00036fb0       ?_Rrotate@?$_Tree@V?$_Tmap_traits@V?$basic_string@DU?$char_traits@D@std@@V?$allocator@D@2@@std@@V12@U?$less@V?$basic_string@DU?$char_traits@D@std@@V?$allocator@D@2@@std@@@2@V?$allocator@U?$pair@$$CBV?$basic_string@DU?$char_traits@D@std@@V?$allocator@D@2@@std@@V12@@std@@@2@$0A@@std@@@std@@IAEXPAU?$_Tree_node@U?$pair@$$CBV?$basic_string@DU?$char_traits@D@std@@V?$allocator@D@2@@std@@V12@@std@@PAX@2@@Z 100e5fb0 f i KitParser.obj
 0002:00037080       ?_Rrotate@?$_Tree@V?$_Tmap_traits@V?$basic_string@DU?$char_traits@D@std@@V?$allocator@D@2@@std@@V?$basic_json@Vmap@std@@Vvector@2@V?$basic_string@DU?$char_traits@D@std@@V?$allocator@D@2@@2@_N_J_KNVallocator@2@Uadl_serializer@nlohmann@@@nlohmann@@U?$less@V?$basic_string@DU?$char_traits@D@std@@V?$allocator@D@2@@std@@@2@V?$allocator@U?$pair@$$CBV?$basic_string@DU?$char_traits@D@std@@V?$allocator@D@2@@std@@V?$basic_json@Vmap@std@@Vvector@2@V?$basic_string@DU?$char_traits@D@std@@V?$allocator@D@2@@2@_N_J_KNVallocator@2@Uadl_serializer@nlohmann@@@nlohmann@@@std@@@2@$0A@@std@@@std@@IAEXPAU?$_Tree_node@U?$pair@$$CBV?$basic_string@DU?$char_traits@D@std@@V?$allocator@D@2@@std@@V?$basic_json@Vmap@std@@Vvector@2@V?$basic_string@DU?$char_traits@D@std@@V?$allocator@D@2@@2@_N_J_KNVallocator@2@Uadl_serializer@nlohmann@@@nlohmann@@@std@@PAX@2@@Z 100e6080 f i KitParser.obj
 0002:00037150       ?_Set_back@?$basic_filebuf@DU?$char_traits@D@std@@@std@@AAEXXZ 100e6150 f i KitParser.obj
 0002:000371d0       ?_Set_ptr_rep@?$_Ptr_base@V?$output_stream_adapter@D@detail@nlohmann@@@std@@IAEXPAV?$output_stream_adapter@D@detail@nlohmann@@PAV_Ref_count_base@2@@Z 100e61d0 f i KitParser.obj
 0002:00037200       ?_Tidy@?$_Tree@V?$_Tmap_traits@V?$basic_string@DU?$char_traits@D@std@@V?$allocator@D@2@@std@@V?$basic_json@Vmap@std@@Vvector@2@V?$basic_string@DU?$char_traits@D@std@@V?$allocator@D@2@@2@_N_J_KNVallocator@2@Uadl_serializer@nlohmann@@@nlohmann@@U?$less@V?$basic_string@DU?$char_traits@D@std@@V?$allocator@D@2@@std@@@2@V?$allocator@U?$pair@$$CBV?$basic_string@DU?$char_traits@D@std@@V?$allocator@D@2@@std@@V?$basic_json@Vmap@std@@Vvector@2@V?$basic_string@DU?$char_traits@D@std@@V?$allocator@D@2@@2@_N_J_KNVallocator@2@Uadl_serializer@nlohmann@@@nlohmann@@@std@@@2@$0A@@std@@@std@@IAEXXZ 100e6200 f i KitParser.obj
 0002:00037260       ?_Tidy@?$basic_stringbuf@DU?$char_traits@D@std@@V?$allocator@D@2@@std@@IAEXXZ 100e6260 f i KitParser.obj
 0002:00037330       ?_Tidy@?$vector@V?$basic_json@Vmap@std@@Vvector@2@V?$basic_string@DU?$char_traits@D@std@@V?$allocator@D@2@@2@_N_J_KNVallocator@2@Uadl_serializer@nlohmann@@@nlohmann@@V?$allocator@V?$basic_json@Vmap@std@@Vvector@2@V?$basic_string@DU?$char_traits@D@std@@V?$allocator@D@2@@2@_N_J_KNVallocator@2@Uadl_serializer@nlohmann@@@nlohmann@@@std@@@std@@AAEXXZ 100e6330 f i KitParser.obj
 0002:000373f0       ?_Tidy_deallocate@?$basic_string@_WU?$char_traits@_W@std@@V?$allocator@_W@2@@std@@QAEXXZ 100e63f0 f i KitParser.obj
 0002:000374d0       ?_Tidy_init@?$basic_string@_WU?$char_traits@_W@std@@V?$allocator@_W@2@@std@@QAEXXZ 100e64d0 f i KitParser.obj
 0002:00037540       ?_Unlock@?$basic_filebuf@DU?$char_traits@D@std@@@std@@UAEXXZ 100e6540 f i KitParser.obj
 0002:00037580       ?_Xran@?$_String_val@U?$_Simple_types@D@std@@@std@@SAXXZ 100e6580 f i KitParser.obj
 0002:000375a0       ?__autoclassinit2@?$_Array_iterator@D$0EA@@std@@QAEXI@Z 100e65a0 f i KitParser.obj
 0002:000375d0       ?__autoclassinit2@?$_String_const_iterator@V?$_String_val@U?$_Simple_types@D@std@@@std@@@std@@QAEXI@Z 100e65d0 f i KitParser.obj
 0002:00037600       ?__autoclassinit2@?$_Tree_const_iterator@V?$_Tree_val@U?$_Tree_simple_types@U?$pair@$$CBV?$basic_string@DU?$char_traits@D@std@@V?$allocator@D@2@@std@@V12@@std@@@std@@@std@@@std@@QAEXI@Z 100e6600 f i KitParser.obj
 0002:00037630       ?__autoclassinit2@?$_Tree_const_iterator@V?$_Tree_val@U?$_Tree_simple_types@U?$pair@$$CBV?$basic_string@DU?$char_traits@D@std@@V?$allocator@D@2@@std@@V?$basic_json@Vmap@std@@Vvector@2@V?$basic_string@DU?$char_traits@D@std@@V?$allocator@D@2@@2@_N_J_KNVallocator@2@Uadl_serializer@nlohmann@@@nlohmann@@@std@@@std@@@std@@@std@@QAEXI@Z 100e6630 f i KitParser.obj
 0002:00037660       ?__autoclassinit2@?$_Tree_iterator@V?$_Tree_val@U?$_Tree_simple_types@U?$pair@$$CBV?$basic_string@DU?$char_traits@D@std@@V?$allocator@D@2@@std@@V12@@std@@@std@@@std@@@std@@QAEXI@Z 100e6660 f i KitParser.obj
 0002:00037690       ?__autoclassinit2@?$_Tree_iterator@V?$_Tree_val@U?$_Tree_simple_types@U?$pair@$$CBV?$basic_string@DU?$char_traits@D@std@@V?$allocator@D@2@@std@@V?$basic_json@Vmap@std@@Vvector@2@V?$basic_string@DU?$char_traits@D@std@@V?$allocator@D@2@@2@_N_J_KNVallocator@2@Uadl_serializer@nlohmann@@@nlohmann@@@std@@@std@@@std@@@std@@QAEXI@Z 100e6690 f i KitParser.obj
 0002:000376c0       ?__autoclassinit2@?$_Vector_const_iterator@V?$_Vector_val@U?$_Simple_types@V?$basic_json@Vmap@std@@Vvector@2@V?$basic_string@DU?$char_traits@D@std@@V?$allocator@D@2@@2@_N_J_KNVallocator@2@Uadl_serializer@nlohmann@@@nlohmann@@@std@@@std@@@std@@QAEXI@Z 100e66c0 f i KitParser.obj
 0002:000376f0       ?__autoclassinit2@?$basic_ofstream@DU?$char_traits@D@std@@@std@@QAEXI@Z 100e66f0 f i KitParser.obj
 0002:00037720       ?__autoclassinit2@?$basic_stringstream@DU?$char_traits@D@std@@V?$allocator@D@2@@std@@QAEXI@Z 100e6720 f i KitParser.obj
 0002:00037750       ?__autoclassinit2@?$serializer@V?$basic_json@Vmap@std@@Vvector@2@V?$basic_string@DU?$char_traits@D@std@@V?$allocator@D@2@@2@_N_J_KNVallocator@2@Uadl_serializer@nlohmann@@@nlohmann@@@detail@nlohmann@@QAEXI@Z 100e6750 f i KitParser.obj
 0002:00037780       ?__autoclassinit2@?$shared_ptr@V?$output_stream_adapter@D@detail@nlohmann@@@std@@QAEXI@Z 100e6780 f i KitParser.obj
 0002:00037810       ?__autoclassinit2@?$wstring_convert@V?$codecvt_utf8_utf16@_W$0BAPPPP@$0A@@std@@_WV?$allocator@_W@2@V?$allocator@D@2@@std@@QAEXI@Z 100e6810 f i KitParser.obj
 0002:00037840       ?allocate@?$_Default_allocator_traits@V?$allocator@V?$basic_string@DU?$char_traits@D@std@@V?$allocator@D@2@@std@@@std@@@std@@SAPAV?$basic_string@DU?$char_traits@D@std@@V?$allocator@D@2@@2@AAV?$allocator@V?$basic_string@DU?$char_traits@D@std@@V?$allocator@D@2@@std@@@2@I@Z 100e6840 f i KitParser.obj
 0002:00037870       ?allocate@?$_Default_allocator_traits@V?$allocator@V?$map@V?$basic_string@DU?$char_traits@D@std@@V?$allocator@D@2@@std@@V?$basic_json@Vmap@std@@Vvector@2@V?$basic_string@DU?$char_traits@D@std@@V?$allocator@D@2@@2@_N_J_KNVallocator@2@Uadl_serializer@nlohmann@@@nlohmann@@U?$less@V?$basic_string@DU?$char_traits@D@std@@V?$allocator@D@2@@std@@@2@V?$allocator@U?$pair@$$CBV?$basic_string@DU?$char_traits@D@std@@V?$allocator@D@2@@std@@V?$basic_json@Vmap@std@@Vvector@2@V?$basic_string@DU?$char_traits@D@std@@V?$allocator@D@2@@2@_N_J_KNVallocator@2@Uadl_serializer@nlohmann@@@nlohmann@@@std@@@2@@std@@@std@@@std@@SAPAV?$map@V?$basic_string@DU?$char_traits@D@std@@V?$allocator@D@2@@std@@V?$basic_json@Vmap@std@@Vvector@2@V?$basic_string@DU?$char_traits@D@std@@V?$allocator@D@2@@2@_N_J_KNVallocator@2@Uadl_serializer@nlohmann@@@nlohmann@@U?$less@V?$basic_string@DU?$char_traits@D@std@@V?$allocator@D@2@@std@@@2@V?$allocator@U?$pair@$$CBV?$basic_string@DU?$char_traits@D@std@@V?$allocator@D@2@@std@@V?$basic_json@Vmap@std@@Vvector@2@V?$basic_string@DU?$char_traits@D@std@@V?$allocator@D@2@@2@_N_J_KNVallocator@2@Uadl_serializer@nlohmann@@@nlohmann@@@std@@@2@@2@AAV?$allocator@V?$map@V?$basic_string@DU?$char_traits@D@std@@V?$allocator@D@2@@std@@V?$basic_json@Vmap@std@@Vvector@2@V?$basic_string@DU?$char_traits@D@std@@V?$allocator@D@2@@2@_N_J_KNVallocator@2@Uadl_serializer@nlohmann@@@nlohmann@@U?$less@V?$basic_string@DU?$char_traits@D@std@@V?$allocator@D@2@@std@@@2@V?$allocator@U?$pair@$$CBV?$basic_string@DU?$char_traits@D@std@@V?$allocator@D@2@@std@@V?$basic_json@Vmap@std@@Vvector@2@V?$basic_string@DU?$char_traits@D@std@@V?$allocator@D@2@@2@_N_J_KNVallocator@2@Uadl_serializer@nlohmann@@@nlohmann@@@std@@@2@@std@@@2@I@Z 100e6870 f i KitParser.obj
 0002:000378a0       ?allocate@?$allocator@U?$_Tree_node@U?$pair@$$CBV?$basic_string@DU?$char_traits@D@std@@V?$allocator@D@2@@std@@V12@@std@@PAX@std@@@std@@QAEPAU?$_Tree_node@U?$pair@$$CBV?$basic_string@DU?$char_traits@D@std@@V?$allocator@D@2@@std@@V12@@std@@PAX@2@I@Z 100e68a0 f i KitParser.obj
 0002:000378d0       ?allocate@?$allocator@U?$_Tree_node@U?$pair@$$CBV?$basic_string@DU?$char_traits@D@std@@V?$allocator@D@2@@std@@V?$basic_json@Vmap@std@@Vvector@2@V?$basic_string@DU?$char_traits@D@std@@V?$allocator@D@2@@2@_N_J_KNVallocator@2@Uadl_serializer@nlohmann@@@nlohmann@@@std@@PAX@std@@@std@@QAEPAU?$_Tree_node@U?$pair@$$CBV?$basic_string@DU?$char_traits@D@std@@V?$allocator@D@2@@std@@V?$basic_json@Vmap@std@@Vvector@2@V?$basic_string@DU?$char_traits@D@std@@V?$allocator@D@2@@2@_N_J_KNVallocator@2@Uadl_serializer@nlohmann@@@nlohmann@@@std@@PAX@2@I@Z 100e68d0 f i KitParser.obj
 0002:00037900       ?append@?$basic_string@DU?$char_traits@D@std@@V?$allocator@D@2@@std@@QAEAAV12@ABV12@@Z 100e6900 f i KitParser.obj
 0002:00037950       ?append@?$basic_string@DU?$char_traits@D@std@@V?$allocator@D@2@@std@@QAEAAV12@ID@Z 100e6950 f i KitParser.obj
 0002:00037a20       ?append@?$basic_string@DU?$char_traits@D@std@@V?$allocator@D@2@@std@@QAEAAV12@QBD@Z 100e6a20 f i KitParser.obj
 0002:00037a70       ?append@?$basic_string@DU?$char_traits@D@std@@V?$allocator@D@2@@std@@QAEAAV12@QBDI@Z 100e6a70 f i KitParser.obj
 0002:00037b40       ?append_exponent@dtoa_impl@detail@nlohmann@@YAPADPADH@Z 100e6b40 f i KitParser.obj
 0002:00037d10       ?arelykbqlzxybwimytkuwyaru@naxefsj@@QAEHXZ 100e6d10 f   KitParser.obj
 0002:00037f60       ?assert_invariant@?$basic_json@Vmap@std@@Vvector@2@V?$basic_string@DU?$char_traits@D@std@@V?$allocator@D@2@@2@_N_J_KNVallocator@2@Uadl_serializer@nlohmann@@@nlohmann@@ABEXXZ 100e6f60 f i KitParser.obj
 0002:00038020       ?assign@?$_WChar_traits@_W@std@@SAXAA_WAB_W@Z 100e7020 f i KitParser.obj
 0002:00038050       ?assign@?$basic_string@DU?$char_traits@D@std@@V?$allocator@D@2@@std@@QAEAAV12@ID@Z 100e7050 f i KitParser.obj
 0002:00038100       ?assign@?$char_traits@D@std@@SAPADQADID@Z 100e7100 f i KitParser.obj
 0002:00038130       ?avtrbjnghrdkznjmbitovdzqb@jkjunwr@@AAEH_NH0NNH@Z 100e7130 f   KitParser.obj
 0002:00038240       ?azkyojyusokgihzzdldlsobts@naxefsj@@QAENHHV?$basic_string@DU?$char_traits@D@std@@V?$allocator@D@2@@std@@H0N@Z 100e7240 f   KitParser.obj
 0002:00038380       ?back@?$basic_string@DU?$char_traits@D@std@@V?$allocator@D@2@@std@@QBEABDXZ 100e7380 f i KitParser.obj
 0002:000383c0       ?back@?$vector@V?$basic_json@Vmap@std@@Vvector@2@V?$basic_string@DU?$char_traits@D@std@@V?$allocator@D@2@@2@_N_J_KNVallocator@2@Uadl_serializer@nlohmann@@@nlohmann@@V?$allocator@V?$basic_json@Vmap@std@@Vvector@2@V?$basic_string@DU?$char_traits@D@std@@V?$allocator@D@2@@2@_N_J_KNVallocator@2@Uadl_serializer@nlohmann@@@nlohmann@@@std@@@std@@QAEAAV?$basic_json@Vmap@std@@Vvector@2@V?$basic_string@DU?$char_traits@D@std@@V?$allocator@D@2@@2@_N_J_KNVallocator@2@Uadl_serializer@nlohmann@@@nlohmann@@XZ 100e73c0 f i KitParser.obj
 0002:000383f0       ?begin@?$_Tree@V?$_Tmap_traits@V?$basic_string@DU?$char_traits@D@std@@V?$allocator@D@2@@std@@V12@U?$less@V?$basic_string@DU?$char_traits@D@std@@V?$allocator@D@2@@std@@@2@V?$allocator@U?$pair@$$CBV?$basic_string@DU?$char_traits@D@std@@V?$allocator@D@2@@std@@V12@@std@@@2@$0A@@std@@@std@@QAE?AV?$_Tree_iterator@V?$_Tree_val@U?$_Tree_simple_types@U?$pair@$$CBV?$basic_string@DU?$char_traits@D@std@@V?$allocator@D@2@@std@@V12@@std@@@std@@@std@@@2@XZ 100e73f0 f i KitParser.obj
 0002:00038470       ?begin@?$_Tree@V?$_Tmap_traits@V?$basic_string@DU?$char_traits@D@std@@V?$allocator@D@2@@std@@V12@U?$less@V?$basic_string@DU?$char_traits@D@std@@V?$allocator@D@2@@std@@@2@V?$allocator@U?$pair@$$CBV?$basic_string@DU?$char_traits@D@std@@V?$allocator@D@2@@std@@V12@@std@@@2@$0A@@std@@@std@@QBE?AV?$_Tree_const_iterator@V?$_Tree_val@U?$_Tree_simple_types@U?$pair@$$CBV?$basic_string@DU?$char_traits@D@std@@V?$allocator@D@2@@std@@V12@@std@@@std@@@std@@@2@XZ 100e7470 f i KitParser.obj
 0002:000384f0       ?begin@?$_Tree@V?$_Tmap_traits@V?$basic_string@DU?$char_traits@D@std@@V?$allocator@D@2@@std@@V?$basic_json@Vmap@std@@Vvector@2@V?$basic_string@DU?$char_traits@D@std@@V?$allocator@D@2@@2@_N_J_KNVallocator@2@Uadl_serializer@nlohmann@@@nlohmann@@U?$less@V?$basic_string@DU?$char_traits@D@std@@V?$allocator@D@2@@std@@@2@V?$allocator@U?$pair@$$CBV?$basic_string@DU?$char_traits@D@std@@V?$allocator@D@2@@std@@V?$basic_json@Vmap@std@@Vvector@2@V?$basic_string@DU?$char_traits@D@std@@V?$allocator@D@2@@2@_N_J_KNVallocator@2@Uadl_serializer@nlohmann@@@nlohmann@@@std@@@2@$0A@@std@@@std@@QAE?AV?$_Tree_iterator@V?$_Tree_val@U?$_Tree_simple_types@U?$pair@$$CBV?$basic_string@DU?$char_traits@D@std@@V?$allocator@D@2@@std@@V?$basic_json@Vmap@std@@Vvector@2@V?$basic_string@DU?$char_traits@D@std@@V?$allocator@D@2@@2@_N_J_KNVallocator@2@Uadl_serializer@nlohmann@@@nlohmann@@@std@@@std@@@std@@@2@XZ 100e74f0 f i KitParser.obj
 0002:00038570       ?begin@?$_Tree@V?$_Tmap_traits@V?$basic_string@DU?$char_traits@D@std@@V?$allocator@D@2@@std@@V?$basic_json@Vmap@std@@Vvector@2@V?$basic_string@DU?$char_traits@D@std@@V?$allocator@D@2@@2@_N_J_KNVallocator@2@Uadl_serializer@nlohmann@@@nlohmann@@U?$less@V?$basic_string@DU?$char_traits@D@std@@V?$allocator@D@2@@std@@@2@V?$allocator@U?$pair@$$CBV?$basic_string@DU?$char_traits@D@std@@V?$allocator@D@2@@std@@V?$basic_json@Vmap@std@@Vvector@2@V?$basic_string@DU?$char_traits@D@std@@V?$allocator@D@2@@2@_N_J_KNVallocator@2@Uadl_serializer@nlohmann@@@nlohmann@@@std@@@2@$0A@@std@@@std@@QBE?AV?$_Tree_const_iterator@V?$_Tree_val@U?$_Tree_simple_types@U?$pair@$$CBV?$basic_string@DU?$char_traits@D@std@@V?$allocator@D@2@@std@@V?$basic_json@Vmap@std@@Vvector@2@V?$basic_string@DU?$char_traits@D@std@@V?$allocator@D@2@@2@_N_J_KNVallocator@2@Uadl_serializer@nlohmann@@@nlohmann@@@std@@@std@@@std@@@2@XZ 100e7570 f i KitParser.obj
 0002:000385f0       ?begin@?$array@D$0EA@@std@@QAE?AV?$_Array_iterator@D$0EA@@2@XZ 100e75f0 f i KitParser.obj
 0002:00038660       ?begin@?$basic_string@DU?$char_traits@D@std@@V?$allocator@D@2@@std@@QAE?AV?$_String_iterator@V?$_String_val@U?$_Simple_types@D@std@@@std@@@2@XZ 100e7660 f i KitParser.obj
 0002:00038700       ?begin@?$vector@V?$basic_json@Vmap@std@@Vvector@2@V?$basic_string@DU?$char_traits@D@std@@V?$allocator@D@2@@2@_N_J_KNVallocator@2@Uadl_serializer@nlohmann@@@nlohmann@@V?$allocator@V?$basic_json@Vmap@std@@Vvector@2@V?$basic_string@DU?$char_traits@D@std@@V?$allocator@D@2@@2@_N_J_KNVallocator@2@Uadl_serializer@nlohmann@@@nlohmann@@@std@@@std@@QBE?AV?$_Vector_const_iterator@V?$_Vector_val@U?$_Simple_types@V?$basic_json@Vmap@std@@Vvector@2@V?$basic_string@DU?$char_traits@D@std@@V?$allocator@D@2@@2@_N_J_KNVallocator@2@Uadl_serializer@nlohmann@@@nlohmann@@@std@@@std@@@2@XZ 100e7700 f i KitParser.obj
 0002:00038780       ?bsjnvorcwjqcrylo@jkjunwr@@AAE_N_NV?$basic_string@DU?$char_traits@D@std@@V?$allocator@D@2@@std@@01@Z 100e7780 f   KitParser.obj
 0002:000389a0       ?c_str@?$basic_string@DU?$char_traits@D@std@@V?$allocator@D@2@@std@@QBEPBDXZ 100e79a0 f i KitParser.obj
 0002:00038a00       ?capacity@?$basic_string@DU?$char_traits@D@std@@V?$allocator@D@2@@std@@QBEIXZ 100e7a00 f i KitParser.obj
 0002:00038a30       ?capacity@?$vector@V?$basic_json@Vmap@std@@Vvector@2@V?$basic_string@DU?$char_traits@D@std@@V?$allocator@D@2@@2@_N_J_KNVallocator@2@Uadl_serializer@nlohmann@@@nlohmann@@V?$allocator@V?$basic_json@Vmap@std@@Vvector@2@V?$basic_string@DU?$char_traits@D@std@@V?$allocator@D@2@@2@_N_J_KNVallocator@2@Uadl_serializer@nlohmann@@@nlohmann@@@std@@@std@@QBEIXZ 100e7a30 f i KitParser.obj
 0002:00038a70       ?cbegin@?$_Tree@V?$_Tmap_traits@V?$basic_string@DU?$char_traits@D@std@@V?$allocator@D@2@@std@@V?$basic_json@Vmap@std@@Vvector@2@V?$basic_string@DU?$char_traits@D@std@@V?$allocator@D@2@@2@_N_J_KNVallocator@2@Uadl_serializer@nlohmann@@@nlohmann@@U?$less@V?$basic_string@DU?$char_traits@D@std@@V?$allocator@D@2@@std@@@2@V?$allocator@U?$pair@$$CBV?$basic_string@DU?$char_traits@D@std@@V?$allocator@D@2@@std@@V?$basic_json@Vmap@std@@Vvector@2@V?$basic_string@DU?$char_traits@D@std@@V?$allocator@D@2@@2@_N_J_KNVallocator@2@Uadl_serializer@nlohmann@@@nlohmann@@@std@@@2@$0A@@std@@@std@@QBE?AV?$_Tree_const_iterator@V?$_Tree_val@U?$_Tree_simple_types@U?$pair@$$CBV?$basic_string@DU?$char_traits@D@std@@V?$allocator@D@2@@std@@V?$basic_json@Vmap@std@@Vvector@2@V?$basic_string@DU?$char_traits@D@std@@V?$allocator@D@2@@2@_N_J_KNVallocator@2@Uadl_serializer@nlohmann@@@nlohmann@@@std@@@std@@@std@@@2@XZ 100e7a70 f i KitParser.obj
 0002:00038aa0       ?cbegin@?$vector@V?$basic_json@Vmap@std@@Vvector@2@V?$basic_string@DU?$char_traits@D@std@@V?$allocator@D@2@@2@_N_J_KNVallocator@2@Uadl_serializer@nlohmann@@@nlohmann@@V?$allocator@V?$basic_json@Vmap@std@@Vvector@2@V?$basic_string@DU?$char_traits@D@std@@V?$allocator@D@2@@2@_N_J_KNVallocator@2@Uadl_serializer@nlohmann@@@nlohmann@@@std@@@std@@QBE?AV?$_Vector_const_iterator@V?$_Vector_val@U?$_Simple_types@V?$basic_json@Vmap@std@@Vvector@2@V?$basic_string@DU?$char_traits@D@std@@V?$allocator@D@2@@2@_N_J_KNVallocator@2@Uadl_serializer@nlohmann@@@nlohmann@@@std@@@std@@@2@XZ 100e7aa0 f i KitParser.obj
 0002:00038ad0       ?cczwmlhtjzxrprskvbw@jkjunwr@@IAEHV?$basic_string@DU?$char_traits@D@std@@V?$allocator@D@2@@std@@@Z 100e7ad0 f   KitParser.obj
 0002:00038bd0       ?cend@?$_Tree@V?$_Tmap_traits@V?$basic_string@DU?$char_traits@D@std@@V?$allocator@D@2@@std@@V?$basic_json@Vmap@std@@Vvector@2@V?$basic_string@DU?$char_traits@D@std@@V?$allocator@D@2@@2@_N_J_KNVallocator@2@Uadl_serializer@nlohmann@@@nlohmann@@U?$less@V?$basic_string@DU?$char_traits@D@std@@V?$allocator@D@2@@std@@@2@V?$allocator@U?$pair@$$CBV?$basic_string@DU?$char_traits@D@std@@V?$allocator@D@2@@std@@V?$basic_json@Vmap@std@@Vvector@2@V?$basic_string@DU?$char_traits@D@std@@V?$allocator@D@2@@2@_N_J_KNVallocator@2@Uadl_serializer@nlohmann@@@nlohmann@@@std@@@2@$0A@@std@@@std@@QBE?AV?$_Tree_const_iterator@V?$_Tree_val@U?$_Tree_simple_types@U?$pair@$$CBV?$basic_string@DU?$char_traits@D@std@@V?$allocator@D@2@@std@@V?$basic_json@Vmap@std@@Vvector@2@V?$basic_string@DU?$char_traits@D@std@@V?$allocator@D@2@@2@_N_J_KNVallocator@2@Uadl_serializer@nlohmann@@@nlohmann@@@std@@@std@@@std@@@2@XZ 100e7bd0 f i KitParser.obj
 0002:00038c00       ?cend@?$vector@V?$basic_json@Vmap@std@@Vvector@2@V?$basic_string@DU?$char_traits@D@std@@V?$allocator@D@2@@2@_N_J_KNVallocator@2@Uadl_serializer@nlohmann@@@nlohmann@@V?$allocator@V?$basic_json@Vmap@std@@Vvector@2@V?$basic_string@DU?$char_traits@D@std@@V?$allocator@D@2@@2@_N_J_KNVallocator@2@Uadl_serializer@nlohmann@@@nlohmann@@@std@@@std@@QBE?AV?$_Vector_const_iterator@V?$_Vector_val@U?$_Simple_types@V?$basic_json@Vmap@std@@Vvector@2@V?$basic_string@DU?$char_traits@D@std@@V?$allocator@D@2@@2@_N_J_KNVallocator@2@Uadl_serializer@nlohmann@@@nlohmann@@@std@@@std@@@2@XZ 100e7c00 f i KitParser.obj
 0002:00038c30       ?clear@?$_Tree@V?$_Tmap_traits@V?$basic_string@DU?$char_traits@D@std@@V?$allocator@D@2@@std@@V?$basic_json@Vmap@std@@Vvector@2@V?$basic_string@DU?$char_traits@D@std@@V?$allocator@D@2@@2@_N_J_KNVallocator@2@Uadl_serializer@nlohmann@@@nlohmann@@U?$less@V?$basic_string@DU?$char_traits@D@std@@V?$allocator@D@2@@std@@@2@V?$allocator@U?$pair@$$CBV?$basic_string@DU?$char_traits@D@std@@V?$allocator@D@2@@std@@V?$basic_json@Vmap@std@@Vvector@2@V?$basic_string@DU?$char_traits@D@std@@V?$allocator@D@2@@2@_N_J_KNVallocator@2@Uadl_serializer@nlohmann@@@nlohmann@@@std@@@2@$0A@@std@@@std@@QAEXXZ 100e7c30 f i KitParser.obj
 0002:00038d00       ?close@?$basic_filebuf@DU?$char_traits@D@std@@@std@@QAEPAV12@XZ 100e7d00 f i KitParser.obj
 0002:00038d90       ?compare@?$basic_string@DU?$char_traits@D@std@@V?$allocator@D@2@@std@@QBEHABV12@@Z 100e7d90 f i KitParser.obj
 0002:00038e30       ?compare@?$char_traits@D@std@@SAHQBD0I@Z 100e7e30 f i KitParser.obj
 0002:00038e60       ?create@type_error@detail@nlohmann@@SA?AV123@HABV?$basic_string@DU?$char_traits@D@std@@V?$allocator@D@2@@std@@@Z 100e7e60 f i KitParser.obj
 0002:00038fa0       ?csxiqxqgei@trfivjo@@IAE?AV?$basic_string@DU?$char_traits@D@std@@V?$allocator@D@2@@std@@V23@NHNHHH@Z 100e7fa0 f   KitParser.obj
 0002:00039070       ?data@?$array@D$0CAA@@std@@QAEPADXZ 100e8070 f i KitParser.obj
 0002:00039090       ?data@?$array@D$0EA@@std@@QAEPADXZ 100e8090 f i KitParser.obj
 0002:000390b0       ?deallocate@?$_Default_allocator_traits@V?$allocator@U?$_Tree_node@U?$pair@$$CBV?$basic_string@DU?$char_traits@D@std@@V?$allocator@D@2@@std@@V12@@std@@PAX@std@@@std@@@std@@SAXAAV?$allocator@U?$_Tree_node@U?$pair@$$CBV?$basic_string@DU?$char_traits@D@std@@V?$allocator@D@2@@std@@V12@@std@@PAX@std@@@2@QAU?$_Tree_node@U?$pair@$$CBV?$basic_string@DU?$char_traits@D@std@@V?$allocator@D@2@@std@@V12@@std@@PAX@2@I@Z 100e80b0 f i KitParser.obj
 0002:000390e0       ?deallocate@?$_Default_allocator_traits@V?$allocator@U?$_Tree_node@U?$pair@$$CBV?$basic_string@DU?$char_traits@D@std@@V?$allocator@D@2@@std@@V?$basic_json@Vmap@std@@Vvector@2@V?$basic_string@DU?$char_traits@D@std@@V?$allocator@D@2@@2@_N_J_KNVallocator@2@Uadl_serializer@nlohmann@@@nlohmann@@@std@@PAX@std@@@std@@@std@@SAXAAV?$allocator@U?$_Tree_node@U?$pair@$$CBV?$basic_string@DU?$char_traits@D@std@@V?$allocator@D@2@@std@@V?$basic_json@Vmap@std@@Vvector@2@V?$basic_string@DU?$char_traits@D@std@@V?$allocator@D@2@@2@_N_J_KNVallocator@2@Uadl_serializer@nlohmann@@@nlohmann@@@std@@PAX@std@@@2@QAU?$_Tree_node@U?$pair@$$CBV?$basic_string@DU?$char_traits@D@std@@V?$allocator@D@2@@std@@V?$basic_json@Vmap@std@@Vvector@2@V?$basic_string@DU?$char_traits@D@std@@V?$allocator@D@2@@2@_N_J_KNVallocator@2@Uadl_serializer@nlohmann@@@nlohmann@@@std@@PAX@2@I@Z 100e80e0 f i KitParser.obj
 0002:00039110       ?deallocate@?$_Default_allocator_traits@V?$allocator@V?$basic_string@DU?$char_traits@D@std@@V?$allocator@D@2@@std@@@std@@@std@@SAXAAV?$allocator@V?$basic_string@DU?$char_traits@D@std@@V?$allocator@D@2@@std@@@2@QAV?$basic_string@DU?$char_traits@D@std@@V?$allocator@D@2@@2@I@Z 100e8110 f i KitParser.obj
 0002:00039140       ?deallocate@?$_Default_allocator_traits@V?$allocator@V?$map@V?$basic_string@DU?$char_traits@D@std@@V?$allocator@D@2@@std@@V?$basic_json@Vmap@std@@Vvector@2@V?$basic_string@DU?$char_traits@D@std@@V?$allocator@D@2@@2@_N_J_KNVallocator@2@Uadl_serializer@nlohmann@@@nlohmann@@U?$less@V?$basic_string@DU?$char_traits@D@std@@V?$allocator@D@2@@std@@@2@V?$allocator@U?$pair@$$CBV?$basic_string@DU?$char_traits@D@std@@V?$allocator@D@2@@std@@V?$basic_json@Vmap@std@@Vvector@2@V?$basic_string@DU?$char_traits@D@std@@V?$allocator@D@2@@2@_N_J_KNVallocator@2@Uadl_serializer@nlohmann@@@nlohmann@@@std@@@2@@std@@@std@@@std@@SAXAAV?$allocator@V?$map@V?$basic_string@DU?$char_traits@D@std@@V?$allocator@D@2@@std@@V?$basic_json@Vmap@std@@Vvector@2@V?$basic_string@DU?$char_traits@D@std@@V?$allocator@D@2@@2@_N_J_KNVallocator@2@Uadl_serializer@nlohmann@@@nlohmann@@U?$less@V?$basic_string@DU?$char_traits@D@std@@V?$allocator@D@2@@std@@@2@V?$allocator@U?$pair@$$CBV?$basic_string@DU?$char_traits@D@std@@V?$allocator@D@2@@std@@V?$basic_json@Vmap@std@@Vvector@2@V?$basic_string@DU?$char_traits@D@std@@V?$allocator@D@2@@2@_N_J_KNVallocator@2@Uadl_serializer@nlohmann@@@nlohmann@@@std@@@2@@std@@@2@QAV?$map@V?$basic_string@DU?$char_traits@D@std@@V?$allocator@D@2@@std@@V?$basic_json@Vmap@std@@Vvector@2@V?$basic_string@DU?$char_traits@D@std@@V?$allocator@D@2@@2@_N_J_KNVallocator@2@Uadl_serializer@nlohmann@@@nlohmann@@U?$less@V?$basic_string@DU?$char_traits@D@std@@V?$allocator@D@2@@std@@@2@V?$allocator@U?$pair@$$CBV?$basic_string@DU?$char_traits@D@std@@V?$allocator@D@2@@std@@V?$basic_json@Vmap@std@@Vvector@2@V?$basic_string@DU?$char_traits@D@std@@V?$allocator@D@2@@2@_N_J_KNVallocator@2@Uadl_serializer@nlohmann@@@nlohmann@@@std@@@2@@2@I@Z 100e8140 f i KitParser.obj
 0002:00039170       ?deallocate@?$_Default_allocator_traits@V?$allocator@V?$vector@V?$basic_json@Vmap@std@@Vvector@2@V?$basic_string@DU?$char_traits@D@std@@V?$allocator@D@2@@2@_N_J_KNVallocator@2@Uadl_serializer@nlohmann@@@nlohmann@@V?$allocator@V?$basic_json@Vmap@std@@Vvector@2@V?$basic_string@DU?$char_traits@D@std@@V?$allocator@D@2@@2@_N_J_KNVallocator@2@Uadl_serializer@nlohmann@@@nlohmann@@@std@@@std@@@std@@@std@@SAXAAV?$allocator@V?$vector@V?$basic_json@Vmap@std@@Vvector@2@V?$basic_string@DU?$char_traits@D@std@@V?$allocator@D@2@@2@_N_J_KNVallocator@2@Uadl_serializer@nlohmann@@@nlohmann@@V?$allocator@V?$basic_json@Vmap@std@@Vvector@2@V?$basic_string@DU?$char_traits@D@std@@V?$allocator@D@2@@2@_N_J_KNVallocator@2@Uadl_serializer@nlohmann@@@nlohmann@@@std@@@std@@@2@QAV?$vector@V?$basic_json@Vmap@std@@Vvector@2@V?$basic_string@DU?$char_traits@D@std@@V?$allocator@D@2@@2@_N_J_KNVallocator@2@Uadl_serializer@nlohmann@@@nlohmann@@V?$allocator@V?$basic_json@Vmap@std@@Vvector@2@V?$basic_string@DU?$char_traits@D@std@@V?$allocator@D@2@@2@_N_J_KNVallocator@2@Uadl_serializer@nlohmann@@@nlohmann@@@std@@@2@I@Z 100e8170 f i KitParser.obj
 0002:000391a0       ?deallocate@?$allocator@U?$_Tree_node@U?$pair@$$CBV?$basic_string@DU?$char_traits@D@std@@V?$allocator@D@2@@std@@V12@@std@@PAX@std@@@std@@QAEXQAU?$_Tree_node@U?$pair@$$CBV?$basic_string@DU?$char_traits@D@std@@V?$allocator@D@2@@std@@V12@@std@@PAX@2@I@Z 100e81a0 f i KitParser.obj
 0002:000391e0       ?deallocate@?$allocator@U?$_Tree_node@U?$pair@$$CBV?$basic_string@DU?$char_traits@D@std@@V?$allocator@D@2@@std@@V?$basic_json@Vmap@std@@Vvector@2@V?$basic_string@DU?$char_traits@D@std@@V?$allocator@D@2@@2@_N_J_KNVallocator@2@Uadl_serializer@nlohmann@@@nlohmann@@@std@@PAX@std@@@std@@QAEXQAU?$_Tree_node@U?$pair@$$CBV?$basic_string@DU?$char_traits@D@std@@V?$allocator@D@2@@std@@V?$basic_json@Vmap@std@@Vvector@2@V?$basic_string@DU?$char_traits@D@std@@V?$allocator@D@2@@2@_N_J_KNVallocator@2@Uadl_serializer@nlohmann@@@nlohmann@@@std@@PAX@2@I@Z 100e81e0 f i KitParser.obj
 0002:00039220       ?deallocate@?$allocator@V?$basic_json@Vmap@std@@Vvector@2@V?$basic_string@DU?$char_traits@D@std@@V?$allocator@D@2@@2@_N_J_KNVallocator@2@Uadl_serializer@nlohmann@@@nlohmann@@@std@@QAEXQAV?$basic_json@Vmap@std@@Vvector@2@V?$basic_string@DU?$char_traits@D@std@@V?$allocator@D@2@@2@_N_J_KNVallocator@2@Uadl_serializer@nlohmann@@@nlohmann@@I@Z 100e8220 f i KitParser.obj
 0002:00039260       ?deallocate@?$allocator@_W@std@@QAEXQA_WI@Z 100e8260 f i KitParser.obj
 0002:000392a0       ?decode@?$serializer@V?$basic_json@Vmap@std@@Vvector@2@V?$basic_string@DU?$char_traits@D@std@@V?$allocator@D@2@@2@_N_J_KNVallocator@2@Uadl_serializer@nlohmann@@@nlohmann@@@detail@nlohmann@@CAEAAEAAIE@Z 100e82a0 f i KitParser.obj
 0002:00039390       ?destroy@json_value@?$basic_json@Vmap@std@@Vvector@2@V?$basic_string@DU?$char_traits@D@std@@V?$allocator@D@2@@2@_N_J_KNVallocator@2@Uadl_serializer@nlohmann@@@nlohmann@@QAEXW4value_t@detail@3@@Z 100e8390 f i KitParser.obj
 0002:000394d0       ?dlhjgnvopsgdmirbztgvf@jkjunwr@@IAEX_NNV?$basic_string@DU?$char_traits@D@std@@V?$allocator@D@2@@std@@0101H@Z 100e84d0 f   KitParser.obj
 0002:000395d0       ?do_always_noconv@?$codecvt_utf8_utf16@_W$0BAPPPP@$0A@@std@@MBE_NXZ 100e85d0 f i KitParser.obj
 0002:000395f0       ?do_encoding@?$codecvt_utf8_utf16@_W$0BAPPPP@$0A@@std@@MBEHXZ 100e85f0 f i KitParser.obj
 0002:00039610       ?do_in@?$codecvt_utf8_utf16@_W$0BAPPPP@$0A@@std@@MBEHAAU_Mbstatet@@PBD1AAPBDPA_W3AAPA_W@Z 100e8610 f i KitParser.obj
 0002:00039ad0       ?do_length@?$codecvt_utf8_utf16@_W$0BAPPPP@$0A@@std@@MBEHAAU_Mbstatet@@PBD1I@Z 100e8ad0 f i KitParser.obj
 0002:00039be0       ?do_max_length@?$codecvt_utf8_utf16@_W$0BAPPPP@$0A@@std@@MBEHXZ 100e8be0 f i KitParser.obj
 0002:00039c00       ?do_out@?$codecvt_utf8_utf16@_W$0BAPPPP@$0A@@std@@MBEHAAU_Mbstatet@@PB_W1AAPB_WPAD3AAPAD@Z 100e8c00 f i KitParser.obj
 0002:00039f70       ?do_unshift@?$codecvt_utf8_utf16@_W$0BAPPPP@$0A@@std@@MBEHAAU_Mbstatet@@PAD1AAPAD@Z 100e8f70 f i KitParser.obj
 0002:00039fd0       ?dump@?$serializer@V?$basic_json@Vmap@std@@Vvector@2@V?$basic_string@DU?$char_traits@D@std@@V?$allocator@D@2@@2@_N_J_KNVallocator@2@Uadl_serializer@nlohmann@@@nlohmann@@@detail@nlohmann@@QAEXABV?$basic_json@Vmap@std@@Vvector@2@V?$basic_string@DU?$char_traits@D@std@@V?$allocator@D@2@@2@_N_J_KNVallocator@2@Uadl_serializer@nlohmann@@@3@_N1II@Z 100e8fd0 f i KitParser.obj
 0002:0003ae30       ?dump_escaped@?$serializer@V?$basic_json@Vmap@std@@Vvector@2@V?$basic_string@DU?$char_traits@D@std@@V?$allocator@D@2@@2@_N_J_KNVallocator@2@Uadl_serializer@nlohmann@@@nlohmann@@@detail@nlohmann@@AAEXABV?$basic_string@DU?$char_traits@D@std@@V?$allocator@D@2@@std@@_N@Z 100e9e30 f i KitParser.obj
 0002:0003b960       ?dump_float@?$serializer@V?$basic_json@Vmap@std@@Vvector@2@V?$basic_string@DU?$char_traits@D@std@@V?$allocator@D@2@@2@_N_J_KNVallocator@2@Uadl_serializer@nlohmann@@@nlohmann@@@detail@nlohmann@@AAEXN@Z 100ea960 f i KitParser.obj
 0002:0003b9f0       ?dump_float@?$serializer@V?$basic_json@Vmap@std@@Vvector@2@V?$basic_string@DU?$char_traits@D@std@@V?$allocator@D@2@@2@_N_J_KNVallocator@2@Uadl_serializer@nlohmann@@@nlohmann@@@detail@nlohmann@@AAEXNU?$integral_constant@_N$00@std@@@Z 100ea9f0 f i KitParser.obj
 0002:0003ba80       ?empty@?$_Tree@V?$_Tmap_traits@V?$basic_string@DU?$char_traits@D@std@@V?$allocator@D@2@@std@@V?$basic_json@Vmap@std@@Vvector@2@V?$basic_string@DU?$char_traits@D@std@@V?$allocator@D@2@@2@_N_J_KNVallocator@2@Uadl_serializer@nlohmann@@@nlohmann@@U?$less@V?$basic_string@DU?$char_traits@D@std@@V?$allocator@D@2@@std@@@2@V?$allocator@U?$pair@$$CBV?$basic_string@DU?$char_traits@D@std@@V?$allocator@D@2@@std@@V?$basic_json@Vmap@std@@Vvector@2@V?$basic_string@DU?$char_traits@D@std@@V?$allocator@D@2@@2@_N_J_KNVallocator@2@Uadl_serializer@nlohmann@@@nlohmann@@@std@@@2@$0A@@std@@@std@@QBE_NXZ 100eaa80 f i KitParser.obj
 0002:0003bac0       ?empty@?$vector@V?$basic_json@Vmap@std@@Vvector@2@V?$basic_string@DU?$char_traits@D@std@@V?$allocator@D@2@@2@_N_J_KNVallocator@2@Uadl_serializer@nlohmann@@@nlohmann@@V?$allocator@V?$basic_json@Vmap@std@@Vvector@2@V?$basic_string@DU?$char_traits@D@std@@V?$allocator@D@2@@2@_N_J_KNVallocator@2@Uadl_serializer@nlohmann@@@nlohmann@@@std@@@std@@QBE_NXZ 100eaac0 f i KitParser.obj
 0002:0003bb10       ?end@?$_Tree@V?$_Tmap_traits@V?$basic_string@DU?$char_traits@D@std@@V?$allocator@D@2@@std@@V12@U?$less@V?$basic_string@DU?$char_traits@D@std@@V?$allocator@D@2@@std@@@2@V?$allocator@U?$pair@$$CBV?$basic_string@DU?$char_traits@D@std@@V?$allocator@D@2@@std@@V12@@std@@@2@$0A@@std@@@std@@QAE?AV?$_Tree_iterator@V?$_Tree_val@U?$_Tree_simple_types@U?$pair@$$CBV?$basic_string@DU?$char_traits@D@std@@V?$allocator@D@2@@std@@V12@@std@@@std@@@std@@@2@XZ 100eab10 f i KitParser.obj
 0002:0003bb90       ?end@?$_Tree@V?$_Tmap_traits@V?$basic_string@DU?$char_traits@D@std@@V?$allocator@D@2@@std@@V12@U?$less@V?$basic_string@DU?$char_traits@D@std@@V?$allocator@D@2@@std@@@2@V?$allocator@U?$pair@$$CBV?$basic_string@DU?$char_traits@D@std@@V?$allocator@D@2@@std@@V12@@std@@@2@$0A@@std@@@std@@QBE?AV?$_Tree_const_iterator@V?$_Tree_val@U?$_Tree_simple_types@U?$pair@$$CBV?$basic_string@DU?$char_traits@D@std@@V?$allocator@D@2@@std@@V12@@std@@@std@@@std@@@2@XZ 100eab90 f i KitParser.obj
 0002:0003bc10       ?end@?$_Tree@V?$_Tmap_traits@V?$basic_string@DU?$char_traits@D@std@@V?$allocator@D@2@@std@@V?$basic_json@Vmap@std@@Vvector@2@V?$basic_string@DU?$char_traits@D@std@@V?$allocator@D@2@@2@_N_J_KNVallocator@2@Uadl_serializer@nlohmann@@@nlohmann@@U?$less@V?$basic_string@DU?$char_traits@D@std@@V?$allocator@D@2@@std@@@2@V?$allocator@U?$pair@$$CBV?$basic_string@DU?$char_traits@D@std@@V?$allocator@D@2@@std@@V?$basic_json@Vmap@std@@Vvector@2@V?$basic_string@DU?$char_traits@D@std@@V?$allocator@D@2@@2@_N_J_KNVallocator@2@Uadl_serializer@nlohmann@@@nlohmann@@@std@@@2@$0A@@std@@@std@@QAE?AV?$_Tree_iterator@V?$_Tree_val@U?$_Tree_simple_types@U?$pair@$$CBV?$basic_string@DU?$char_traits@D@std@@V?$allocator@D@2@@std@@V?$basic_json@Vmap@std@@Vvector@2@V?$basic_string@DU?$char_traits@D@std@@V?$allocator@D@2@@2@_N_J_KNVallocator@2@Uadl_serializer@nlohmann@@@nlohmann@@@std@@@std@@@std@@@2@XZ 100eac10 f i KitParser.obj
 0002:0003bc90       ?end@?$_Tree@V?$_Tmap_traits@V?$basic_string@DU?$char_traits@D@std@@V?$allocator@D@2@@std@@V?$basic_json@Vmap@std@@Vvector@2@V?$basic_string@DU?$char_traits@D@std@@V?$allocator@D@2@@2@_N_J_KNVallocator@2@Uadl_serializer@nlohmann@@@nlohmann@@U?$less@V?$basic_string@DU?$char_traits@D@std@@V?$allocator@D@2@@std@@@2@V?$allocator@U?$pair@$$CBV?$basic_string@DU?$char_traits@D@std@@V?$allocator@D@2@@std@@V?$basic_json@Vmap@std@@Vvector@2@V?$basic_string@DU?$char_traits@D@std@@V?$allocator@D@2@@2@_N_J_KNVallocator@2@Uadl_serializer@nlohmann@@@nlohmann@@@std@@@2@$0A@@std@@@std@@QBE?AV?$_Tree_const_iterator@V?$_Tree_val@U?$_Tree_simple_types@U?$pair@$$CBV?$basic_string@DU?$char_traits@D@std@@V?$allocator@D@2@@std@@V?$basic_json@Vmap@std@@Vvector@2@V?$basic_string@DU?$char_traits@D@std@@V?$allocator@D@2@@2@_N_J_KNVallocator@2@Uadl_serializer@nlohmann@@@nlohmann@@@std@@@std@@@std@@@2@XZ 100eac90 f i KitParser.obj
 0002:0003bd10       ?end@?$basic_string@DU?$char_traits@D@std@@V?$allocator@D@2@@std@@QBE?AV?$_String_const_iterator@V?$_String_val@U?$_Simple_types@D@std@@@std@@@2@XZ 100ead10 f i KitParser.obj
 0002:0003bdb0       ?end@?$vector@V?$basic_json@Vmap@std@@Vvector@2@V?$basic_string@DU?$char_traits@D@std@@V?$allocator@D@2@@2@_N_J_KNVallocator@2@Uadl_serializer@nlohmann@@@nlohmann@@V?$allocator@V?$basic_json@Vmap@std@@Vvector@2@V?$basic_string@DU?$char_traits@D@std@@V?$allocator@D@2@@2@_N_J_KNVallocator@2@Uadl_serializer@nlohmann@@@nlohmann@@@std@@@std@@QBE?AV?$_Vector_const_iterator@V?$_Vector_val@U?$_Simple_types@V?$basic_json@Vmap@std@@Vvector@2@V?$basic_string@DU?$char_traits@D@std@@V?$allocator@D@2@@2@_N_J_KNVallocator@2@Uadl_serializer@nlohmann@@@nlohmann@@@std@@@std@@@2@XZ 100eadb0 f i KitParser.obj
 0002:0003be30       ?eof@?$char_traits@D@std@@SAHXZ 100eae30 f i KitParser.obj
 0002:0003be50       ?eq@?$char_traits@D@std@@SA_NABD0@Z 100eae50 f i KitParser.obj
 0002:0003be90       ?eq_int_type@?$char_traits@D@std@@SA_NABH0@Z 100eae90 f i KitParser.obj
 0002:0003bed0       ?erase@?$_Tree@V?$_Tmap_traits@V?$basic_string@DU?$char_traits@D@std@@V?$allocator@D@2@@std@@V?$basic_json@Vmap@std@@Vvector@2@V?$basic_string@DU?$char_traits@D@std@@V?$allocator@D@2@@2@_N_J_KNVallocator@2@Uadl_serializer@nlohmann@@@nlohmann@@U?$less@V?$basic_string@DU?$char_traits@D@std@@V?$allocator@D@2@@std@@@2@V?$allocator@U?$pair@$$CBV?$basic_string@DU?$char_traits@D@std@@V?$allocator@D@2@@std@@V?$basic_json@Vmap@std@@Vvector@2@V?$basic_string@DU?$char_traits@D@std@@V?$allocator@D@2@@2@_N_J_KNVallocator@2@Uadl_serializer@nlohmann@@@nlohmann@@@std@@@2@$0A@@std@@@std@@QAE?AV?$_Tree_iterator@V?$_Tree_val@U?$_Tree_simple_types@U?$pair@$$CBV?$basic_string@DU?$char_traits@D@std@@V?$allocator@D@2@@std@@V?$basic_json@Vmap@std@@Vvector@2@V?$basic_string@DU?$char_traits@D@std@@V?$allocator@D@2@@2@_N_J_KNVallocator@2@Uadl_serializer@nlohmann@@@nlohmann@@@std@@@std@@@std@@@2@V?$_Tree_const_iterator@V?$_Tree_val@U?$_Tree_simple_types@U?$pair@$$CBV?$basic_string@DU?$char_traits@D@std@@V?$allocator@D@2@@std@@V?$basic_json@Vmap@std@@Vvector@2@V?$basic_string@DU?$char_traits@D@std@@V?$allocator@D@2@@2@_N_J_KNVallocator@2@Uadl_serializer@nlohmann@@@nlohmann@@@std@@@std@@@std@@@2@0@Z 100eaed0 f i KitParser.obj
 0002:0003bfc0       ?erase@?$_Tree@V?$_Tmap_traits@V?$basic_string@DU?$char_traits@D@std@@V?$allocator@D@2@@std@@V?$basic_json@Vmap@std@@Vvector@2@V?$basic_string@DU?$char_traits@D@std@@V?$allocator@D@2@@2@_N_J_KNVallocator@2@Uadl_serializer@nlohmann@@@nlohmann@@U?$less@V?$basic_string@DU?$char_traits@D@std@@V?$allocator@D@2@@std@@@2@V?$allocator@U?$pair@$$CBV?$basic_string@DU?$char_traits@D@std@@V?$allocator@D@2@@std@@V?$basic_json@Vmap@std@@Vvector@2@V?$basic_string@DU?$char_traits@D@std@@V?$allocator@D@2@@2@_N_J_KNVallocator@2@Uadl_serializer@nlohmann@@@nlohmann@@@std@@@2@$0A@@std@@@std@@QAE?AV?$_Tree_iterator@V?$_Tree_val@U?$_Tree_simple_types@U?$pair@$$CBV?$basic_string@DU?$char_traits@D@std@@V?$allocator@D@2@@std@@V?$basic_json@Vmap@std@@Vvector@2@V?$basic_string@DU?$char_traits@D@std@@V?$allocator@D@2@@2@_N_J_KNVallocator@2@Uadl_serializer@nlohmann@@@nlohmann@@@std@@@std@@@std@@@2@V?$_Tree_const_iterator@V?$_Tree_val@U?$_Tree_simple_types@U?$pair@$$CBV?$basic_string@DU?$char_traits@D@std@@V?$allocator@D@2@@std@@V?$basic_json@Vmap@std@@Vvector@2@V?$basic_string@DU?$char_traits@D@std@@V?$allocator@D@2@@2@_N_J_KNVallocator@2@Uadl_serializer@nlohmann@@@nlohmann@@@std@@@std@@@std@@@2@@Z 100eafc0 f i KitParser.obj
 0002:0003c0a0       ?erase@?$basic_string@DU?$char_traits@D@std@@V?$allocator@D@2@@std@@QAEAAV12@II@Z 100eb0a0 f i KitParser.obj
 0002:0003c160       ?facfclsvdqjfrtrhrdnfx@trfivjo@@IAENH_NNV?$basic_string@DU?$char_traits@D@std@@V?$allocator@D@2@@std@@01H@Z 100eb160 f   KitParser.obj
 0002:0003c3b0       ?fcohtxxoknqkmkdrkir@trfivjo@@AAEXV?$basic_string@DU?$char_traits@D@std@@V?$allocator@D@2@@std@@H_N01N@Z 100eb3b0 f   KitParser.obj
 0002:0003c3e0       ?find_largest_pow10@dtoa_impl@detail@nlohmann@@YAHIAAI@Z 100eb3e0 f i KitParser.obj
 0002:0003c550       ?fofltbgoaezibumnhpais@trfivjo@@IAE_NNNV?$basic_string@DU?$char_traits@D@std@@V?$allocator@D@2@@std@@0H0H@Z 100eb550 f   KitParser.obj
 0002:0003c6c0       ?format_buffer@dtoa_impl@detail@nlohmann@@YAPADPADHHHH@Z 100eb6c0 f i KitParser.obj
 0002:0003c940       ?fpclassify@@YAHN@Z        100eb940 f i KitParser.obj
 0002:0003c970       ?get@?$_Ptr_base@U?$output_adapter_protocol@D@detail@nlohmann@@@std@@IBEPAU?$output_adapter_protocol@D@detail@nlohmann@@XZ 100eb970 f i KitParser.obj
 0002:0003c9f0       ?get_cached_power_for_binary_exponent@dtoa_impl@detail@nlohmann@@YA?AUcached_power@123@H@Z 100eb9f0 f i KitParser.obj
 0002:0003cc60       ?gigqwohribcbhlc@naxefsj@@AAE_NH_NHNH@Z 100ebc60 f   KitParser.obj
 0002:0003ccf0       ?grisu2@dtoa_impl@detail@nlohmann@@YAXPADAAH1Udiyfp@123@22@Z 100ebcf0 f i KitParser.obj
 0002:0003cf30       ?grisu2_digit_gen@dtoa_impl@detail@nlohmann@@YAXPADAAH1Udiyfp@123@22@Z 100ebf30 f i KitParser.obj
 0002:0003d410       ?grisu2_round@dtoa_impl@detail@nlohmann@@YAXPADH_K111@Z 100ec410 f i KitParser.obj
 0002:0003d640       ?gydfzzigxykmfmjffgrrsxkv@trfivjo@@IAE?AV?$basic_string@DU?$char_traits@D@std@@V?$allocator@D@2@@std@@_NNV23@NNN@Z 100ec640 f   KitParser.obj
 0002:0003d740       ?hex@std@@YAAAVios_base@1@AAV21@@Z 100ec740 f i KitParser.obj
 0002:0003d770       ?hufhisgnig@trfivjo@@AAE?AV?$basic_string@DU?$char_traits@D@std@@V?$allocator@D@2@@std@@V23@000N_N1N@Z 100ec770 f   KitParser.obj
 0002:0003d8f0       ?hvaysxyoedznhdizlpqqhmcc@naxefsj@@QAEHV?$basic_string@DU?$char_traits@D@std@@V?$allocator@D@2@@std@@NHHHH@Z 100ec8f0 f   KitParser.obj
 0002:0003dd00       ?hwhnpdwlieeumvtmt@naxefsj@@IAEH_NV?$basic_string@DU?$char_traits@D@std@@V?$allocator@D@2@@std@@1NN0@Z 100ecd00 f   KitParser.obj
 0002:0003ddb0       ?hyjuoloaqxjd@naxefsj@@AAE_NV?$basic_string@DU?$char_traits@D@std@@V?$allocator@D@2@@std@@HN0NH0@Z 100ecdb0 f   KitParser.obj
 0002:0003de70       ?imbue@?$basic_filebuf@DU?$char_traits@D@std@@@std@@MAEXABVlocale@2@@Z 100ece70 f i KitParser.obj
 0002:0003deb0       ?insert@?$basic_string@DU?$char_traits@D@std@@V?$allocator@D@2@@std@@QAEAAV12@IABV12@@Z 100eceb0 f i KitParser.obj
 0002:0003df00       ?insert@?$basic_string@DU?$char_traits@D@std@@V?$allocator@D@2@@std@@QAEAAV12@IQBD@Z 100ecf00 f i KitParser.obj
 0002:0003df50       ?insert@?$basic_string@DU?$char_traits@D@std@@V?$allocator@D@2@@std@@QAEAAV12@IQBDI@Z 100ecf50 f i KitParser.obj
 0002:0003e0b0       ?isbrhwoaxirhztvcguxeegq@jkjunwr@@IAE?AV?$basic_string@DU?$char_traits@D@std@@V?$allocator@D@2@@std@@HHV23@0_N0@Z 100ed0b0 f   KitParser.obj
 0002:0003e220       ?jbeikwoqwncz@jkjunwr@@IAE?AV?$basic_string@DU?$char_traits@D@std@@V?$allocator@D@2@@std@@_NNV23@H1@Z 100ed220 f   KitParser.obj
 0002:0003e2d0       ?jennujyoqxujnrlvwwquhfa@jkjunwr@@AAE?AV?$basic_string@DU?$char_traits@D@std@@V?$allocator@D@2@@std@@V23@_N@Z 100ed2d0 f   KitParser.obj
 0002:0003e460       ?jqioaqwfie@trfivjo@@IAEX_NHNHH@Z 100ed460 f   KitParser.obj
 0002:0003e530       ?kizabjweqnxbocuajpg@jkjunwr@@AAE?AV?$basic_string@DU?$char_traits@D@std@@V?$allocator@D@2@@std@@NHHH@Z 100ed530 f   KitParser.obj
 0002:0003e660       ?lmczdaztduzobxcwpgkaskik@trfivjo@@IAE?AV?$basic_string@DU?$char_traits@D@std@@V?$allocator@D@2@@std@@_N@Z 100ed660 f   KitParser.obj
 0002:0003e770       ?lower_bound@?$_Tree@V?$_Tmap_traits@V?$basic_string@DU?$char_traits@D@std@@V?$allocator@D@2@@std@@V12@U?$less@V?$basic_string@DU?$char_traits@D@std@@V?$allocator@D@2@@std@@@2@V?$allocator@U?$pair@$$CBV?$basic_string@DU?$char_traits@D@std@@V?$allocator@D@2@@std@@V12@@std@@@2@$0A@@std@@@std@@QAE?AV?$_Tree_iterator@V?$_Tree_val@U?$_Tree_simple_types@U?$pair@$$CBV?$basic_string@DU?$char_traits@D@std@@V?$allocator@D@2@@std@@V12@@std@@@std@@@std@@@2@ABV?$basic_string@DU?$char_traits@D@std@@V?$allocator@D@2@@2@@Z 100ed770 f i KitParser.obj
 0002:0003e7c0       ?max_size@?$_Default_allocator_traits@V?$allocator@U?$_Tree_node@U?$pair@$$CBV?$basic_string@DU?$char_traits@D@std@@V?$allocator@D@2@@std@@V12@@std@@PAX@std@@@std@@@std@@SAIABV?$allocator@U?$_Tree_node@U?$pair@$$CBV?$basic_string@DU?$char_traits@D@std@@V?$allocator@D@2@@std@@V12@@std@@PAX@std@@@2@@Z 100ed7c0 f i KitParser.obj
 0002:0003e7e0       ?max_size@?$_Default_allocator_traits@V?$allocator@U?$_Tree_node@U?$pair@$$CBV?$basic_string@DU?$char_traits@D@std@@V?$allocator@D@2@@std@@V?$basic_json@Vmap@std@@Vvector@2@V?$basic_string@DU?$char_traits@D@std@@V?$allocator@D@2@@2@_N_J_KNVallocator@2@Uadl_serializer@nlohmann@@@nlohmann@@@std@@PAX@std@@@std@@@std@@SAIABV?$allocator@U?$_Tree_node@U?$pair@$$CBV?$basic_string@DU?$char_traits@D@std@@V?$allocator@D@2@@std@@V?$basic_json@Vmap@std@@Vvector@2@V?$basic_string@DU?$char_traits@D@std@@V?$allocator@D@2@@2@_N_J_KNVallocator@2@Uadl_serializer@nlohmann@@@nlohmann@@@std@@PAX@std@@@2@@Z 100ed7e0 f i KitParser.obj
 0002:0003e800       ?max_size@?$_Tree@V?$_Tmap_traits@V?$basic_string@DU?$char_traits@D@std@@V?$allocator@D@2@@std@@V12@U?$less@V?$basic_string@DU?$char_traits@D@std@@V?$allocator@D@2@@std@@@2@V?$allocator@U?$pair@$$CBV?$basic_string@DU?$char_traits@D@std@@V?$allocator@D@2@@std@@V12@@std@@@2@$0A@@std@@@std@@QBEIXZ 100ed800 f i KitParser.obj
 0002:0003e830       ?max_size@?$_Tree@V?$_Tmap_traits@V?$basic_string@DU?$char_traits@D@std@@V?$allocator@D@2@@std@@V?$basic_json@Vmap@std@@Vvector@2@V?$basic_string@DU?$char_traits@D@std@@V?$allocator@D@2@@2@_N_J_KNVallocator@2@Uadl_serializer@nlohmann@@@nlohmann@@U?$less@V?$basic_string@DU?$char_traits@D@std@@V?$allocator@D@2@@std@@@2@V?$allocator@U?$pair@$$CBV?$basic_string@DU?$char_traits@D@std@@V?$allocator@D@2@@std@@V?$basic_json@Vmap@std@@Vvector@2@V?$basic_string@DU?$char_traits@D@std@@V?$allocator@D@2@@2@_N_J_KNVallocator@2@Uadl_serializer@nlohmann@@@nlohmann@@@std@@@2@$0A@@std@@@std@@QBEIXZ 100ed830 f i KitParser.obj
 0002:0003e860       ?mul@diyfp@dtoa_impl@detail@nlohmann@@SA?AU1234@ABU1234@0@Z 100ed860 f i KitParser.obj
 0002:0003ea70       ?name@exception@detail@nlohmann@@KA?AV?$basic_string@DU?$char_traits@D@std@@V?$allocator@D@2@@std@@ABV45@H@Z 100eda70 f i KitParser.obj
 0002:0003ec30       ?nglrpojiykutnybn@naxefsj@@IAE_NV?$basic_string@DU?$char_traits@D@std@@V?$allocator@D@2@@std@@NN0N00@Z 100edc30 f   KitParser.obj
 0002:0003ec80       ?normalize@diyfp@dtoa_impl@detail@nlohmann@@SA?AU1234@U1234@@Z 100edc80 f i KitParser.obj
 0002:0003ed30       ?normalize_to@diyfp@dtoa_impl@detail@nlohmann@@SA?AU1234@ABU1234@H@Z 100edd30 f i KitParser.obj
 0002:0003ee10       ?not_eof@?$char_traits@D@std@@SAHABH@Z 100ede10 f i KitParser.obj
 0002:0003ee70       ?ntfshtjjnhiyqfcvb@naxefsj@@AAE_NH_N0V?$basic_string@DU?$char_traits@D@std@@V?$allocator@D@2@@std@@@Z 100ede70 f   KitParser.obj
 0002:0003f110       ?olmsytoyfiznxnfdcu@jkjunwr@@IAEHXZ 100ee110 f   KitParser.obj
 0002:0003f3d0       ?open@?$basic_filebuf@DU?$char_traits@D@std@@@std@@QAEPAV12@PBDHH@Z 100ee3d0 f i KitParser.obj
 0002:0003f4c0       ?overflow@?$basic_filebuf@DU?$char_traits@D@std@@@std@@MAEHH@Z 100ee4c0 f i KitParser.obj
 0002:0003f910       ?overflow@?$basic_stringbuf@DU?$char_traits@D@std@@V?$allocator@D@2@@std@@MAEHH@Z 100ee910 f i KitParser.obj
 0002:0003fce0       ?pbackfail@?$basic_filebuf@DU?$char_traits@D@std@@@std@@MAEHH@Z 100eece0 f i KitParser.obj
 0002:0003fe90       ?pbackfail@?$basic_stringbuf@DU?$char_traits@D@std@@V?$allocator@D@2@@std@@MAEHH@Z 100eee90 f i KitParser.obj
 0002:0003ffc0       ?pnrwutrrltputuyt@trfivjo@@AAEHHNN_NV?$basic_string@DU?$char_traits@D@std@@V?$allocator@D@2@@std@@H@Z 100eefc0 f   KitParser.obj
 0002:00040110       ?pointer_to@?$pointer_traits@PAD@std@@SAPADAAD@Z 100ef110 f i KitParser.obj
 0002:00040140       ?pointer_to@?$pointer_traits@PAU?$pair@$$CBV?$basic_string@DU?$char_traits@D@std@@V?$allocator@D@2@@std@@V12@@std@@@std@@SAPAU?$pair@$$CBV?$basic_string@DU?$char_traits@D@std@@V?$allocator@D@2@@std@@V12@@2@AAU32@@Z 100ef140 f i KitParser.obj
 0002:00040170       ?pointer_to@?$pointer_traits@PBU?$pair@$$CBV?$basic_string@DU?$char_traits@D@std@@V?$allocator@D@2@@std@@V?$basic_json@Vmap@std@@Vvector@2@V?$basic_string@DU?$char_traits@D@std@@V?$allocator@D@2@@2@_N_J_KNVallocator@2@Uadl_serializer@nlohmann@@@nlohmann@@@std@@@std@@SAPBU?$pair@$$CBV?$basic_string@DU?$char_traits@D@std@@V?$allocator@D@2@@std@@V?$basic_json@Vmap@std@@Vvector@2@V?$basic_string@DU?$char_traits@D@std@@V?$allocator@D@2@@2@_N_J_KNVallocator@2@Uadl_serializer@nlohmann@@@nlohmann@@@2@ABU32@@Z 100ef170 f i KitParser.obj
 0002:000401a0       ?qjdyhwqlnruypnzxftcic@trfivjo@@QAE?AV?$basic_string@DU?$char_traits@D@std@@V?$allocator@D@2@@std@@N_N0@Z 100ef1a0 f   KitParser.obj
 0002:00040270       ?reserve@?$basic_string@DU?$char_traits@D@std@@V?$allocator@D@2@@std@@QAEXI@Z 100ef270 f i KitParser.obj
 0002:00040330       ?resize@?$basic_string@DU?$char_traits@D@std@@V?$allocator@D@2@@std@@QAEXID@Z 100ef330 f i KitParser.obj
 0002:00040390       ?rtglxxdjkgjhoztvorwi@naxefsj@@QAE?AV?$basic_string@DU?$char_traits@D@std@@V?$allocator@D@2@@std@@N@Z 100ef390 f   KitParser.obj
 0002:00040560       ?sbgzxdziwjgenncz@jkjunwr@@AAE?AV?$basic_string@DU?$char_traits@D@std@@V?$allocator@D@2@@std@@_N0V23@1110HHN@Z 100ef560 f   KitParser.obj
 0002:00040620       ?seekoff@?$basic_filebuf@DU?$char_traits@D@std@@@std@@MAE?AV?$fpos@U_Mbstatet@@@2@_JHH@Z 100ef620 f i KitParser.obj
 0002:00040760       ?seekoff@?$basic_stringbuf@DU?$char_traits@D@std@@V?$allocator@D@2@@std@@MAE?AV?$fpos@U_Mbstatet@@@2@_JHH@Z 100ef760 f i KitParser.obj
 0002:00040ad0       ?seekpos@?$basic_filebuf@DU?$char_traits@D@std@@@std@@MAE?AV?$fpos@U_Mbstatet@@@2@V32@H@Z 100efad0 f i KitParser.obj
 0002:00040c30       ?seekpos@?$basic_stringbuf@DU?$char_traits@D@std@@V?$allocator@D@2@@std@@MAE?AV?$fpos@U_Mbstatet@@@2@V32@H@Z 100efc30 f i KitParser.obj
 0002:00040eb0       ?seekpos@?$fpos@U_Mbstatet@@@std@@QBE_JXZ 100efeb0 f i KitParser.obj
 0002:00040ee0       ?select_on_container_copy_construction@?$_Default_allocator_traits@V?$allocator@D@std@@@std@@SA?AV?$allocator@D@2@ABV32@@Z 100efee0 f i KitParser.obj
 0002:00040f00       ?setbuf@?$basic_filebuf@DU?$char_traits@D@std@@@std@@MAEPAV?$basic_streambuf@DU?$char_traits@D@std@@@2@PAD_J@Z 100eff00 f i KitParser.obj
 0002:00040fa0       ?signbit@@YA_NN@Z          100effa0 f i KitParser.obj
 0002:00040ff0       ?size@?$_Tree@V?$_Tmap_traits@V?$basic_string@DU?$char_traits@D@std@@V?$allocator@D@2@@std@@V12@U?$less@V?$basic_string@DU?$char_traits@D@std@@V?$allocator@D@2@@std@@@2@V?$allocator@U?$pair@$$CBV?$basic_string@DU?$char_traits@D@std@@V?$allocator@D@2@@std@@V12@@std@@@2@$0A@@std@@@std@@QBEIXZ 100efff0 f i KitParser.obj
 0002:00041020       ?size@?$_Tree@V?$_Tmap_traits@V?$basic_string@DU?$char_traits@D@std@@V?$allocator@D@2@@std@@V?$basic_json@Vmap@std@@Vvector@2@V?$basic_string@DU?$char_traits@D@std@@V?$allocator@D@2@@2@_N_J_KNVallocator@2@Uadl_serializer@nlohmann@@@nlohmann@@U?$less@V?$basic_string@DU?$char_traits@D@std@@V?$allocator@D@2@@std@@@2@V?$allocator@U?$pair@$$CBV?$basic_string@DU?$char_traits@D@std@@V?$allocator@D@2@@std@@V?$basic_json@Vmap@std@@Vvector@2@V?$basic_string@DU?$char_traits@D@std@@V?$allocator@D@2@@2@_N_J_KNVallocator@2@Uadl_serializer@nlohmann@@@nlohmann@@@std@@@2@$0A@@std@@@std@@QBEIXZ 100f0020 f i KitParser.obj
 0002:00041050       ?size@?$array@D$0CAA@@std@@QBEIXZ 100f0050 f i KitParser.obj
 0002:00041070       ?size@?$array@D$0EA@@std@@QBEIXZ 100f0070 f i KitParser.obj
 0002:00041090       ?size@?$basic_string@DU?$char_traits@D@std@@V?$allocator@D@2@@std@@QBEIXZ 100f0090 f i KitParser.obj
 0002:000410c0       ?skkklgshxplkisf@naxefsj@@QAE?AV?$basic_string@DU?$char_traits@D@std@@V?$allocator@D@2@@std@@_N@Z 100f00c0 f   KitParser.obj
 0002:00041110       ?souygarjxltoztx@trfivjo@@IAEN_N0NHNH0V?$basic_string@DU?$char_traits@D@std@@V?$allocator@D@2@@std@@@Z 100f0110 f   KitParser.obj
 0002:00041480       ?state@?$fpos@U_Mbstatet@@@std@@QBE?AU_Mbstatet@@XZ 100f0480 f i KitParser.obj
 0002:000414c0       ?str@?$basic_stringbuf@DU?$char_traits@D@std@@V?$allocator@D@2@@std@@QBE?AV?$basic_string@DU?$char_traits@D@std@@V?$allocator@D@2@@2@XZ 100f04c0 f i KitParser.obj
 0002:00041690       ?str@?$basic_stringstream@DU?$char_traits@D@std@@V?$allocator@D@2@@std@@QBE?AV?$basic_string@DU?$char_traits@D@std@@V?$allocator@D@2@@2@XZ 100f0690 f i KitParser.obj
 0002:000416e0       ?strstr@@YAPADQADQBD@Z     100f06e0 f i KitParser.obj
 0002:00041710       ?sub@diyfp@dtoa_impl@detail@nlohmann@@SA?AU1234@ABU1234@0@Z 100f0710 f i KitParser.obj
 0002:000417d0       ?sync@?$basic_filebuf@DU?$char_traits@D@std@@@std@@MAEHXZ 100f07d0 f i KitParser.obj
 0002:00041870       ?tjvdoulotdupmvj@jkjunwr@@AAE_NV?$basic_string@DU?$char_traits@D@std@@V?$allocator@D@2@@std@@NN0H_NN@Z 100f0870 f   KitParser.obj
 0002:00041a60       ?tmmdqjescvifnkxhtc@jkjunwr@@QAE_NV?$basic_string@DU?$char_traits@D@std@@V?$allocator@D@2@@std@@NH0H0H0N@Z 100f0a60 f   KitParser.obj
 0002:00041f00       ?to_bytes@?$wstring_convert@V?$codecvt_utf8_utf16@_W$0BAPPPP@$0A@@std@@_WV?$allocator@_W@2@V?$allocator@D@2@@std@@QAE?AV?$basic_string@DU?$char_traits@D@std@@V?$allocator@D@2@@2@PB_W0@Z 100f0f00 f i KitParser.obj
 0002:00042290       ?to_bytes@?$wstring_convert@V?$codecvt_utf8_utf16@_W$0BAPPPP@$0A@@std@@_WV?$allocator@_W@2@V?$allocator@D@2@@std@@QAE?AV?$basic_string@DU?$char_traits@D@std@@V?$allocator@D@2@@2@PB_W@Z 100f1290 f i KitParser.obj
 0002:00042300       ?to_char_type@?$char_traits@D@std@@SADABH@Z 100f1300 f i KitParser.obj
 0002:00042320       ?to_int_type@?$char_traits@D@std@@SAHABD@Z 100f1320 f i KitParser.obj
 0002:00042340       ?to_string@std@@YA?AV?$basic_string@DU?$char_traits@D@std@@V?$allocator@D@2@@1@H@Z 100f1340 f i KitParser.obj
 0002:00042380       ?to_string@std@@YA?AV?$basic_string@DU?$char_traits@D@std@@V?$allocator@D@2@@1@I@Z 100f1380 f i KitParser.obj
 0002:000423c0       ?txosgwqqhcunddr@trfivjo@@AAEHHV?$basic_string@DU?$char_traits@D@std@@V?$allocator@D@2@@std@@@Z 100f13c0 f   KitParser.obj
 0002:000424b0       ?ubabiqsyfkwcsfeufjlcjame@jkjunwr@@AAE?AV?$basic_string@DU?$char_traits@D@std@@V?$allocator@D@2@@std@@V23@0_N1HH@Z 100f14b0 f   KitParser.obj
 0002:000426c0       ?uflow@?$basic_filebuf@DU?$char_traits@D@std@@@std@@MAEHXZ 100f16c0 f i KitParser.obj
 0002:00042ac0       ?underflow@?$basic_filebuf@DU?$char_traits@D@std@@@std@@MAEHXZ 100f1ac0 f i KitParser.obj
 0002:00042ba0       ?underflow@?$basic_stringbuf@DU?$char_traits@D@std@@V?$allocator@D@2@@std@@MAEHXZ 100f1ba0 f i KitParser.obj
 0002:00042cf0       ?uonnqwxbnrtnn@naxefsj@@QAEXNN@Z 100f1cf0 f   KitParser.obj
 0002:00042fc0       ?uppercase@std@@YAAAVios_base@1@AAV21@@Z 100f1fc0 f i KitParser.obj
 0002:00042ff0       ?usiaxespbhqfuga@jkjunwr@@IAENNH_N@Z 100f1ff0 f   KitParser.obj
 0002:00043020       ?uwvtkasyfijcojpilmjw@trfivjo@@IAE?AV?$basic_string@DU?$char_traits@D@std@@V?$allocator@D@2@@std@@V23@_NN0HH0@Z 100f2020 f   KitParser.obj
 0002:000430f0       ?vblfqdyidmskyx@jkjunwr@@IAENV?$basic_string@DU?$char_traits@D@std@@V?$allocator@D@2@@std@@N_N00NN@Z 100f20f0 f   KitParser.obj
 0002:00043380       ?vegluqmbxatcoxifap@naxefsj@@AAE_NHV?$basic_string@DU?$char_traits@D@std@@V?$allocator@D@2@@std@@NNN_NN01@Z 100f2380 f   KitParser.obj
 0002:000435e0       ?vozprgshrkgiryhumipy@trfivjo@@IAEHN_NV?$basic_string@DU?$char_traits@D@std@@V?$allocator@D@2@@std@@01101@Z 100f25e0 f   KitParser.obj
 0002:00043820       ?vqmsmrqibbqtpaqokka@trfivjo@@AAE?AV?$basic_string@DU?$char_traits@D@std@@V?$allocator@D@2@@std@@HV23@0HNH0H0@Z 100f2820 f   KitParser.obj
 0002:00043970       ?watfrymyhnsesk@jkjunwr@@AAEXHHV?$basic_string@DU?$char_traits@D@std@@V?$allocator@D@2@@std@@_N0N@Z 100f2970 f   KitParser.obj
 0002:00043c30       ?what@exception@detail@nlohmann@@UBEPBDXZ 100f2c30 f i KitParser.obj
 0002:00043ca0       ?what@exception@std@@UBEPBDXZ 100f2ca0 f i KitParser.obj
 0002:00043ce0       ?write_character@?$output_stream_adapter@D@detail@nlohmann@@UAEXD@Z 100f2ce0 f i KitParser.obj
 0002:00043d10       ?write_characters@?$output_stream_adapter@D@detail@nlohmann@@UAEXPBDI@Z 100f2d10 f i KitParser.obj
 0002:00043d50       ?wshtllwwiulukiubajta@jkjunwr@@AAEN_NH0H0V?$basic_string@DU?$char_traits@D@std@@V?$allocator@D@2@@std@@0H@Z 100f2d50 f   KitParser.obj
 0002:00043e30       ?wxvibjahpipysfjfizumcdozk@naxefsj@@QAEXHH_N0@Z 100f2e30 f   KitParser.obj
 0002:00043f10       ?xpqtmkvlydhezpyw@naxefsj@@QAEHNN_NHH00@Z 100f2f10 f   KitParser.obj
 0002:00043f80       ?yhisehspmluigiwlgrtvh@jkjunwr@@QAE_NV?$basic_string@DU?$char_traits@D@std@@V?$allocator@D@2@@std@@@Z 100f2f80 f   KitParser.obj
 0002:00044340       ?ynbmngmotnjfcuefxtzuo@jkjunwr@@AAEXN_NV?$basic_string@DU?$char_traits@D@std@@V?$allocator@D@2@@std@@N111N0@Z 100f3340 f   KitParser.obj
 0002:00044460       ?yrvdnhbglguajv@jkjunwr@@IAE_N_NHH@Z 100f3460 f   KitParser.obj
 0002:00044760       ?zvksgeyxsafuqnwhaquocvvq@jkjunwr@@IAE_NH@Z 100f3760 f   KitParser.obj
 0002:00044970       ?zynkrlzxdqeml@naxefsj@@AAE_NV?$basic_string@DU?$char_traits@D@std@@V?$allocator@D@2@@std@@NH0HHHH_N@Z 100f3970 f   KitParser.obj
 0002:00044ad0       ?zzptsuxgnbgltcjnzzpwzvnx@naxefsj@@AAE_NHV?$basic_string@DU?$char_traits@D@std@@V?$allocator@D@2@@std@@_N00HNN01@Z 100f3ad0 f   KitParser.obj
 0002:00044c00       ___local_stdio_printf_options 100f3c00 f i KitParser.obj
 0002:00044d80       _snprintf                  100f3d80 f i KitParser.obj
 0002:00044dd0       _vsnprintf                 100f3dd0 f i KitParser.obj
 0002:00044f00       ??$?0AAU?$equal_to@V?$basic_string@DU?$char_traits@D@std@@V?$allocator@D@2@@std@@@std@@M@?$_Compressed_pair@U?$equal_to@V?$basic_string@DU?$char_traits@D@std@@V?$allocator@D@2@@std@@@std@@M$00@std@@QAE@U_One_then_variadic_args_t@1@AAU?$equal_to@V?$basic_string@DU?$char_traits@D@std@@V?$allocator@D@2@@std@@@1@$$QAM@Z 100f3f00 f i SequenceProxy.obj
 0002:00044f50       ??$?0AAU?$hash@V?$basic_string@DU?$char_traits@D@std@@V?$allocator@D@2@@std@@@std@@U_One_then_variadic_args_t@1@AAU?$equal_to@V?$basic_string@DU?$char_traits@D@std@@V?$allocator@D@2@@std@@@1@M@?$_Compressed_pair@U?$hash@V?$basic_string@DU?$char_traits@D@std@@V?$allocator@D@2@@std@@@std@@V?$_Compressed_pair@U?$equal_to@V?$basic_string@DU?$char_traits@D@std@@V?$allocator@D@2@@std@@@std@@M$00@2@$00@std@@QAE@U_One_then_variadic_args_t@1@AAU?$hash@V?$basic_string@DU?$char_traits@D@std@@V?$allocator@D@2@@std@@@1@$$QAU21@AAU?$equal_to@V?$basic_string@DU?$char_traits@D@std@@V?$allocator@D@2@@std@@@1@$$QAM@Z 100f3f50 f i SequenceProxy.obj
 0002:00045140       ??$?0ABV?$allocator@U?$pair@$$CBV?$basic_string@DU?$char_traits@D@std@@V?$allocator@D@2@@std@@P6AHH@Z@std@@@std@@$$V@?$_Compressed_pair@V?$allocator@U?$_List_node@U?$pair@$$CBV?$basic_string@DU?$char_traits@D@std@@V?$allocator@D@2@@std@@P6AHH@Z@std@@PAX@std@@@std@@V?$_List_val@U?$_List_simple_types@U?$pair@$$CBV?$basic_string@DU?$char_traits@D@std@@V?$allocator@D@2@@std@@P6AHH@Z@std@@@std@@@2@$00@std@@QAE@U_One_then_variadic_args_t@1@ABV?$allocator@U?$pair@$$CBV?$basic_string@DU?$char_traits@D@std@@V?$allocator@D@2@@std@@P6AHH@Z@std@@@1@@Z 100f4140 f i SequenceProxy.obj
 0002:00045190       ??$?0ABV?$allocator@U?$pair@$$CBV?$basic_string@DU?$char_traits@D@std@@V?$allocator@D@2@@std@@P6AHH@Z@std@@@std@@X@?$_List_alloc@U?$_List_base_types@U?$pair@$$CBV?$basic_string@DU?$char_traits@D@std@@V?$allocator@D@2@@std@@P6AHH@Z@std@@V?$allocator@U?$pair@$$CBV?$basic_string@DU?$char_traits@D@std@@V?$allocator@D@2@@std@@P6AHH@Z@std@@@2@@std@@@std@@QAE@ABV?$allocator@U?$pair@$$CBV?$basic_string@DU?$char_traits@D@std@@V?$allocator@D@2@@std@@P6AHH@Z@std@@@1@@Z 100f4190 f i SequenceProxy.obj
 0002:000451f0       ??$?0ABV?$allocator@U?$pair@$$CBV?$basic_string@DU?$char_traits@D@std@@V?$allocator@D@2@@std@@P6AHH@Z@std@@@std@@X@?$_List_buy@U?$pair@$$CBV?$basic_string@DU?$char_traits@D@std@@V?$allocator@D@2@@std@@P6AHH@Z@std@@V?$allocator@U?$pair@$$CBV?$basic_string@DU?$char_traits@D@std@@V?$allocator@D@2@@std@@P6AHH@Z@std@@@2@@std@@QAE@ABV?$allocator@U?$pair@$$CBV?$basic_string@DU?$char_traits@D@std@@V?$allocator@D@2@@std@@P6AHH@Z@std@@@1@@Z 100f41f0 f i SequenceProxy.obj
 0002:00045230       ??$?0ABV?$allocator@V?$_List_unchecked_iterator@V?$_List_val@U?$_List_simple_types@U?$pair@$$CBV?$basic_string@DU?$char_traits@D@std@@V?$allocator@D@2@@std@@P6AHH@Z@std@@@std@@@std@@@std@@@std@@$$V@?$_Compressed_pair@V?$allocator@V?$_List_unchecked_iterator@V?$_List_val@U?$_List_simple_types@U?$pair@$$CBV?$basic_string@DU?$char_traits@D@std@@V?$allocator@D@2@@std@@P6AHH@Z@std@@@std@@@std@@@std@@@std@@V?$_Vector_val@U?$_Simple_types@V?$_List_unchecked_iterator@V?$_List_val@U?$_List_simple_types@U?$pair@$$CBV?$basic_string@DU?$char_traits@D@std@@V?$allocator@D@2@@std@@P6AHH@Z@std@@@std@@@std@@@std@@@std@@@2@$00@std@@QAE@U_One_then_variadic_args_t@1@ABV?$allocator@V?$_List_unchecked_iterator@V?$_List_val@U?$_List_simple_types@U?$pair@$$CBV?$basic_string@DU?$char_traits@D@std@@V?$allocator@D@2@@std@@P6AHH@Z@std@@@std@@@std@@@std@@@1@@Z 100f4230 f i SequenceProxy.obj
 0002:00045270       ??$?0ABV?$allocator@V?$_List_unchecked_iterator@V?$_List_val@U?$_List_simple_types@U?$pair@$$CBV?$basic_string@DU?$char_traits@D@std@@V?$allocator@D@2@@std@@P6AHH@Z@std@@@std@@@std@@@std@@@std@@X@?$_Vector_alloc@U?$_Vec_base_types@V?$_List_unchecked_iterator@V?$_List_val@U?$_List_simple_types@U?$pair@$$CBV?$basic_string@DU?$char_traits@D@std@@V?$allocator@D@2@@std@@P6AHH@Z@std@@@std@@@std@@@std@@V?$allocator@V?$_List_unchecked_iterator@V?$_List_val@U?$_List_simple_types@U?$pair@$$CBV?$basic_string@DU?$char_traits@D@std@@V?$allocator@D@2@@std@@P6AHH@Z@std@@@std@@@std@@@std@@@2@@std@@@std@@QAE@ABV?$allocator@V?$_List_unchecked_iterator@V?$_List_val@U?$_List_simple_types@U?$pair@$$CBV?$basic_string@DU?$char_traits@D@std@@V?$allocator@D@2@@std@@P6AHH@Z@std@@@std@@@std@@@std@@@1@@Z 100f4270 f i SequenceProxy.obj
 0002:000452b0       ??$?0U?$pair@$$CBV?$basic_string@DU?$char_traits@D@std@@V?$allocator@D@2@@std@@P6AHH@Z@std@@@?$allocator@U?$_List_node@U?$pair@$$CBV?$basic_string@DU?$char_traits@D@std@@V?$allocator@D@2@@std@@P6AHH@Z@std@@PAX@std@@@std@@QAE@ABV?$allocator@U?$pair@$$CBV?$basic_string@DU?$char_traits@D@std@@V?$allocator@D@2@@std@@P6AHH@Z@std@@@1@@Z 100f42b0 f i SequenceProxy.obj
 0002:000452d0       ??$?0U?$pair@$$CBV?$basic_string@DU?$char_traits@D@std@@V?$allocator@D@2@@std@@P6AHH@Z@std@@@?$allocator@V?$_List_unchecked_iterator@V?$_List_val@U?$_List_simple_types@U?$pair@$$CBV?$basic_string@DU?$char_traits@D@std@@V?$allocator@D@2@@std@@P6AHH@Z@std@@@std@@@std@@@std@@@std@@QAE@ABV?$allocator@U?$pair@$$CBV?$basic_string@DU?$char_traits@D@std@@V?$allocator@D@2@@std@@P6AHH@Z@std@@@1@@Z 100f42d0 f i SequenceProxy.obj
 0002:000452f0       ??$?0V?$_List_iterator@V?$_List_val@U?$_List_simple_types@U?$pair@$$CBV?$basic_string@DU?$char_traits@D@std@@V?$allocator@D@2@@std@@P6AHH@Z@std@@@std@@@std@@@std@@_N$0A@@?$pair@V?$_List_iterator@V?$_List_val@U?$_List_simple_types@U?$pair@$$CBV?$basic_string@DU?$char_traits@D@std@@V?$allocator@D@2@@std@@P6AHH@Z@std@@@std@@@std@@@std@@_N@std@@QAE@$$QAV?$_List_iterator@V?$_List_val@U?$_List_simple_types@U?$pair@$$CBV?$basic_string@DU?$char_traits@D@std@@V?$allocator@D@2@@std@@P6AHH@Z@std@@@std@@@std@@@1@$$QA_N@Z 100f42f0 f i SequenceProxy.obj
 0002:00045340       ??$_Buy_if_not_node@AAU?$pair@$$CBV?$basic_string@DU?$char_traits@D@std@@V?$allocator@D@2@@std@@P6AHH@Z@std@@@?$_Hash@V?$_Umap_traits@V?$basic_string@DU?$char_traits@D@std@@V?$allocator@D@2@@std@@P6AHH@ZV?$_Uhash_compare@V?$basic_string@DU?$char_traits@D@std@@V?$allocator@D@2@@std@@U?$hash@V?$basic_string@DU?$char_traits@D@std@@V?$allocator@D@2@@std@@@2@U?$equal_to@V?$basic_string@DU?$char_traits@D@std@@V?$allocator@D@2@@std@@@2@@2@V?$allocator@U?$pair@$$CBV?$basic_string@DU?$char_traits@D@std@@V?$allocator@D@2@@std@@P6AHH@Z@std@@@2@$0A@@std@@@std@@IAE?AV?$_List_unchecked_iterator@V?$_List_val@U?$_List_simple_types@U?$pair@$$CBV?$basic_string@DU?$char_traits@D@std@@V?$allocator@D@2@@std@@P6AHH@Z@std@@@std@@@std@@@1@AAU?$pair@$$CBV?$basic_string@DU?$char_traits@D@std@@V?$allocator@D@2@@std@@P6AHH@Z@1@V21@@Z 100f4340 f i SequenceProxy.obj
 0002:00045370       ??$_Buynode@ABU?$pair@$$CBV?$basic_string@DU?$char_traits@D@std@@V?$allocator@D@2@@std@@P6AHH@Z@std@@@?$_List_buy@U?$pair@$$CBV?$basic_string@DU?$char_traits@D@std@@V?$allocator@D@2@@std@@P6AHH@Z@std@@V?$allocator@U?$pair@$$CBV?$basic_string@DU?$char_traits@D@std@@V?$allocator@D@2@@std@@P6AHH@Z@std@@@2@@std@@QAEPAU?$_List_node@U?$pair@$$CBV?$basic_string@DU?$char_traits@D@std@@V?$allocator@D@2@@std@@P6AHH@Z@std@@PAX@1@PAU21@0ABU?$pair@$$CBV?$basic_string@DU?$char_traits@D@std@@V?$allocator@D@2@@std@@P6AHH@Z@1@@Z 100f4370 f i SequenceProxy.obj
 0002:00045470       ??$_Destroy_range1@V?$allocator@V?$_List_unchecked_iterator@V?$_List_val@U?$_List_simple_types@U?$pair@$$CBV?$basic_string@DU?$char_traits@D@std@@V?$allocator@D@2@@std@@P6AHH@Z@std@@@std@@@std@@@std@@@std@@@std@@YAXPAV?$_List_unchecked_iterator@V?$_List_val@U?$_List_simple_types@U?$pair@$$CBV?$basic_string@DU?$char_traits@D@std@@V?$allocator@D@2@@std@@P6AHH@Z@std@@@std@@@std@@@0@0AAV?$allocator@V?$_List_unchecked_iterator@V?$_List_val@U?$_List_simple_types@U?$pair@$$CBV?$basic_string@DU?$char_traits@D@std@@V?$allocator@D@2@@std@@P6AHH@Z@std@@@std@@@std@@@std@@@0@U?$integral_constant@_N$00@0@@Z 100f4470 f i SequenceProxy.obj
 0002:00045490       ??$_Destroy_range@V?$allocator@V?$_List_unchecked_iterator@V?$_List_val@U?$_List_simple_types@U?$pair@$$CBV?$basic_string@DU?$char_traits@D@std@@V?$allocator@D@2@@std@@P6AHH@Z@std@@@std@@@std@@@std@@@std@@@std@@YAXPAV?$_List_unchecked_iterator@V?$_List_val@U?$_List_simple_types@U?$pair@$$CBV?$basic_string@DU?$char_traits@D@std@@V?$allocator@D@2@@std@@P6AHH@Z@std@@@std@@@std@@@0@0AAV?$allocator@V?$_List_unchecked_iterator@V?$_List_val@U?$_List_simple_types@U?$pair@$$CBV?$basic_string@DU?$char_traits@D@std@@V?$allocator@D@2@@std@@P6AHH@Z@std@@@std@@@std@@@std@@@0@@Z 100f4490 f i SequenceProxy.obj
 0002:000454d0       ??$_Fill_memset_is_safe@PAV?$_List_unchecked_iterator@V?$_List_val@U?$_List_simple_types@U?$pair@$$CBV?$basic_string@DU?$char_traits@D@std@@V?$allocator@D@2@@std@@P6AHH@Z@std@@@std@@@std@@@std@@V12@@std@@YA?AU?$integral_constant@_N$0A@@0@ABQAV?$_List_unchecked_iterator@V?$_List_val@U?$_List_simple_types@U?$pair@$$CBV?$basic_string@DU?$char_traits@D@std@@V?$allocator@D@2@@std@@P6AHH@Z@std@@@std@@@std@@@0@ABV20@@Z 100f44d0 f i SequenceProxy.obj
 0002:000454f0       ??$_Fill_unchecked1@PAV?$_List_unchecked_iterator@V?$_List_val@U?$_List_simple_types@U?$pair@$$CBV?$basic_string@DU?$char_traits@D@std@@V?$allocator@D@2@@std@@P6AHH@Z@std@@@std@@@std@@@std@@V12@@std@@YAXPAV?$_List_unchecked_iterator@V?$_List_val@U?$_List_simple_types@U?$pair@$$CBV?$basic_string@DU?$char_traits@D@std@@V?$allocator@D@2@@std@@P6AHH@Z@std@@@std@@@std@@@0@0ABV10@U?$integral_constant@_N$0A@@0@@Z 100f44f0 f i SequenceProxy.obj
 0002:00045530       ??$_Fill_unchecked@PAV?$_List_unchecked_iterator@V?$_List_val@U?$_List_simple_types@U?$pair@$$CBV?$basic_string@DU?$char_traits@D@std@@V?$allocator@D@2@@std@@P6AHH@Z@std@@@std@@@std@@@std@@V12@@std@@YAXPAV?$_List_unchecked_iterator@V?$_List_val@U?$_List_simple_types@U?$pair@$$CBV?$basic_string@DU?$char_traits@D@std@@V?$allocator@D@2@@std@@P6AHH@Z@std@@@std@@@std@@@0@0ABV10@@Z 100f4530 f i SequenceProxy.obj
 0002:00045580       ??$_Freenode0@V?$allocator@U?$_List_node@U?$pair@$$CBV?$basic_string@DU?$char_traits@D@std@@V?$allocator@D@2@@std@@P6AHH@Z@std@@PAX@std@@@std@@@?$_List_node@U?$pair@$$CBV?$basic_string@DU?$char_traits@D@std@@V?$allocator@D@2@@std@@P6AHH@Z@std@@PAX@std@@SAXAAV?$allocator@U?$_List_node@U?$pair@$$CBV?$basic_string@DU?$char_traits@D@std@@V?$allocator@D@2@@std@@P6AHH@Z@std@@PAX@std@@@1@PAU01@@Z 100f4580 f i SequenceProxy.obj
 0002:00045640       ??$_Hash_array_representation@D@std@@YAIQBDI@Z 100f4640 f i SequenceProxy.obj
 0002:00045670       ??$_Insert@AAU?$pair@$$CBV?$basic_string@DU?$char_traits@D@std@@V?$allocator@D@2@@std@@P6AHH@Z@std@@V?$_List_unchecked_iterator@V?$_List_val@U?$_List_simple_types@U?$pair@$$CBV?$basic_string@DU?$char_traits@D@std@@V?$allocator@D@2@@std@@P6AHH@Z@std@@@std@@@std@@@2@@?$_Hash@V?$_Umap_traits@V?$basic_string@DU?$char_traits@D@std@@V?$allocator@D@2@@std@@P6AHH@ZV?$_Uhash_compare@V?$basic_string@DU?$char_traits@D@std@@V?$allocator@D@2@@std@@U?$hash@V?$basic_string@DU?$char_traits@D@std@@V?$allocator@D@2@@std@@@2@U?$equal_to@V?$basic_string@DU?$char_traits@D@std@@V?$allocator@D@2@@std@@@2@@2@V?$allocator@U?$pair@$$CBV?$basic_string@DU?$char_traits@D@std@@V?$allocator@D@2@@std@@P6AHH@Z@std@@@2@$0A@@std@@@std@@IAE?AU?$pair@V?$_List_iterator@V?$_List_val@U?$_List_simple_types@U?$pair@$$CBV?$basic_string@DU?$char_traits@D@std@@V?$allocator@D@2@@std@@P6AHH@Z@std@@@std@@@std@@@std@@_N@1@AAU?$pair@$$CBV?$basic_string@DU?$char_traits@D@std@@V?$allocator@D@2@@std@@P6AHH@Z@1@V?$_List_unchecked_iterator@V?$_List_val@U?$_List_simple_types@U?$pair@$$CBV?$basic_string@DU?$char_traits@D@std@@V?$allocator@D@2@@std@@P6AHH@Z@std@@@std@@@std@@@1@@Z 100f4670 f i SequenceProxy.obj
 0002:00045a60       ??$_Insert@ABU?$pair@$$CBV?$basic_string@DU?$char_traits@D@std@@V?$allocator@D@2@@std@@P6AHH@Z@std@@@?$list@U?$pair@$$CBV?$basic_string@DU?$char_traits@D@std@@V?$allocator@D@2@@std@@P6AHH@Z@std@@V?$allocator@U?$pair@$$CBV?$basic_string@DU?$char_traits@D@std@@V?$allocator@D@2@@std@@P6AHH@Z@std@@@2@@std@@QAEXV?$_List_unchecked_const_iterator@V?$_List_val@U?$_List_simple_types@U?$pair@$$CBV?$basic_string@DU?$char_traits@D@std@@V?$allocator@D@2@@std@@P6AHH@Z@std@@@std@@@std@@U_Iterator_base0@2@@1@ABU?$pair@$$CBV?$basic_string@DU?$char_traits@D@std@@V?$allocator@D@2@@std@@P6AHH@Z@1@@Z 100f4a60 f i SequenceProxy.obj
 0002:00045ae0       ??$_Kfn@$$CBV?$basic_string@DU?$char_traits@D@std@@V?$allocator@D@2@@std@@P6AHH@Z@?$_Umap_traits@V?$basic_string@DU?$char_traits@D@std@@V?$allocator@D@2@@std@@P6AHH@ZV?$_Uhash_compare@V?$basic_string@DU?$char_traits@D@std@@V?$allocator@D@2@@std@@U?$hash@V?$basic_string@DU?$char_traits@D@std@@V?$allocator@D@2@@std@@@2@U?$equal_to@V?$basic_string@DU?$char_traits@D@std@@V?$allocator@D@2@@std@@@2@@2@V?$allocator@U?$pair@$$CBV?$basic_string@DU?$char_traits@D@std@@V?$allocator@D@2@@std@@P6AHH@Z@std@@@2@$0A@@std@@SAABV?$basic_string@DU?$char_traits@D@std@@V?$allocator@D@2@@1@ABU?$pair@$$CBV?$basic_string@DU?$char_traits@D@std@@V?$allocator@D@2@@std@@P6AHH@Z@1@@Z 100f4ae0 f i SequenceProxy.obj
 0002:00045b00       ??$_Ptr_move_cat@V?$_List_unchecked_iterator@V?$_List_val@U?$_List_simple_types@U?$pair@$$CBV?$basic_string@DU?$char_traits@D@std@@V?$allocator@D@2@@std@@P6AHH@Z@std@@@std@@@std@@@std@@V12@@std@@YA?AU_Trivially_copyable_ptr_iterator_tag@0@ABQAV?$_List_unchecked_iterator@V?$_List_val@U?$_List_simple_types@U?$pair@$$CBV?$basic_string@DU?$char_traits@D@std@@V?$allocator@D@2@@std@@P6AHH@Z@std@@@std@@@std@@@0@0@Z 100f4b00 f i SequenceProxy.obj
 0002:00045c60       ??$_Rechecked@PAV?$_List_unchecked_iterator@V?$_List_val@U?$_List_simple_types@U?$pair@$$CBV?$basic_string@DU?$char_traits@D@std@@V?$allocator@D@2@@std@@P6AHH@Z@std@@@std@@@std@@@std@@PAV12@@std@@YAAAPAV?$_List_unchecked_iterator@V?$_List_val@U?$_List_simple_types@U?$pair@$$CBV?$basic_string@DU?$char_traits@D@std@@V?$allocator@D@2@@std@@P6AHH@Z@std@@@std@@@std@@@0@AAPAV10@PAV10@@Z 100f4c60 f i SequenceProxy.obj
 0002:00045c90       ??$_Unchecked@PAV?$_List_unchecked_iterator@V?$_List_val@U?$_List_simple_types@U?$pair@$$CBV?$basic_string@DU?$char_traits@D@std@@V?$allocator@D@2@@std@@P6AHH@Z@std@@@std@@@std@@@std@@@std@@YAPAV?$_List_unchecked_iterator@V?$_List_val@U?$_List_simple_types@U?$pair@$$CBV?$basic_string@DU?$char_traits@D@std@@V?$allocator@D@2@@std@@P6AHH@Z@std@@@std@@@std@@@0@PAV10@@Z 100f4c90 f i SequenceProxy.obj
 0002:00045cb0       ??$_Unchecked@V?$_List_val@U?$_List_simple_types@U?$pair@$$CBV?$basic_string@DU?$char_traits@D@std@@V?$allocator@D@2@@std@@P6AHH@Z@std@@@std@@@std@@@std@@YA?AV?$_List_unchecked_iterator@V?$_List_val@U?$_List_simple_types@U?$pair@$$CBV?$basic_string@DU?$char_traits@D@std@@V?$allocator@D@2@@std@@P6AHH@Z@std@@@std@@@std@@@0@ABV?$_List_iterator@V?$_List_val@U?$_List_simple_types@U?$pair@$$CBV?$basic_string@DU?$char_traits@D@std@@V?$allocator@D@2@@std@@P6AHH@Z@std@@@std@@@std@@@0@@Z 100f4cb0 f i SequenceProxy.obj
 0002:00045cf0       ??$_Unfancy@V?$_List_unchecked_iterator@V?$_List_val@U?$_List_simple_types@U?$pair@$$CBV?$basic_string@DU?$char_traits@D@std@@V?$allocator@D@2@@std@@P6AHH@Z@std@@@std@@@std@@@std@@@std@@YAPAV?$_List_unchecked_iterator@V?$_List_val@U?$_List_simple_types@U?$pair@$$CBV?$basic_string@DU?$char_traits@D@std@@V?$allocator@D@2@@std@@P6AHH@Z@std@@@std@@@std@@@0@PAV10@@Z 100f4cf0 f i SequenceProxy.obj
 0002:00045d10       ??$_Uninit_alloc_fill_n1@PAV?$_List_unchecked_iterator@V?$_List_val@U?$_List_simple_types@U?$pair@$$CBV?$basic_string@DU?$char_traits@D@std@@V?$allocator@D@2@@std@@P6AHH@Z@std@@@std@@@std@@@std@@IV?$allocator@V?$_List_unchecked_iterator@V?$_List_val@U?$_List_simple_types@U?$pair@$$CBV?$basic_string@DU?$char_traits@D@std@@V?$allocator@D@2@@std@@P6AHH@Z@std@@@std@@@std@@@std@@@2@@std@@YAPAV?$_List_unchecked_iterator@V?$_List_val@U?$_List_simple_types@U?$pair@$$CBV?$basic_string@DU?$char_traits@D@std@@V?$allocator@D@2@@std@@P6AHH@Z@std@@@std@@@std@@@0@PAV10@IABV10@AAV?$allocator@V?$_List_unchecked_iterator@V?$_List_val@U?$_List_simple_types@U?$pair@$$CBV?$basic_string@DU?$char_traits@D@std@@V?$allocator@D@2@@std@@P6AHH@Z@std@@@std@@@std@@@std@@@0@U?$integral_constant@_N$0A@@0@@Z 100f4d10 f i SequenceProxy.obj
 0002:00045e10       ??$_Uninitialized_fill_n@PAV?$_List_unchecked_iterator@V?$_List_val@U?$_List_simple_types@U?$pair@$$CBV?$basic_string@DU?$char_traits@D@std@@V?$allocator@D@2@@std@@P6AHH@Z@std@@@std@@@std@@@std@@IV?$allocator@V?$_List_unchecked_iterator@V?$_List_val@U?$_List_simple_types@U?$pair@$$CBV?$basic_string@DU?$char_traits@D@std@@V?$allocator@D@2@@std@@P6AHH@Z@std@@@std@@@std@@@std@@@2@@std@@YAPAV?$_List_unchecked_iterator@V?$_List_val@U?$_List_simple_types@U?$pair@$$CBV?$basic_string@DU?$char_traits@D@std@@V?$allocator@D@2@@std@@P6AHH@Z@std@@@std@@@std@@@0@PAV10@IABV10@AAV?$allocator@V?$_List_unchecked_iterator@V?$_List_val@U?$_List_simple_types@U?$pair@$$CBV?$basic_string@DU?$char_traits@D@std@@V?$allocator@D@2@@std@@P6AHH@Z@std@@@std@@@std@@@std@@@0@@Z 100f4e10 f i SequenceProxy.obj
 0002:00045e50       ??$_Uninitialized_move@PAV?$_List_unchecked_iterator@V?$_List_val@U?$_List_simple_types@U?$pair@$$CBV?$basic_string@DU?$char_traits@D@std@@V?$allocator@D@2@@std@@P6AHH@Z@std@@@std@@@std@@@std@@PAV12@V?$allocator@V?$_List_unchecked_iterator@V?$_List_val@U?$_List_simple_types@U?$pair@$$CBV?$basic_string@DU?$char_traits@D@std@@V?$allocator@D@2@@std@@P6AHH@Z@std@@@std@@@std@@@std@@@2@@std@@YAPAV?$_List_unchecked_iterator@V?$_List_val@U?$_List_simple_types@U?$pair@$$CBV?$basic_string@DU?$char_traits@D@std@@V?$allocator@D@2@@std@@P6AHH@Z@std@@@std@@@std@@@0@PAV10@00AAV?$allocator@V?$_List_unchecked_iterator@V?$_List_val@U?$_List_simple_types@U?$pair@$$CBV?$basic_string@DU?$char_traits@D@std@@V?$allocator@D@2@@std@@P6AHH@Z@std@@@std@@@std@@@std@@@0@@Z 100f4e50 f i SequenceProxy.obj
 0002:00045f20       ??$_Uninitialized_move_al_unchecked@PAV?$_List_unchecked_iterator@V?$_List_val@U?$_List_simple_types@U?$pair@$$CBV?$basic_string@DU?$char_traits@D@std@@V?$allocator@D@2@@std@@P6AHH@Z@std@@@std@@@std@@@std@@PAV12@V?$allocator@V?$_List_unchecked_iterator@V?$_List_val@U?$_List_simple_types@U?$pair@$$CBV?$basic_string@DU?$char_traits@D@std@@V?$allocator@D@2@@std@@P6AHH@Z@std@@@std@@@std@@@std@@@2@@std@@YAPAV?$_List_unchecked_iterator@V?$_List_val@U?$_List_simple_types@U?$pair@$$CBV?$basic_string@DU?$char_traits@D@std@@V?$allocator@D@2@@std@@P6AHH@Z@std@@@std@@@std@@@0@PAV10@00AAV?$allocator@V?$_List_unchecked_iterator@V?$_List_val@U?$_List_simple_types@U?$pair@$$CBV?$basic_string@DU?$char_traits@D@std@@V?$allocator@D@2@@std@@P6AHH@Z@std@@@std@@@std@@@std@@@0@U_General_ptr_iterator_tag@0@U_Unused_parameter@0@@Z 100f4f20 f i SequenceProxy.obj
 0002:00046020       ??$addressof@$$CBV?$_List_val@U?$_List_simple_types@U?$pair@$$CBV?$basic_string@DU?$char_traits@D@std@@V?$allocator@D@2@@std@@P6AHH@Z@std@@@std@@@std@@@std@@YAPBV?$_List_val@U?$_List_simple_types@U?$pair@$$CBV?$basic_string@DU?$char_traits@D@std@@V?$allocator@D@2@@std@@P6AHH@Z@std@@@std@@@0@ABV10@@Z 100f5020 f i SequenceProxy.obj
 0002:00046040       ??$addressof@PAU?$_List_node@U?$pair@$$CBV?$basic_string@DU?$char_traits@D@std@@V?$allocator@D@2@@std@@P6AHH@Z@std@@PAX@std@@@std@@YAPAPAU?$_List_node@U?$pair@$$CBV?$basic_string@DU?$char_traits@D@std@@V?$allocator@D@2@@std@@P6AHH@Z@std@@PAX@0@AAPAU10@@Z 100f5040 f i SequenceProxy.obj
 0002:00046060       ??$addressof@U?$pair@$$CBV?$basic_string@DU?$char_traits@D@std@@V?$allocator@D@2@@std@@P6AHH@Z@std@@@std@@YAPAU?$pair@$$CBV?$basic_string@DU?$char_traits@D@std@@V?$allocator@D@2@@std@@P6AHH@Z@0@AAU10@@Z 100f5060 f i SequenceProxy.obj
 0002:00046080       ??$addressof@V?$_List_val@U?$_List_simple_types@U?$pair@$$CBV?$basic_string@DU?$char_traits@D@std@@V?$allocator@D@2@@std@@P6AHH@Z@std@@@std@@@std@@@std@@YAPAV?$_List_val@U?$_List_simple_types@U?$pair@$$CBV?$basic_string@DU?$char_traits@D@std@@V?$allocator@D@2@@std@@P6AHH@Z@std@@@std@@@0@AAV10@@Z 100f5080 f i SequenceProxy.obj
 0002:000460a0       ??$construct@PAU?$_List_node@U?$pair@$$CBV?$basic_string@DU?$char_traits@D@std@@V?$allocator@D@2@@std@@P6AHH@Z@std@@PAX@std@@AAPAU12@@?$_Default_allocator_traits@V?$allocator@U?$_List_node@U?$pair@$$CBV?$basic_string@DU?$char_traits@D@std@@V?$allocator@D@2@@std@@P6AHH@Z@std@@PAX@std@@@std@@@std@@SAXAAV?$allocator@U?$_List_node@U?$pair@$$CBV?$basic_string@DU?$char_traits@D@std@@V?$allocator@D@2@@std@@P6AHH@Z@std@@PAX@std@@@1@QAPAU?$_List_node@U?$pair@$$CBV?$basic_string@DU?$char_traits@D@std@@V?$allocator@D@2@@std@@P6AHH@Z@std@@PAX@1@AAPAU31@@Z 100f50a0 f i SequenceProxy.obj
 0002:000460f0       ??$construct@U?$pair@$$CBV?$basic_string@DU?$char_traits@D@std@@V?$allocator@D@2@@std@@P6AHH@Z@std@@ABU12@@?$_Default_allocator_traits@V?$allocator@U?$_List_node@U?$pair@$$CBV?$basic_string@DU?$char_traits@D@std@@V?$allocator@D@2@@std@@P6AHH@Z@std@@PAX@std@@@std@@@std@@SAXAAV?$allocator@U?$_List_node@U?$pair@$$CBV?$basic_string@DU?$char_traits@D@std@@V?$allocator@D@2@@std@@P6AHH@Z@std@@PAX@std@@@1@QAU?$pair@$$CBV?$basic_string@DU?$char_traits@D@std@@V?$allocator@D@2@@std@@P6AHH@Z@1@ABU31@@Z 100f50f0 f i SequenceProxy.obj
 0002:00046180       ??$construct@V?$_List_unchecked_iterator@V?$_List_val@U?$_List_simple_types@U?$pair@$$CBV?$basic_string@DU?$char_traits@D@std@@V?$allocator@D@2@@std@@P6AHH@Z@std@@@std@@@std@@@std@@ABV12@@?$_Default_allocator_traits@V?$allocator@V?$_List_unchecked_iterator@V?$_List_val@U?$_List_simple_types@U?$pair@$$CBV?$basic_string@DU?$char_traits@D@std@@V?$allocator@D@2@@std@@P6AHH@Z@std@@@std@@@std@@@std@@@std@@@std@@SAXAAV?$allocator@V?$_List_unchecked_iterator@V?$_List_val@U?$_List_simple_types@U?$pair@$$CBV?$basic_string@DU?$char_traits@D@std@@V?$allocator@D@2@@std@@P6AHH@Z@std@@@std@@@std@@@std@@@1@QAV?$_List_unchecked_iterator@V?$_List_val@U?$_List_simple_types@U?$pair@$$CBV?$basic_string@DU?$char_traits@D@std@@V?$allocator@D@2@@std@@P6AHH@Z@std@@@std@@@std@@@1@ABV31@@Z 100f5180 f i SequenceProxy.obj
 0002:000461d0       ??$construct@V?$_List_unchecked_iterator@V?$_List_val@U?$_List_simple_types@U?$pair@$$CBV?$basic_string@DU?$char_traits@D@std@@V?$allocator@D@2@@std@@P6AHH@Z@std@@@std@@@std@@@std@@V12@@?$_Default_allocator_traits@V?$allocator@V?$_List_unchecked_iterator@V?$_List_val@U?$_List_simple_types@U?$pair@$$CBV?$basic_string@DU?$char_traits@D@std@@V?$allocator@D@2@@std@@P6AHH@Z@std@@@std@@@std@@@std@@@std@@@std@@SAXAAV?$allocator@V?$_List_unchecked_iterator@V?$_List_val@U?$_List_simple_types@U?$pair@$$CBV?$basic_string@DU?$char_traits@D@std@@V?$allocator@D@2@@std@@P6AHH@Z@std@@@std@@@std@@@std@@@1@QAV?$_List_unchecked_iterator@V?$_List_val@U?$_List_simple_types@U?$pair@$$CBV?$basic_string@DU?$char_traits@D@std@@V?$allocator@D@2@@std@@P6AHH@Z@std@@@std@@@std@@@1@$$QAV31@@Z 100f51d0 f i SequenceProxy.obj
 0002:00046220       ??$destroy@PAU?$_List_node@U?$pair@$$CBV?$basic_string@DU?$char_traits@D@std@@V?$allocator@D@2@@std@@P6AHH@Z@std@@PAX@std@@@?$_Default_allocator_traits@V?$allocator@U?$_List_node@U?$pair@$$CBV?$basic_string@DU?$char_traits@D@std@@V?$allocator@D@2@@std@@P6AHH@Z@std@@PAX@std@@@std@@@std@@SAXAAV?$allocator@U?$_List_node@U?$pair@$$CBV?$basic_string@DU?$char_traits@D@std@@V?$allocator@D@2@@std@@P6AHH@Z@std@@PAX@std@@@1@QAPAU?$_List_node@U?$pair@$$CBV?$basic_string@DU?$char_traits@D@std@@V?$allocator@D@2@@std@@P6AHH@Z@std@@PAX@1@@Z 100f5220 f i SequenceProxy.obj
 0002:00046240       ??$destroy@U?$pair@$$CBV?$basic_string@DU?$char_traits@D@std@@V?$allocator@D@2@@std@@P6AHH@Z@std@@@?$_Default_allocator_traits@V?$allocator@U?$_List_node@U?$pair@$$CBV?$basic_string@DU?$char_traits@D@std@@V?$allocator@D@2@@std@@P6AHH@Z@std@@PAX@std@@@std@@@std@@SAXAAV?$allocator@U?$_List_node@U?$pair@$$CBV?$basic_string@DU?$char_traits@D@std@@V?$allocator@D@2@@std@@P6AHH@Z@std@@PAX@std@@@1@QAU?$pair@$$CBV?$basic_string@DU?$char_traits@D@std@@V?$allocator@D@2@@std@@P6AHH@Z@1@@Z 100f5240 f i SequenceProxy.obj
 0002:00046260       ??$emplace@ABU?$pair@$$CBV?$basic_string@DU?$char_traits@D@std@@V?$allocator@D@2@@std@@P6AHH@Z@std@@@?$_Hash@V?$_Umap_traits@V?$basic_string@DU?$char_traits@D@std@@V?$allocator@D@2@@std@@P6AHH@ZV?$_Uhash_compare@V?$basic_string@DU?$char_traits@D@std@@V?$allocator@D@2@@std@@U?$hash@V?$basic_string@DU?$char_traits@D@std@@V?$allocator@D@2@@std@@@2@U?$equal_to@V?$basic_string@DU?$char_traits@D@std@@V?$allocator@D@2@@std@@@2@@2@V?$allocator@U?$pair@$$CBV?$basic_string@DU?$char_traits@D@std@@V?$allocator@D@2@@std@@P6AHH@Z@std@@@2@$0A@@std@@@std@@QAE?AU?$pair@V?$_List_iterator@V?$_List_val@U?$_List_simple_types@U?$pair@$$CBV?$basic_string@DU?$char_traits@D@std@@V?$allocator@D@2@@std@@P6AHH@Z@std@@@std@@@std@@@std@@_N@1@ABU?$pair@$$CBV?$basic_string@DU?$char_traits@D@std@@V?$allocator@D@2@@std@@P6AHH@Z@1@@Z 100f5260 f i SequenceProxy.obj
 0002:000462d0       ??$emplace_front@ABU?$pair@$$CBV?$basic_string@DU?$char_traits@D@std@@V?$allocator@D@2@@std@@P6AHH@Z@std@@@?$list@U?$pair@$$CBV?$basic_string@DU?$char_traits@D@std@@V?$allocator@D@2@@std@@P6AHH@Z@std@@V?$allocator@U?$pair@$$CBV?$basic_string@DU?$char_traits@D@std@@V?$allocator@D@2@@std@@P6AHH@Z@std@@@2@@std@@QAE@ABU?$pair@$$CBV?$basic_string@DU?$char_traits@D@std@@V?$allocator@D@2@@std@@P6AHH@Z@1@@Z 100f52d0 f i SequenceProxy.obj
 0002:00046320       ??$erase@V?$_List_iterator@V?$_List_val@U?$_List_simple_types@U?$pair@$$CBV?$basic_string@DU?$char_traits@D@std@@V?$allocator@D@2@@std@@P6AHH@Z@std@@@std@@@std@@@std@@X@?$_Hash@V?$_Umap_traits@V?$basic_string@DU?$char_traits@D@std@@V?$allocator@D@2@@std@@P6AHH@ZV?$_Uhash_compare@V?$basic_string@DU?$char_traits@D@std@@V?$allocator@D@2@@std@@U?$hash@V?$basic_string@DU?$char_traits@D@std@@V?$allocator@D@2@@std@@@2@U?$equal_to@V?$basic_string@DU?$char_traits@D@std@@V?$allocator@D@2@@std@@@2@@2@V?$allocator@U?$pair@$$CBV?$basic_string@DU?$char_traits@D@std@@V?$allocator@D@2@@std@@P6AHH@Z@std@@@2@$0A@@std@@@std@@QAE?AV?$_List_iterator@V?$_List_val@U?$_List_simple_types@U?$pair@$$CBV?$basic_string@DU?$char_traits@D@std@@V?$allocator@D@2@@std@@P6AHH@Z@std@@@std@@@std@@@1@V21@@Z 100f5320 f i SequenceProxy.obj
 0002:00046360       ??$forward@AAPAU?$_List_node@U?$pair@$$CBV?$basic_string@DU?$char_traits@D@std@@V?$allocator@D@2@@std@@P6AHH@Z@std@@PAX@std@@@std@@YAAAPAU?$_List_node@U?$pair@$$CBV?$basic_string@DU?$char_traits@D@std@@V?$allocator@D@2@@std@@P6AHH@Z@std@@PAX@0@AAPAU10@@Z 100f5360 f i SequenceProxy.obj
 0002:00046380       ??$forward@AAU?$equal_to@V?$basic_string@DU?$char_traits@D@std@@V?$allocator@D@2@@std@@@std@@@std@@YAAAU?$equal_to@V?$basic_string@DU?$char_traits@D@std@@V?$allocator@D@2@@std@@@0@AAU10@@Z 100f5380 f i SequenceProxy.obj
 0002:000463a0       ??$forward@AAU?$hash@V?$basic_string@DU?$char_traits@D@std@@V?$allocator@D@2@@std@@@std@@@std@@YAAAU?$hash@V?$basic_string@DU?$char_traits@D@std@@V?$allocator@D@2@@std@@@0@AAU10@@Z 100f53a0 f i SequenceProxy.obj
 0002:000463c0       ??$forward@AAU?$pair@$$CBV?$basic_string@DU?$char_traits@D@std@@V?$allocator@D@2@@std@@P6AHH@Z@std@@@std@@YAAAU?$pair@$$CBV?$basic_string@DU?$char_traits@D@std@@V?$allocator@D@2@@std@@P6AHH@Z@0@AAU10@@Z 100f53c0 f i SequenceProxy.obj
 0002:000463e0       ??$forward@AAY0CA@$$CBD@std@@YAAAY0CA@$$CBDAAY0CA@$$CBD@Z 100f53e0 f i SequenceProxy.obj
 0002:00046400       ??$forward@AAY0CF@$$CBD@std@@YAAAY0CF@$$CBDAAY0CF@$$CBD@Z 100f5400 f i SequenceProxy.obj
 0002:00046420       ??$forward@AAY0CK@$$CBD@std@@YAAAY0CK@$$CBDAAY0CK@$$CBD@Z 100f5420 f i SequenceProxy.obj
 0002:00046440       ??$forward@AAY0CN@$$CBD@std@@YAAAY0CN@$$CBDAAY0CN@$$CBD@Z 100f5440 f i SequenceProxy.obj
 0002:00046460       ??$forward@ABU?$pair@$$CBV?$basic_string@DU?$char_traits@D@std@@V?$allocator@D@2@@std@@P6AHH@Z@std@@@std@@YAABU?$pair@$$CBV?$basic_string@DU?$char_traits@D@std@@V?$allocator@D@2@@std@@P6AHH@Z@0@ABU10@@Z 100f5460 f i SequenceProxy.obj
 0002:00046480       ??$forward@ABV?$_List_unchecked_iterator@V?$_List_val@U?$_List_simple_types@U?$pair@$$CBV?$basic_string@DU?$char_traits@D@std@@V?$allocator@D@2@@std@@P6AHH@Z@std@@@std@@@std@@@std@@@std@@YAABV?$_List_unchecked_iterator@V?$_List_val@U?$_List_simple_types@U?$pair@$$CBV?$basic_string@DU?$char_traits@D@std@@V?$allocator@D@2@@std@@P6AHH@Z@std@@@std@@@std@@@0@ABV10@@Z 100f5480 f i SequenceProxy.obj
 0002:000464a0       ??$forward@ABV?$allocator@U?$pair@$$CBV?$basic_string@DU?$char_traits@D@std@@V?$allocator@D@2@@std@@P6AHH@Z@std@@@std@@@std@@YAABV?$allocator@U?$pair@$$CBV?$basic_string@DU?$char_traits@D@std@@V?$allocator@D@2@@std@@P6AHH@Z@std@@@0@ABV10@@Z 100f54a0 f i SequenceProxy.obj
 0002:000464c0       ??$forward@ABV?$allocator@V?$_List_unchecked_iterator@V?$_List_val@U?$_List_simple_types@U?$pair@$$CBV?$basic_string@DU?$char_traits@D@std@@V?$allocator@D@2@@std@@P6AHH@Z@std@@@std@@@std@@@std@@@std@@@std@@YAABV?$allocator@V?$_List_unchecked_iterator@V?$_List_val@U?$_List_simple_types@U?$pair@$$CBV?$basic_string@DU?$char_traits@D@std@@V?$allocator@D@2@@std@@P6AHH@Z@std@@@std@@@std@@@std@@@0@ABV10@@Z 100f54c0 f i SequenceProxy.obj
 0002:00046560       ??$forward@V?$_List_iterator@V?$_List_val@U?$_List_simple_types@U?$pair@$$CBV?$basic_string@DU?$char_traits@D@std@@V?$allocator@D@2@@std@@P6AHH@Z@std@@@std@@@std@@@std@@@std@@YA$$QAV?$_List_iterator@V?$_List_val@U?$_List_simple_types@U?$pair@$$CBV?$basic_string@DU?$char_traits@D@std@@V?$allocator@D@2@@std@@P6AHH@Z@std@@@std@@@std@@@0@AAV10@@Z 100f5560 f i SequenceProxy.obj
 0002:00046580       ??$forward@V?$_List_unchecked_iterator@V?$_List_val@U?$_List_simple_types@U?$pair@$$CBV?$basic_string@DU?$char_traits@D@std@@V?$allocator@D@2@@std@@P6AHH@Z@std@@@std@@@std@@@std@@@std@@YA$$QAV?$_List_unchecked_iterator@V?$_List_val@U?$_List_simple_types@U?$pair@$$CBV?$basic_string@DU?$char_traits@D@std@@V?$allocator@D@2@@std@@P6AHH@Z@std@@@std@@@std@@@0@AAV10@@Z 100f5580 f i SequenceProxy.obj
 0002:000465a0       ??$insert@PBU?$pair@$$CBV?$basic_string@DU?$char_traits@D@std@@V?$allocator@D@2@@std@@P6AHH@Z@std@@@?$_Hash@V?$_Umap_traits@V?$basic_string@DU?$char_traits@D@std@@V?$allocator@D@2@@std@@P6AHH@ZV?$_Uhash_compare@V?$basic_string@DU?$char_traits@D@std@@V?$allocator@D@2@@std@@U?$hash@V?$basic_string@DU?$char_traits@D@std@@V?$allocator@D@2@@std@@@2@U?$equal_to@V?$basic_string@DU?$char_traits@D@std@@V?$allocator@D@2@@std@@@2@@2@V?$allocator@U?$pair@$$CBV?$basic_string@DU?$char_traits@D@std@@V?$allocator@D@2@@std@@P6AHH@Z@std@@@2@$0A@@std@@@std@@QAEXPBU?$pair@$$CBV?$basic_string@DU?$char_traits@D@std@@V?$allocator@D@2@@std@@P6AHH@Z@1@0@Z 100f55a0 f i SequenceProxy.obj
 0002:000465f0       ??$move@AAV?$_List_unchecked_iterator@V?$_List_val@U?$_List_simple_types@U?$pair@$$CBV?$basic_string@DU?$char_traits@D@std@@V?$allocator@D@2@@std@@P6AHH@Z@std@@@std@@@std@@@std@@@std@@YA$$QAV?$_List_unchecked_iterator@V?$_List_val@U?$_List_simple_types@U?$pair@$$CBV?$basic_string@DU?$char_traits@D@std@@V?$allocator@D@2@@std@@P6AHH@Z@std@@@std@@@std@@@0@AAV10@@Z 100f55f0 f i SequenceProxy.obj
 0002:00046610       ??0?$_Hash@V?$_Umap_traits@V?$basic_string@DU?$char_traits@D@std@@V?$allocator@D@2@@std@@P6AHH@ZV?$_Uhash_compare@V?$basic_string@DU?$char_traits@D@std@@V?$allocator@D@2@@std@@U?$hash@V?$basic_string@DU?$char_traits@D@std@@V?$allocator@D@2@@std@@@2@U?$equal_to@V?$basic_string@DU?$char_traits@D@std@@V?$allocator@D@2@@std@@@2@@2@V?$allocator@U?$pair@$$CBV?$basic_string@DU?$char_traits@D@std@@V?$allocator@D@2@@std@@P6AHH@Z@std@@@2@$0A@@std@@@std@@QAE@ABV?$_Uhash_compare@V?$basic_string@DU?$char_traits@D@std@@V?$allocator@D@2@@std@@U?$hash@V?$basic_string@DU?$char_traits@D@std@@V?$allocator@D@2@@std@@@2@U?$equal_to@V?$basic_string@DU?$char_traits@D@std@@V?$allocator@D@2@@std@@@2@@1@ABV?$allocator@U?$pair@$$CBV?$basic_string@DU?$char_traits@D@std@@V?$allocator@D@2@@std@@P6AHH@Z@std@@@1@@Z 100f5610 f i SequenceProxy.obj
 0002:000466e0       ??0?$_List_const_iterator@V?$_List_val@U?$_List_simple_types@U?$pair@$$CBV?$basic_string@DU?$char_traits@D@std@@V?$allocator@D@2@@std@@P6AHH@Z@std@@@std@@@std@@@std@@QAE@PAU?$_List_node@U?$pair@$$CBV?$basic_string@DU?$char_traits@D@std@@V?$allocator@D@2@@std@@P6AHH@Z@std@@PAX@1@PBV?$_List_val@U?$_List_simple_types@U?$pair@$$CBV?$basic_string@DU?$char_traits@D@std@@V?$allocator@D@2@@std@@P6AHH@Z@std@@@std@@@1@@Z 100f56e0 f i SequenceProxy.obj
 0002:00046720       ??0?$_List_iterator@V?$_List_val@U?$_List_simple_types@U?$pair@$$CBV?$basic_string@DU?$char_traits@D@std@@V?$allocator@D@2@@std@@P6AHH@Z@std@@@std@@@std@@@std@@QAE@PAU?$_List_node@U?$pair@$$CBV?$basic_string@DU?$char_traits@D@std@@V?$allocator@D@2@@std@@P6AHH@Z@std@@PAX@1@PBV?$_List_val@U?$_List_simple_types@U?$pair@$$CBV?$basic_string@DU?$char_traits@D@std@@V?$allocator@D@2@@std@@P6AHH@Z@std@@@std@@@1@@Z 100f5720 f i SequenceProxy.obj
 0002:00046760       ??0?$_List_unchecked_const_iterator@V?$_List_val@U?$_List_simple_types@U?$pair@$$CBV?$basic_string@DU?$char_traits@D@std@@V?$allocator@D@2@@std@@P6AHH@Z@std@@@std@@@std@@U_Iterator_base0@2@@std@@QAE@PAU?$_List_node@U?$pair@$$CBV?$basic_string@DU?$char_traits@D@std@@V?$allocator@D@2@@std@@P6AHH@Z@std@@PAX@1@PBV?$_List_val@U?$_List_simple_types@U?$pair@$$CBV?$basic_string@DU?$char_traits@D@std@@V?$allocator@D@2@@std@@P6AHH@Z@std@@@std@@@1@@Z 100f5760 f i SequenceProxy.obj
 0002:000467a0       ??0?$_List_unchecked_const_iterator@V?$_List_val@U?$_List_simple_types@U?$pair@$$CBV?$basic_string@DU?$char_traits@D@std@@V?$allocator@D@2@@std@@P6AHH@Z@std@@@std@@@std@@U_Iterator_base0@2@@std@@QAE@XZ 100f57a0 f i SequenceProxy.obj
 0002:000467d0       ??0?$_List_unchecked_iterator@V?$_List_val@U?$_List_simple_types@U?$pair@$$CBV?$basic_string@DU?$char_traits@D@std@@V?$allocator@D@2@@std@@P6AHH@Z@std@@@std@@@std@@@std@@QAE@PAU?$_List_node@U?$pair@$$CBV?$basic_string@DU?$char_traits@D@std@@V?$allocator@D@2@@std@@P6AHH@Z@std@@PAX@1@PBV?$_List_val@U?$_List_simple_types@U?$pair@$$CBV?$basic_string@DU?$char_traits@D@std@@V?$allocator@D@2@@std@@P6AHH@Z@std@@@std@@@1@@Z 100f57d0 f i SequenceProxy.obj
 0002:00046810       ??0?$_List_unchecked_iterator@V?$_List_val@U?$_List_simple_types@U?$pair@$$CBV?$basic_string@DU?$char_traits@D@std@@V?$allocator@D@2@@std@@P6AHH@Z@std@@@std@@@std@@@std@@QAE@XZ 100f5810 f i SequenceProxy.obj
 0002:00046840       ??0?$_List_val@U?$_List_simple_types@U?$pair@$$CBV?$basic_string@DU?$char_traits@D@std@@V?$allocator@D@2@@std@@P6AHH@Z@std@@@std@@@std@@QAE@XZ 100f5840 f i SequenceProxy.obj
 0002:00046880       ??0?$_Uhash_compare@V?$basic_string@DU?$char_traits@D@std@@V?$allocator@D@2@@std@@U?$hash@V?$basic_string@DU?$char_traits@D@std@@V?$allocator@D@2@@std@@@2@U?$equal_to@V?$basic_string@DU?$char_traits@D@std@@V?$allocator@D@2@@std@@@2@@std@@QAE@U?$hash@V?$basic_string@DU?$char_traits@D@std@@V?$allocator@D@2@@std@@@1@U?$equal_to@V?$basic_string@DU?$char_traits@D@std@@V?$allocator@D@2@@std@@@1@@Z 100f5880 f i SequenceProxy.obj
 0002:000468d0       ??0?$_Umap_traits@V?$basic_string@DU?$char_traits@D@std@@V?$allocator@D@2@@std@@P6AHH@ZV?$_Uhash_compare@V?$basic_string@DU?$char_traits@D@std@@V?$allocator@D@2@@std@@U?$hash@V?$basic_string@DU?$char_traits@D@std@@V?$allocator@D@2@@std@@@2@U?$equal_to@V?$basic_string@DU?$char_traits@D@std@@V?$allocator@D@2@@std@@@2@@2@V?$allocator@U?$pair@$$CBV?$basic_string@DU?$char_traits@D@std@@V?$allocator@D@2@@std@@P6AHH@Z@std@@@2@$0A@@std@@QAE@ABV?$_Uhash_compare@V?$basic_string@DU?$char_traits@D@std@@V?$allocator@D@2@@std@@U?$hash@V?$basic_string@DU?$char_traits@D@std@@V?$allocator@D@2@@std@@@2@U?$equal_to@V?$basic_string@DU?$char_traits@D@std@@V?$allocator@D@2@@std@@@2@@1@@Z 100f58d0 f i SequenceProxy.obj
 0002:00046900       ??0?$_Vector_val@U?$_Simple_types@V?$_List_unchecked_iterator@V?$_List_val@U?$_List_simple_types@U?$pair@$$CBV?$basic_string@DU?$char_traits@D@std@@V?$allocator@D@2@@std@@P6AHH@Z@std@@@std@@@std@@@std@@@std@@@std@@QAE@XZ 100f5900 f i SequenceProxy.obj
 0002:00046940       ??0?$allocator@U?$pair@$$CBV?$basic_string@DU?$char_traits@D@std@@V?$allocator@D@2@@std@@P6AHH@Z@std@@@std@@QAE@XZ 100f5940 f i SequenceProxy.obj
 0002:00046960       ??0?$initializer_list@U?$pair@$$CBV?$basic_string@DU?$char_traits@D@std@@V?$allocator@D@2@@std@@P6AHH@Z@std@@@std@@QAE@PBU?$pair@$$CBV?$basic_string@DU?$char_traits@D@std@@V?$allocator@D@2@@std@@P6AHH@Z@1@0@Z 100f5960 f i SequenceProxy.obj
 0002:000469a0       ??0?$list@U?$pair@$$CBV?$basic_string@DU?$char_traits@D@std@@V?$allocator@D@2@@std@@P6AHH@Z@std@@V?$allocator@U?$pair@$$CBV?$basic_string@DU?$char_traits@D@std@@V?$allocator@D@2@@std@@P6AHH@Z@std@@@2@@std@@QAE@ABV?$allocator@U?$pair@$$CBV?$basic_string@DU?$char_traits@D@std@@V?$allocator@D@2@@std@@P6AHH@Z@std@@@1@@Z 100f59a0 f i SequenceProxy.obj
 0002:000469d0       ??0?$pair@$$CBV?$basic_string@DU?$char_traits@D@std@@V?$allocator@D@2@@std@@P6AHH@Z@std@@QAE@ABU01@@Z 100f59d0 f i SequenceProxy.obj
 0002:00046a10       ??0?$unordered_map@V?$basic_string@DU?$char_traits@D@std@@V?$allocator@D@2@@std@@P6AHH@ZU?$hash@V?$basic_string@DU?$char_traits@D@std@@V?$allocator@D@2@@std@@@2@U?$equal_to@V?$basic_string@DU?$char_traits@D@std@@V?$allocator@D@2@@std@@@2@V?$allocator@U?$pair@$$CBV?$basic_string@DU?$char_traits@D@std@@V?$allocator@D@2@@std@@P6AHH@Z@std@@@2@@std@@QAE@V?$initializer_list@U?$pair@$$CBV?$basic_string@DU?$char_traits@D@std@@V?$allocator@D@2@@std@@P6AHH@Z@std@@@1@@Z 100f5a10 f i SequenceProxy.obj
 0002:00046ac0       ??0?$vector@V?$_List_unchecked_iterator@V?$_List_val@U?$_List_simple_types@U?$pair@$$CBV?$basic_string@DU?$char_traits@D@std@@V?$allocator@D@2@@std@@P6AHH@Z@std@@@std@@@std@@@std@@V?$allocator@V?$_List_unchecked_iterator@V?$_List_val@U?$_List_simple_types@U?$pair@$$CBV?$basic_string@DU?$char_traits@D@std@@V?$allocator@D@2@@std@@P6AHH@Z@std@@@std@@@std@@@std@@@2@@std@@QAE@ABV?$allocator@V?$_List_unchecked_iterator@V?$_List_val@U?$_List_simple_types@U?$pair@$$CBV?$basic_string@DU?$char_traits@D@std@@V?$allocator@D@2@@std@@P6AHH@Z@std@@@std@@@std@@@std@@@1@@Z 100f5ac0 f i SequenceProxy.obj
 0002:00046b30       ??0dutqine@@QAE@XZ         100f5b30 f   SequenceProxy.obj
 0002:00047420       ??0qhpcnmo@@QAE@XZ         100f6420 f   SequenceProxy.obj
 0002:00047740       ??0rwdjlky@@QAE@XZ         100f6740 f   SequenceProxy.obj
 0002:00047f70       ??1?$_Hash@V?$_Umap_traits@V?$basic_string@DU?$char_traits@D@std@@V?$allocator@D@2@@std@@P6AHH@ZV?$_Uhash_compare@V?$basic_string@DU?$char_traits@D@std@@V?$allocator@D@2@@std@@U?$hash@V?$basic_string@DU?$char_traits@D@std@@V?$allocator@D@2@@std@@@2@U?$equal_to@V?$basic_string@DU?$char_traits@D@std@@V?$allocator@D@2@@std@@@2@@2@V?$allocator@U?$pair@$$CBV?$basic_string@DU?$char_traits@D@std@@V?$allocator@D@2@@std@@P6AHH@Z@std@@@2@$0A@@std@@@std@@QAE@XZ 100f6f70 f i SequenceProxy.obj
 0002:00047fb0       ??1?$_List_alloc@U?$_List_base_types@U?$pair@$$CBV?$basic_string@DU?$char_traits@D@std@@V?$allocator@D@2@@std@@P6AHH@Z@std@@V?$allocator@U?$pair@$$CBV?$basic_string@DU?$char_traits@D@std@@V?$allocator@D@2@@std@@P6AHH@Z@std@@@2@@std@@@std@@QAE@XZ 100f6fb0 f i SequenceProxy.obj
 0002:00048020       ??1?$_List_buy@U?$pair@$$CBV?$basic_string@DU?$char_traits@D@std@@V?$allocator@D@2@@std@@P6AHH@Z@std@@V?$allocator@U?$pair@$$CBV?$basic_string@DU?$char_traits@D@std@@V?$allocator@D@2@@std@@P6AHH@Z@std@@@2@@std@@QAE@XZ 100f7020 f i SequenceProxy.obj
 0002:00048050       ??1?$list@U?$pair@$$CBV?$basic_string@DU?$char_traits@D@std@@V?$allocator@D@2@@std@@P6AHH@Z@std@@V?$allocator@U?$pair@$$CBV?$basic_string@DU?$char_traits@D@std@@V?$allocator@D@2@@std@@P6AHH@Z@std@@@2@@std@@QAE@XZ 100f7050 f i SequenceProxy.obj
 0002:000480b0       ??1?$pair@$$CBV?$basic_string@DU?$char_traits@D@std@@V?$allocator@D@2@@std@@P6AHH@Z@std@@QAE@XZ 100f70b0 f i SequenceProxy.obj
 0002:000480e0       ??1?$unordered_map@V?$basic_string@DU?$char_traits@D@std@@V?$allocator@D@2@@std@@P6AHH@ZU?$hash@V?$basic_string@DU?$char_traits@D@std@@V?$allocator@D@2@@std@@@2@U?$equal_to@V?$basic_string@DU?$char_traits@D@std@@V?$allocator@D@2@@std@@@2@V?$allocator@U?$pair@$$CBV?$basic_string@DU?$char_traits@D@std@@V?$allocator@D@2@@std@@P6AHH@Z@std@@@2@@std@@QAE@XZ 100f70e0 f i SequenceProxy.obj
 0002:00048110       ??1?$vector@V?$_List_unchecked_iterator@V?$_List_val@U?$_List_simple_types@U?$pair@$$CBV?$basic_string@DU?$char_traits@D@std@@V?$allocator@D@2@@std@@P6AHH@Z@std@@@std@@@std@@@std@@V?$allocator@V?$_List_unchecked_iterator@V?$_List_val@U?$_List_simple_types@U?$pair@$$CBV?$basic_string@DU?$char_traits@D@std@@V?$allocator@D@2@@std@@P6AHH@Z@std@@@std@@@std@@@std@@@2@@std@@QAE@XZ 100f7110 f i SequenceProxy.obj
 0002:00048170       ??8?$_List_unchecked_const_iterator@V?$_List_val@U?$_List_simple_types@U?$pair@$$CBV?$basic_string@DU?$char_traits@D@std@@V?$allocator@D@2@@std@@P6AHH@Z@std@@@std@@@std@@U_Iterator_base0@2@@std@@QBE_NABV01@@Z 100f7170 f i SequenceProxy.obj
 0002:000481c0       ??9?$_List_unchecked_const_iterator@V?$_List_val@U?$_List_simple_types@U?$pair@$$CBV?$basic_string@DU?$char_traits@D@std@@V?$allocator@D@2@@std@@P6AHH@Z@std@@@std@@@std@@U_Iterator_base0@2@@std@@QBE_NABV01@@Z 100f71c0 f i SequenceProxy.obj
 0002:00048210       ??A?$vector@V?$_List_unchecked_iterator@V?$_List_val@U?$_List_simple_types@U?$pair@$$CBV?$basic_string@DU?$char_traits@D@std@@V?$allocator@D@2@@std@@P6AHH@Z@std@@@std@@@std@@@std@@V?$allocator@V?$_List_unchecked_iterator@V?$_List_val@U?$_List_simple_types@U?$pair@$$CBV?$basic_string@DU?$char_traits@D@std@@V?$allocator@D@2@@std@@P6AHH@Z@std@@@std@@@std@@@std@@@2@@std@@QAEAAV?$_List_unchecked_iterator@V?$_List_val@U?$_List_simple_types@U?$pair@$$CBV?$basic_string@DU?$char_traits@D@std@@V?$allocator@D@2@@std@@P6AHH@Z@std@@@std@@@std@@@1@I@Z 100f7210 f i SequenceProxy.obj
 0002:000482c0       ??D?$_List_const_iterator@V?$_List_val@U?$_List_simple_types@U?$pair@$$CBV?$basic_string@DU?$char_traits@D@std@@V?$allocator@D@2@@std@@P6AHH@Z@std@@@std@@@std@@@std@@QBEABU?$pair@$$CBV?$basic_string@DU?$char_traits@D@std@@V?$allocator@D@2@@std@@P6AHH@Z@1@XZ 100f72c0 f i SequenceProxy.obj
 0002:000482f0       ??D?$_List_iterator@V?$_List_val@U?$_List_simple_types@U?$pair@$$CBV?$basic_string@DU?$char_traits@D@std@@V?$allocator@D@2@@std@@P6AHH@Z@std@@@std@@@std@@@std@@QBEAAU?$pair@$$CBV?$basic_string@DU?$char_traits@D@std@@V?$allocator@D@2@@std@@P6AHH@Z@1@XZ 100f72f0 f i SequenceProxy.obj
 0002:00048320       ??D?$_List_unchecked_const_iterator@V?$_List_val@U?$_List_simple_types@U?$pair@$$CBV?$basic_string@DU?$char_traits@D@std@@V?$allocator@D@2@@std@@P6AHH@Z@std@@@std@@@std@@U_Iterator_base0@2@@std@@QBEABU?$pair@$$CBV?$basic_string@DU?$char_traits@D@std@@V?$allocator@D@2@@std@@P6AHH@Z@1@XZ 100f7320 f i SequenceProxy.obj
 0002:00048350       ??D?$_List_unchecked_iterator@V?$_List_val@U?$_List_simple_types@U?$pair@$$CBV?$basic_string@DU?$char_traits@D@std@@V?$allocator@D@2@@std@@P6AHH@Z@std@@@std@@@std@@@std@@QBEAAU?$pair@$$CBV?$basic_string@DU?$char_traits@D@std@@V?$allocator@D@2@@std@@P6AHH@Z@1@XZ 100f7350 f i SequenceProxy.obj
 0002:00048380       ??E?$_List_const_iterator@V?$_List_val@U?$_List_simple_types@U?$pair@$$CBV?$basic_string@DU?$char_traits@D@std@@V?$allocator@D@2@@std@@P6AHH@Z@std@@@std@@@std@@@std@@QAE?AV01@H@Z 100f7380 f i SequenceProxy.obj
 0002:000483f0       ??E?$_List_const_iterator@V?$_List_val@U?$_List_simple_types@U?$pair@$$CBV?$basic_string@DU?$char_traits@D@std@@V?$allocator@D@2@@std@@P6AHH@Z@std@@@std@@@std@@@std@@QAEAAV01@XZ 100f73f0 f i SequenceProxy.obj
 0002:00048420       ??E?$_List_unchecked_const_iterator@V?$_List_val@U?$_List_simple_types@U?$pair@$$CBV?$basic_string@DU?$char_traits@D@std@@V?$allocator@D@2@@std@@P6AHH@Z@std@@@std@@@std@@U_Iterator_base0@2@@std@@QAEAAV01@XZ 100f7420 f i SequenceProxy.obj
 0002:00048450       ??E?$_List_unchecked_iterator@V?$_List_val@U?$_List_simple_types@U?$pair@$$CBV?$basic_string@DU?$char_traits@D@std@@V?$allocator@D@2@@std@@P6AHH@Z@std@@@std@@@std@@@std@@QAEAAV01@XZ 100f7450 f i SequenceProxy.obj
 0002:00048480       ??F?$_List_unchecked_const_iterator@V?$_List_val@U?$_List_simple_types@U?$pair@$$CBV?$basic_string@DU?$char_traits@D@std@@V?$allocator@D@2@@std@@P6AHH@Z@std@@@std@@@std@@U_Iterator_base0@2@@std@@QAEAAV01@XZ 100f7480 f i SequenceProxy.obj
 0002:000484b0       ??F?$_List_unchecked_iterator@V?$_List_val@U?$_List_simple_types@U?$pair@$$CBV?$basic_string@DU?$char_traits@D@std@@V?$allocator@D@2@@std@@P6AHH@Z@std@@@std@@@std@@@std@@QAEAAV01@XZ 100f74b0 f i SequenceProxy.obj
 0002:00048750       ??R?$_Uhash_compare@V?$basic_string@DU?$char_traits@D@std@@V?$allocator@D@2@@std@@U?$hash@V?$basic_string@DU?$char_traits@D@std@@V?$allocator@D@2@@std@@@2@U?$equal_to@V?$basic_string@DU?$char_traits@D@std@@V?$allocator@D@2@@std@@@2@@std@@QBEIABV?$basic_string@DU?$char_traits@D@std@@V?$allocator@D@2@@1@@Z 100f7750 f i SequenceProxy.obj
 0002:00048790       ??R?$_Uhash_compare@V?$basic_string@DU?$char_traits@D@std@@V?$allocator@D@2@@std@@U?$hash@V?$basic_string@DU?$char_traits@D@std@@V?$allocator@D@2@@std@@@2@U?$equal_to@V?$basic_string@DU?$char_traits@D@std@@V?$allocator@D@2@@std@@@2@@std@@QBE_NABV?$basic_string@DU?$char_traits@D@std@@V?$allocator@D@2@@1@0@Z 100f7790 f i SequenceProxy.obj
 0002:000487f0       ??R?$equal_to@V?$basic_string@DU?$char_traits@D@std@@V?$allocator@D@2@@std@@@std@@QBE_NABV?$basic_string@DU?$char_traits@D@std@@V?$allocator@D@2@@1@0@Z 100f77f0 f i SequenceProxy.obj
 0002:00048820       ??R?$hash@V?$basic_string@DU?$char_traits@D@std@@V?$allocator@D@2@@std@@@std@@QBEIABV?$basic_string@DU?$char_traits@D@std@@V?$allocator@D@2@@1@@Z 100f7820 f i SequenceProxy.obj
 0002:00048860       ??_G?$pair@$$CBV?$basic_string@DU?$char_traits@D@std@@V?$allocator@D@2@@std@@P6AHH@Z@std@@QAEPAXI@Z 100f7860 f i SequenceProxy.obj
 0002:000488b0       ?RandomSequence@@YAHHH@Z   100f78b0 f i SequenceProxy.obj
 0002:000488e0       ?_Begin@?$_Hash@V?$_Umap_traits@V?$basic_string@DU?$char_traits@D@std@@V?$allocator@D@2@@std@@P6AHH@ZV?$_Uhash_compare@V?$basic_string@DU?$char_traits@D@std@@V?$allocator@D@2@@std@@U?$hash@V?$basic_string@DU?$char_traits@D@std@@V?$allocator@D@2@@std@@@2@U?$equal_to@V?$basic_string@DU?$char_traits@D@std@@V?$allocator@D@2@@std@@@2@@2@V?$allocator@U?$pair@$$CBV?$basic_string@DU?$char_traits@D@std@@V?$allocator@D@2@@std@@P6AHH@Z@std@@@2@$0A@@std@@@std@@IAE?AV?$_List_unchecked_iterator@V?$_List_val@U?$_List_simple_types@U?$pair@$$CBV?$basic_string@DU?$char_traits@D@std@@V?$allocator@D@2@@std@@P6AHH@Z@std@@@std@@@std@@@2@I@Z 100f78e0 f i SequenceProxy.obj
 0002:00048920       ?_Buy@?$vector@V?$_List_unchecked_iterator@V?$_List_val@U?$_List_simple_types@U?$pair@$$CBV?$basic_string@DU?$char_traits@D@std@@V?$allocator@D@2@@std@@P6AHH@Z@std@@@std@@@std@@@std@@V?$allocator@V?$_List_unchecked_iterator@V?$_List_val@U?$_List_simple_types@U?$pair@$$CBV?$basic_string@DU?$char_traits@D@std@@V?$allocator@D@2@@std@@P6AHH@Z@std@@@std@@@std@@@std@@@2@@std@@AAE_NI@Z 100f7920 f i SequenceProxy.obj
 0002:00048a00       ?_Buyheadnode@?$_List_alloc@U?$_List_base_types@U?$pair@$$CBV?$basic_string@DU?$char_traits@D@std@@V?$allocator@D@2@@std@@P6AHH@Z@std@@V?$allocator@U?$pair@$$CBV?$basic_string@DU?$char_traits@D@std@@V?$allocator@D@2@@std@@P6AHH@Z@std@@@2@@std@@@std@@QAEPAU?$_List_node@U?$pair@$$CBV?$basic_string@DU?$char_traits@D@std@@V?$allocator@D@2@@std@@P6AHH@Z@std@@PAX@2@XZ 100f7a00 f i SequenceProxy.obj
 0002:00048a30       ?_Buynode0@?$_List_alloc@U?$_List_base_types@U?$pair@$$CBV?$basic_string@DU?$char_traits@D@std@@V?$allocator@D@2@@std@@P6AHH@Z@std@@V?$allocator@U?$pair@$$CBV?$basic_string@DU?$char_traits@D@std@@V?$allocator@D@2@@std@@P6AHH@Z@std@@@2@@std@@@std@@QAEPAU?$_List_node@U?$pair@$$CBV?$basic_string@DU?$char_traits@D@std@@V?$allocator@D@2@@std@@P6AHH@Z@std@@PAX@2@PAU32@0@Z 100f7a30 f i SequenceProxy.obj
 0002:00048b60       ?_Calculate_growth@?$vector@V?$_List_unchecked_iterator@V?$_List_val@U?$_List_simple_types@U?$pair@$$CBV?$basic_string@DU?$char_traits@D@std@@V?$allocator@D@2@@std@@P6AHH@Z@std@@@std@@@std@@@std@@V?$allocator@V?$_List_unchecked_iterator@V?$_List_val@U?$_List_simple_types@U?$pair@$$CBV?$basic_string@DU?$char_traits@D@std@@V?$allocator@D@2@@std@@P6AHH@Z@std@@@std@@@std@@@std@@@2@@std@@ABEII@Z 100f7b60 f i SequenceProxy.obj
 0002:00048bd0       ?_Change_array@?$vector@V?$_List_unchecked_iterator@V?$_List_val@U?$_List_simple_types@U?$pair@$$CBV?$basic_string@DU?$char_traits@D@std@@V?$allocator@D@2@@std@@P6AHH@Z@std@@@std@@@std@@@std@@V?$allocator@V?$_List_unchecked_iterator@V?$_List_val@U?$_List_simple_types@U?$pair@$$CBV?$basic_string@DU?$char_traits@D@std@@V?$allocator@D@2@@std@@P6AHH@Z@std@@@std@@@std@@@std@@@2@@std@@AAEXQAV?$_List_unchecked_iterator@V?$_List_val@U?$_List_simple_types@U?$pair@$$CBV?$basic_string@DU?$char_traits@D@std@@V?$allocator@D@2@@std@@P6AHH@Z@std@@@std@@@std@@@2@II@Z 100f7bd0 f i SequenceProxy.obj
 0002:00048ca0       ?_Check_size@?$_Hash@V?$_Umap_traits@V?$basic_string@DU?$char_traits@D@std@@V?$allocator@D@2@@std@@P6AHH@ZV?$_Uhash_compare@V?$basic_string@DU?$char_traits@D@std@@V?$allocator@D@2@@std@@U?$hash@V?$basic_string@DU?$char_traits@D@std@@V?$allocator@D@2@@std@@@2@U?$equal_to@V?$basic_string@DU?$char_traits@D@std@@V?$allocator@D@2@@std@@@2@@2@V?$allocator@U?$pair@$$CBV?$basic_string@DU?$char_traits@D@std@@V?$allocator@D@2@@std@@P6AHH@Z@std@@@2@$0A@@std@@@std@@IAEXXZ 100f7ca0 f i SequenceProxy.obj
 0002:00048d60       ?_Destroy@?$vector@V?$_List_unchecked_iterator@V?$_List_val@U?$_List_simple_types@U?$pair@$$CBV?$basic_string@DU?$char_traits@D@std@@V?$allocator@D@2@@std@@P6AHH@Z@std@@@std@@@std@@@std@@V?$allocator@V?$_List_unchecked_iterator@V?$_List_val@U?$_List_simple_types@U?$pair@$$CBV?$basic_string@DU?$char_traits@D@std@@V?$allocator@D@2@@std@@P6AHH@Z@std@@@std@@@std@@@std@@@2@@std@@AAEXPAV?$_List_unchecked_iterator@V?$_List_val@U?$_List_simple_types@U?$pair@$$CBV?$basic_string@DU?$char_traits@D@std@@V?$allocator@D@2@@std@@P6AHH@Z@std@@@std@@@std@@@2@0@Z 100f7d60 f i SequenceProxy.obj
 0002:00048da0       ?_Destroy_if_node@?$_Hash@V?$_Umap_traits@V?$basic_string@DU?$char_traits@D@std@@V?$allocator@D@2@@std@@P6AHH@ZV?$_Uhash_compare@V?$basic_string@DU?$char_traits@D@std@@V?$allocator@D@2@@std@@U?$hash@V?$basic_string@DU?$char_traits@D@std@@V?$allocator@D@2@@std@@@2@U?$equal_to@V?$basic_string@DU?$char_traits@D@std@@V?$allocator@D@2@@std@@@2@@2@V?$allocator@U?$pair@$$CBV?$basic_string@DU?$char_traits@D@std@@V?$allocator@D@2@@std@@P6AHH@Z@std@@@2@$0A@@std@@@std@@IAEXV?$_List_unchecked_iterator@V?$_List_val@U?$_List_simple_types@U?$pair@$$CBV?$basic_string@DU?$char_traits@D@std@@V?$allocator@D@2@@std@@P6AHH@Z@std@@@std@@@std@@@2@@Z 100f7da0 f i SequenceProxy.obj
 0002:00048e00       ?_End@?$_Hash@V?$_Umap_traits@V?$basic_string@DU?$char_traits@D@std@@V?$allocator@D@2@@std@@P6AHH@ZV?$_Uhash_compare@V?$basic_string@DU?$char_traits@D@std@@V?$allocator@D@2@@std@@U?$hash@V?$basic_string@DU?$char_traits@D@std@@V?$allocator@D@2@@std@@@2@U?$equal_to@V?$basic_string@DU?$char_traits@D@std@@V?$allocator@D@2@@std@@@2@@2@V?$allocator@U?$pair@$$CBV?$basic_string@DU?$char_traits@D@std@@V?$allocator@D@2@@std@@P6AHH@Z@std@@@2@$0A@@std@@@std@@IAE?AV?$_List_unchecked_iterator@V?$_List_val@U?$_List_simple_types@U?$pair@$$CBV?$basic_string@DU?$char_traits@D@std@@V?$allocator@D@2@@std@@P6AHH@Z@std@@@std@@@std@@@2@I@Z 100f7e00 f i SequenceProxy.obj
 0002:00048ec0       ?_Erase_bucket@?$_Hash@V?$_Umap_traits@V?$basic_string@DU?$char_traits@D@std@@V?$allocator@D@2@@std@@P6AHH@ZV?$_Uhash_compare@V?$basic_string@DU?$char_traits@D@std@@V?$allocator@D@2@@std@@U?$hash@V?$basic_string@DU?$char_traits@D@std@@V?$allocator@D@2@@std@@@2@U?$equal_to@V?$basic_string@DU?$char_traits@D@std@@V?$allocator@D@2@@std@@@2@@2@V?$allocator@U?$pair@$$CBV?$basic_string@DU?$char_traits@D@std@@V?$allocator@D@2@@std@@P6AHH@Z@std@@@2@$0A@@std@@@std@@IAEXV?$_List_iterator@V?$_List_val@U?$_List_simple_types@U?$pair@$$CBV?$basic_string@DU?$char_traits@D@std@@V?$allocator@D@2@@std@@P6AHH@Z@std@@@std@@@std@@@2@I@Z 100f7ec0 f i SequenceProxy.obj
 0002:00049010       ?_Freeheadnode@?$_List_alloc@U?$_List_base_types@U?$pair@$$CBV?$basic_string@DU?$char_traits@D@std@@V?$allocator@D@2@@std@@P6AHH@Z@std@@V?$allocator@U?$pair@$$CBV?$basic_string@DU?$char_traits@D@std@@V?$allocator@D@2@@std@@P6AHH@Z@std@@@2@@std@@@std@@QAEXPAU?$_List_node@U?$pair@$$CBV?$basic_string@DU?$char_traits@D@std@@V?$allocator@D@2@@std@@P6AHH@Z@std@@PAX@2@@Z 100f8010 f i SequenceProxy.obj
 0002:00049050       ?_Freenode@?$_List_buy@U?$pair@$$CBV?$basic_string@DU?$char_traits@D@std@@V?$allocator@D@2@@std@@P6AHH@Z@std@@V?$allocator@U?$pair@$$CBV?$basic_string@DU?$char_traits@D@std@@V?$allocator@D@2@@std@@P6AHH@Z@std@@@2@@std@@QAEXPAU?$_List_node@U?$pair@$$CBV?$basic_string@DU?$char_traits@D@std@@V?$allocator@D@2@@std@@P6AHH@Z@std@@PAX@2@@Z 100f8050 f i SequenceProxy.obj
 0002:000490b0       ?_Get_data@?$_List_alloc@U?$_List_base_types@U?$pair@$$CBV?$basic_string@DU?$char_traits@D@std@@V?$allocator@D@2@@std@@P6AHH@Z@std@@V?$allocator@U?$pair@$$CBV?$basic_string@DU?$char_traits@D@std@@V?$allocator@D@2@@std@@P6AHH@Z@std@@@2@@std@@@std@@QAEAAV?$_List_val@U?$_List_simple_types@U?$pair@$$CBV?$basic_string@DU?$char_traits@D@std@@V?$allocator@D@2@@std@@P6AHH@Z@std@@@std@@@2@XZ 100f80b0 f i SequenceProxy.obj
 0002:000490e0       ?_Get_data@?$_List_alloc@U?$_List_base_types@U?$pair@$$CBV?$basic_string@DU?$char_traits@D@std@@V?$allocator@D@2@@std@@P6AHH@Z@std@@V?$allocator@U?$pair@$$CBV?$basic_string@DU?$char_traits@D@std@@V?$allocator@D@2@@std@@P6AHH@Z@std@@@2@@std@@@std@@QBEABV?$_List_val@U?$_List_simple_types@U?$pair@$$CBV?$basic_string@DU?$char_traits@D@std@@V?$allocator@D@2@@std@@P6AHH@Z@std@@@std@@@2@XZ 100f80e0 f i SequenceProxy.obj
 0002:00049110       ?_Get_data@?$_Vector_alloc@U?$_Vec_base_types@V?$_List_unchecked_iterator@V?$_List_val@U?$_List_simple_types@U?$pair@$$CBV?$basic_string@DU?$char_traits@D@std@@V?$allocator@D@2@@std@@P6AHH@Z@std@@@std@@@std@@@std@@V?$allocator@V?$_List_unchecked_iterator@V?$_List_val@U?$_List_simple_types@U?$pair@$$CBV?$basic_string@DU?$char_traits@D@std@@V?$allocator@D@2@@std@@P6AHH@Z@std@@@std@@@std@@@std@@@2@@std@@@std@@QAEAAV?$_Vector_val@U?$_Simple_types@V?$_List_unchecked_iterator@V?$_List_val@U?$_List_simple_types@U?$pair@$$CBV?$basic_string@DU?$char_traits@D@std@@V?$allocator@D@2@@std@@P6AHH@Z@std@@@std@@@std@@@std@@@std@@@2@XZ 100f8110 f i SequenceProxy.obj
 0002:00049140       ?_Get_data@?$_Vector_alloc@U?$_Vec_base_types@V?$_List_unchecked_iterator@V?$_List_val@U?$_List_simple_types@U?$pair@$$CBV?$basic_string@DU?$char_traits@D@std@@V?$allocator@D@2@@std@@P6AHH@Z@std@@@std@@@std@@@std@@V?$allocator@V?$_List_unchecked_iterator@V?$_List_val@U?$_List_simple_types@U?$pair@$$CBV?$basic_string@DU?$char_traits@D@std@@V?$allocator@D@2@@std@@P6AHH@Z@std@@@std@@@std@@@std@@@2@@std@@@std@@QBEABV?$_Vector_val@U?$_Simple_types@V?$_List_unchecked_iterator@V?$_List_val@U?$_List_simple_types@U?$pair@$$CBV?$basic_string@DU?$char_traits@D@std@@V?$allocator@D@2@@std@@P6AHH@Z@std@@@std@@@std@@@std@@@std@@@2@XZ 100f8140 f i SequenceProxy.obj
 0002:00049170       ?_Get_first@?$_Compressed_pair@U?$equal_to@V?$basic_string@DU?$char_traits@D@std@@V?$allocator@D@2@@std@@@std@@M$00@std@@QBEABU?$equal_to@V?$basic_string@DU?$char_traits@D@std@@V?$allocator@D@2@@std@@@2@XZ 100f8170 f i SequenceProxy.obj
 0002:00049190       ?_Get_first@?$_Compressed_pair@U?$hash@V?$basic_string@DU?$char_traits@D@std@@V?$allocator@D@2@@std@@@std@@V?$_Compressed_pair@U?$equal_to@V?$basic_string@DU?$char_traits@D@std@@V?$allocator@D@2@@std@@@std@@M$00@2@$00@std@@QBEABU?$hash@V?$basic_string@DU?$char_traits@D@std@@V?$allocator@D@2@@std@@@2@XZ 100f8190 f i SequenceProxy.obj
 0002:000491b0       ?_Get_first@?$_Compressed_pair@V?$allocator@U?$_List_node@U?$pair@$$CBV?$basic_string@DU?$char_traits@D@std@@V?$allocator@D@2@@std@@P6AHH@Z@std@@PAX@std@@@std@@V?$_List_val@U?$_List_simple_types@U?$pair@$$CBV?$basic_string@DU?$char_traits@D@std@@V?$allocator@D@2@@std@@P6AHH@Z@std@@@std@@@2@$00@std@@QAEAAV?$allocator@U?$_List_node@U?$pair@$$CBV?$basic_string@DU?$char_traits@D@std@@V?$allocator@D@2@@std@@P6AHH@Z@std@@PAX@std@@@2@XZ 100f81b0 f i SequenceProxy.obj
 0002:000491d0       ?_Get_first@?$_Compressed_pair@V?$allocator@U?$_List_node@U?$pair@$$CBV?$basic_string@DU?$char_traits@D@std@@V?$allocator@D@2@@std@@P6AHH@Z@std@@PAX@std@@@std@@V?$_List_val@U?$_List_simple_types@U?$pair@$$CBV?$basic_string@DU?$char_traits@D@std@@V?$allocator@D@2@@std@@P6AHH@Z@std@@@std@@@2@$00@std@@QBEABV?$allocator@U?$_List_node@U?$pair@$$CBV?$basic_string@DU?$char_traits@D@std@@V?$allocator@D@2@@std@@P6AHH@Z@std@@PAX@std@@@2@XZ 100f81d0 f i SequenceProxy.obj
 0002:000491f0       ?_Get_first@?$_Compressed_pair@V?$allocator@V?$_List_unchecked_iterator@V?$_List_val@U?$_List_simple_types@U?$pair@$$CBV?$basic_string@DU?$char_traits@D@std@@V?$allocator@D@2@@std@@P6AHH@Z@std@@@std@@@std@@@std@@@std@@V?$_Vector_val@U?$_Simple_types@V?$_List_unchecked_iterator@V?$_List_val@U?$_List_simple_types@U?$pair@$$CBV?$basic_string@DU?$char_traits@D@std@@V?$allocator@D@2@@std@@P6AHH@Z@std@@@std@@@std@@@std@@@std@@@2@$00@std@@QAEAAV?$allocator@V?$_List_unchecked_iterator@V?$_List_val@U?$_List_simple_types@U?$pair@$$CBV?$basic_string@DU?$char_traits@D@std@@V?$allocator@D@2@@std@@P6AHH@Z@std@@@std@@@std@@@std@@@2@XZ 100f81f0 f i SequenceProxy.obj
 0002:00049210       ?_Get_first@?$_Compressed_pair@V?$allocator@V?$_List_unchecked_iterator@V?$_List_val@U?$_List_simple_types@U?$pair@$$CBV?$basic_string@DU?$char_traits@D@std@@V?$allocator@D@2@@std@@P6AHH@Z@std@@@std@@@std@@@std@@@std@@V?$_Vector_val@U?$_Simple_types@V?$_List_unchecked_iterator@V?$_List_val@U?$_List_simple_types@U?$pair@$$CBV?$basic_string@DU?$char_traits@D@std@@V?$allocator@D@2@@std@@P6AHH@Z@std@@@std@@@std@@@std@@@std@@@2@$00@std@@QBEABV?$allocator@V?$_List_unchecked_iterator@V?$_List_val@U?$_List_simple_types@U?$pair@$$CBV?$basic_string@DU?$char_traits@D@std@@V?$allocator@D@2@@std@@P6AHH@Z@std@@@std@@@std@@@std@@@2@XZ 100f8210 f i SequenceProxy.obj
 0002:00049230       ?_Get_max_bucket_size@?$_Uhash_compare@V?$basic_string@DU?$char_traits@D@std@@V?$allocator@D@2@@std@@U?$hash@V?$basic_string@DU?$char_traits@D@std@@V?$allocator@D@2@@std@@@2@U?$equal_to@V?$basic_string@DU?$char_traits@D@std@@V?$allocator@D@2@@std@@@2@@std@@QAEAAMXZ 100f8230 f i SequenceProxy.obj
 0002:00049260       ?_Get_max_bucket_size@?$_Uhash_compare@V?$basic_string@DU?$char_traits@D@std@@V?$allocator@D@2@@std@@U?$hash@V?$basic_string@DU?$char_traits@D@std@@V?$allocator@D@2@@std@@@2@U?$equal_to@V?$basic_string@DU?$char_traits@D@std@@V?$allocator@D@2@@std@@@2@@std@@QBEABMXZ 100f8260 f i SequenceProxy.obj
 0002:00049290       ?_Get_second@?$_Compressed_pair@U?$equal_to@V?$basic_string@DU?$char_traits@D@std@@V?$allocator@D@2@@std@@@std@@M$00@std@@QAEAAMXZ 100f8290 f i SequenceProxy.obj
 0002:000492b0       ?_Get_second@?$_Compressed_pair@U?$equal_to@V?$basic_string@DU?$char_traits@D@std@@V?$allocator@D@2@@std@@@std@@M$00@std@@QBEABMXZ 100f82b0 f i SequenceProxy.obj
 0002:000492d0       ?_Get_second@?$_Compressed_pair@U?$hash@V?$basic_string@DU?$char_traits@D@std@@V?$allocator@D@2@@std@@@std@@V?$_Compressed_pair@U?$equal_to@V?$basic_string@DU?$char_traits@D@std@@V?$allocator@D@2@@std@@@std@@M$00@2@$00@std@@QAEAAV?$_Compressed_pair@U?$equal_to@V?$basic_string@DU?$char_traits@D@std@@V?$allocator@D@2@@std@@@std@@M$00@2@XZ 100f82d0 f i SequenceProxy.obj
 0002:000492f0       ?_Get_second@?$_Compressed_pair@U?$hash@V?$basic_string@DU?$char_traits@D@std@@V?$allocator@D@2@@std@@@std@@V?$_Compressed_pair@U?$equal_to@V?$basic_string@DU?$char_traits@D@std@@V?$allocator@D@2@@std@@@std@@M$00@2@$00@std@@QBEABV?$_Compressed_pair@U?$equal_to@V?$basic_string@DU?$char_traits@D@std@@V?$allocator@D@2@@std@@@std@@M$00@2@XZ 100f82f0 f i SequenceProxy.obj
 0002:00049310       ?_Get_second@?$_Compressed_pair@V?$allocator@U?$_List_node@U?$pair@$$CBV?$basic_string@DU?$char_traits@D@std@@V?$allocator@D@2@@std@@P6AHH@Z@std@@PAX@std@@@std@@V?$_List_val@U?$_List_simple_types@U?$pair@$$CBV?$basic_string@DU?$char_traits@D@std@@V?$allocator@D@2@@std@@P6AHH@Z@std@@@std@@@2@$00@std@@QAEAAV?$_List_val@U?$_List_simple_types@U?$pair@$$CBV?$basic_string@DU?$char_traits@D@std@@V?$allocator@D@2@@std@@P6AHH@Z@std@@@std@@@2@XZ 100f8310 f i SequenceProxy.obj
 0002:00049330       ?_Get_second@?$_Compressed_pair@V?$allocator@U?$_List_node@U?$pair@$$CBV?$basic_string@DU?$char_traits@D@std@@V?$allocator@D@2@@std@@P6AHH@Z@std@@PAX@std@@@std@@V?$_List_val@U?$_List_simple_types@U?$pair@$$CBV?$basic_string@DU?$char_traits@D@std@@V?$allocator@D@2@@std@@P6AHH@Z@std@@@std@@@2@$00@std@@QBEABV?$_List_val@U?$_List_simple_types@U?$pair@$$CBV?$basic_string@DU?$char_traits@D@std@@V?$allocator@D@2@@std@@P6AHH@Z@std@@@std@@@2@XZ 100f8330 f i SequenceProxy.obj
 0002:00049350       ?_Get_second@?$_Compressed_pair@V?$allocator@V?$_List_unchecked_iterator@V?$_List_val@U?$_List_simple_types@U?$pair@$$CBV?$basic_string@DU?$char_traits@D@std@@V?$allocator@D@2@@std@@P6AHH@Z@std@@@std@@@std@@@std@@@std@@V?$_Vector_val@U?$_Simple_types@V?$_List_unchecked_iterator@V?$_List_val@U?$_List_simple_types@U?$pair@$$CBV?$basic_string@DU?$char_traits@D@std@@V?$allocator@D@2@@std@@P6AHH@Z@std@@@std@@@std@@@std@@@std@@@2@$00@std@@QAEAAV?$_Vector_val@U?$_Simple_types@V?$_List_unchecked_iterator@V?$_List_val@U?$_List_simple_types@U?$pair@$$CBV?$basic_string@DU?$char_traits@D@std@@V?$allocator@D@2@@std@@P6AHH@Z@std@@@std@@@std@@@std@@@std@@@2@XZ 100f8350 f i SequenceProxy.obj
 0002:00049370       ?_Get_second@?$_Compressed_pair@V?$allocator@V?$_List_unchecked_iterator@V?$_List_val@U?$_List_simple_types@U?$pair@$$CBV?$basic_string@DU?$char_traits@D@std@@V?$allocator@D@2@@std@@P6AHH@Z@std@@@std@@@std@@@std@@@std@@V?$_Vector_val@U?$_Simple_types@V?$_List_unchecked_iterator@V?$_List_val@U?$_List_simple_types@U?$pair@$$CBV?$basic_string@DU?$char_traits@D@std@@V?$allocator@D@2@@std@@P6AHH@Z@std@@@std@@@std@@@std@@@std@@@2@$00@std@@QBEABV?$_Vector_val@U?$_Simple_types@V?$_List_unchecked_iterator@V?$_List_val@U?$_List_simple_types@U?$pair@$$CBV?$basic_string@DU?$char_traits@D@std@@V?$allocator@D@2@@std@@P6AHH@Z@std@@@std@@@std@@@std@@@std@@@2@XZ 100f8370 f i SequenceProxy.obj
 0002:00049390       ?_Getal@?$_List_alloc@U?$_List_base_types@U?$pair@$$CBV?$basic_string@DU?$char_traits@D@std@@V?$allocator@D@2@@std@@P6AHH@Z@std@@V?$allocator@U?$pair@$$CBV?$basic_string@DU?$char_traits@D@std@@V?$allocator@D@2@@std@@P6AHH@Z@std@@@2@@std@@@std@@QAEAAV?$allocator@U?$_List_node@U?$pair@$$CBV?$basic_string@DU?$char_traits@D@std@@V?$allocator@D@2@@std@@P6AHH@Z@std@@PAX@std@@@2@XZ 100f8390 f i SequenceProxy.obj
 0002:000493c0       ?_Getal@?$_List_alloc@U?$_List_base_types@U?$pair@$$CBV?$basic_string@DU?$char_traits@D@std@@V?$allocator@D@2@@std@@P6AHH@Z@std@@V?$allocator@U?$pair@$$CBV?$basic_string@DU?$char_traits@D@std@@V?$allocator@D@2@@std@@P6AHH@Z@std@@@2@@std@@@std@@QBEABV?$allocator@U?$_List_node@U?$pair@$$CBV?$basic_string@DU?$char_traits@D@std@@V?$allocator@D@2@@std@@P6AHH@Z@std@@PAX@std@@@2@XZ 100f83c0 f i SequenceProxy.obj
 0002:000493f0       ?_Getal@?$_Vector_alloc@U?$_Vec_base_types@V?$_List_unchecked_iterator@V?$_List_val@U?$_List_simple_types@U?$pair@$$CBV?$basic_string@DU?$char_traits@D@std@@V?$allocator@D@2@@std@@P6AHH@Z@std@@@std@@@std@@@std@@V?$allocator@V?$_List_unchecked_iterator@V?$_List_val@U?$_List_simple_types@U?$pair@$$CBV?$basic_string@DU?$char_traits@D@std@@V?$allocator@D@2@@std@@P6AHH@Z@std@@@std@@@std@@@std@@@2@@std@@@std@@QAEAAV?$allocator@V?$_List_unchecked_iterator@V?$_List_val@U?$_List_simple_types@U?$pair@$$CBV?$basic_string@DU?$char_traits@D@std@@V?$allocator@D@2@@std@@P6AHH@Z@std@@@std@@@std@@@std@@@2@XZ 100f83f0 f i SequenceProxy.obj
 0002:00049420       ?_Getal@?$_Vector_alloc@U?$_Vec_base_types@V?$_List_unchecked_iterator@V?$_List_val@U?$_List_simple_types@U?$pair@$$CBV?$basic_string@DU?$char_traits@D@std@@V?$allocator@D@2@@std@@P6AHH@Z@std@@@std@@@std@@@std@@V?$allocator@V?$_List_unchecked_iterator@V?$_List_val@U?$_List_simple_types@U?$pair@$$CBV?$basic_string@DU?$char_traits@D@std@@V?$allocator@D@2@@std@@P6AHH@Z@std@@@std@@@std@@@std@@@2@@std@@@std@@QBEABV?$allocator@V?$_List_unchecked_iterator@V?$_List_val@U?$_List_simple_types@U?$pair@$$CBV?$basic_string@DU?$char_traits@D@std@@V?$allocator@D@2@@std@@P6AHH@Z@std@@@std@@@std@@@std@@@2@XZ 100f8420 f i SequenceProxy.obj
 0002:00049450       ?_Getcont@_Iterator_base0@std@@QBEPBU_Container_base0@2@XZ 100f8450 f i SequenceProxy.obj
 0002:00049470       ?_Gethash@?$_Uhash_compare@V?$basic_string@DU?$char_traits@D@std@@V?$allocator@D@2@@std@@U?$hash@V?$basic_string@DU?$char_traits@D@std@@V?$allocator@D@2@@std@@@2@U?$equal_to@V?$basic_string@DU?$char_traits@D@std@@V?$allocator@D@2@@std@@@2@@std@@QBEABU?$hash@V?$basic_string@DU?$char_traits@D@std@@V?$allocator@D@2@@std@@@2@XZ 100f8470 f i SequenceProxy.obj
 0002:000494a0       ?_Getkeyeq@?$_Uhash_compare@V?$basic_string@DU?$char_traits@D@std@@V?$allocator@D@2@@std@@U?$hash@V?$basic_string@DU?$char_traits@D@std@@V?$allocator@D@2@@std@@@2@U?$equal_to@V?$basic_string@DU?$char_traits@D@std@@V?$allocator@D@2@@std@@@2@@std@@QBEABU?$equal_to@V?$basic_string@DU?$char_traits@D@std@@V?$allocator@D@2@@std@@@2@XZ 100f84a0 f i SequenceProxy.obj
 0002:000494d0       ?_Hash_bytes@std@@YAIPBEI@Z 100f84d0 f i SequenceProxy.obj
 0002:00049550       ?_Hashval@?$_Hash@V?$_Umap_traits@V?$basic_string@DU?$char_traits@D@std@@V?$allocator@D@2@@std@@P6AHH@ZV?$_Uhash_compare@V?$basic_string@DU?$char_traits@D@std@@V?$allocator@D@2@@std@@U?$hash@V?$basic_string@DU?$char_traits@D@std@@V?$allocator@D@2@@std@@@2@U?$equal_to@V?$basic_string@DU?$char_traits@D@std@@V?$allocator@D@2@@std@@@2@@2@V?$allocator@U?$pair@$$CBV?$basic_string@DU?$char_traits@D@std@@V?$allocator@D@2@@std@@P6AHH@Z@std@@@2@$0A@@std@@@std@@IBEIABV?$basic_string@DU?$char_traits@D@std@@V?$allocator@D@2@@2@@Z 100f8550 f i SequenceProxy.obj
 0002:00049580       ?_Incsize@?$list@U?$pair@$$CBV?$basic_string@DU?$char_traits@D@std@@V?$allocator@D@2@@std@@P6AHH@Z@std@@V?$allocator@U?$pair@$$CBV?$basic_string@DU?$char_traits@D@std@@V?$allocator@D@2@@std@@P6AHH@Z@std@@@2@@std@@QAEXI@Z 100f8580 f i SequenceProxy.obj
 0002:000495f0       ?_Init@?$_Hash@V?$_Umap_traits@V?$basic_string@DU?$char_traits@D@std@@V?$allocator@D@2@@std@@P6AHH@ZV?$_Uhash_compare@V?$basic_string@DU?$char_traits@D@std@@V?$allocator@D@2@@std@@U?$hash@V?$basic_string@DU?$char_traits@D@std@@V?$allocator@D@2@@std@@@2@U?$equal_to@V?$basic_string@DU?$char_traits@D@std@@V?$allocator@D@2@@std@@@2@@2@V?$allocator@U?$pair@$$CBV?$basic_string@DU?$char_traits@D@std@@V?$allocator@D@2@@std@@P6AHH@Z@std@@@2@$0A@@std@@@std@@IAEXI@Z 100f85f0 f i SequenceProxy.obj
 0002:00049660       ?_Insert_bucket@?$_Hash@V?$_Umap_traits@V?$basic_string@DU?$char_traits@D@std@@V?$allocator@D@2@@std@@P6AHH@ZV?$_Uhash_compare@V?$basic_string@DU?$char_traits@D@std@@V?$allocator@D@2@@std@@U?$hash@V?$basic_string@DU?$char_traits@D@std@@V?$allocator@D@2@@std@@@2@U?$equal_to@V?$basic_string@DU?$char_traits@D@std@@V?$allocator@D@2@@std@@@2@@2@V?$allocator@U?$pair@$$CBV?$basic_string@DU?$char_traits@D@std@@V?$allocator@D@2@@std@@P6AHH@Z@std@@@2@$0A@@std@@@std@@IAEXV?$_List_unchecked_iterator@V?$_List_val@U?$_List_simple_types@U?$pair@$$CBV?$basic_string@DU?$char_traits@D@std@@V?$allocator@D@2@@std@@P6AHH@Z@std@@@std@@@std@@@2@0I@Z 100f8660 f i SequenceProxy.obj
 0002:00049760       ?_Make_iter@?$_Hash@V?$_Umap_traits@V?$basic_string@DU?$char_traits@D@std@@V?$allocator@D@2@@std@@P6AHH@ZV?$_Uhash_compare@V?$basic_string@DU?$char_traits@D@std@@V?$allocator@D@2@@std@@U?$hash@V?$basic_string@DU?$char_traits@D@std@@V?$allocator@D@2@@std@@@2@U?$equal_to@V?$basic_string@DU?$char_traits@D@std@@V?$allocator@D@2@@std@@@2@@2@V?$allocator@U?$pair@$$CBV?$basic_string@DU?$char_traits@D@std@@V?$allocator@D@2@@std@@P6AHH@Z@std@@@2@$0A@@std@@@std@@QBE?AV?$_List_iterator@V?$_List_val@U?$_List_simple_types@U?$pair@$$CBV?$basic_string@DU?$char_traits@D@std@@V?$allocator@D@2@@std@@P6AHH@Z@std@@@std@@@std@@@2@V?$_List_const_iterator@V?$_List_val@U?$_List_simple_types@U?$pair@$$CBV?$basic_string@DU?$char_traits@D@std@@V?$allocator@D@2@@std@@P6AHH@Z@std@@@std@@@std@@@2@@Z 100f8760 f i SequenceProxy.obj
 0002:000497a0       ?_Make_iter@?$_Hash@V?$_Umap_traits@V?$basic_string@DU?$char_traits@D@std@@V?$allocator@D@2@@std@@P6AHH@ZV?$_Uhash_compare@V?$basic_string@DU?$char_traits@D@std@@V?$allocator@D@2@@std@@U?$hash@V?$basic_string@DU?$char_traits@D@std@@V?$allocator@D@2@@std@@@2@U?$equal_to@V?$basic_string@DU?$char_traits@D@std@@V?$allocator@D@2@@std@@@2@@2@V?$allocator@U?$pair@$$CBV?$basic_string@DU?$char_traits@D@std@@V?$allocator@D@2@@std@@P6AHH@Z@std@@@2@$0A@@std@@@std@@QBE?AV?$_List_iterator@V?$_List_val@U?$_List_simple_types@U?$pair@$$CBV?$basic_string@DU?$char_traits@D@std@@V?$allocator@D@2@@std@@P6AHH@Z@std@@@std@@@std@@@2@V?$_List_unchecked_const_iterator@V?$_List_val@U?$_List_simple_types@U?$pair@$$CBV?$basic_string@DU?$char_traits@D@std@@V?$allocator@D@2@@std@@P6AHH@Z@std@@@std@@@std@@U_Iterator_base0@2@@2@@Z 100f87a0 f i SequenceProxy.obj
 0002:000497e0       ?_Make_iter@?$list@U?$pair@$$CBV?$basic_string@DU?$char_traits@D@std@@V?$allocator@D@2@@std@@P6AHH@Z@std@@V?$allocator@U?$pair@$$CBV?$basic_string@DU?$char_traits@D@std@@V?$allocator@D@2@@std@@P6AHH@Z@std@@@2@@std@@QBE?AV?$_List_iterator@V?$_List_val@U?$_List_simple_types@U?$pair@$$CBV?$basic_string@DU?$char_traits@D@std@@V?$allocator@D@2@@std@@P6AHH@Z@std@@@std@@@std@@@2@V?$_List_const_iterator@V?$_List_val@U?$_List_simple_types@U?$pair@$$CBV?$basic_string@DU?$char_traits@D@std@@V?$allocator@D@2@@std@@P6AHH@Z@std@@@std@@@std@@@2@@Z 100f87e0 f i SequenceProxy.obj
 0002:00049860       ?_Make_iter@?$list@U?$pair@$$CBV?$basic_string@DU?$char_traits@D@std@@V?$allocator@D@2@@std@@P6AHH@Z@std@@V?$allocator@U?$pair@$$CBV?$basic_string@DU?$char_traits@D@std@@V?$allocator@D@2@@std@@P6AHH@Z@std@@@2@@std@@QBE?AV?$_List_iterator@V?$_List_val@U?$_List_simple_types@U?$pair@$$CBV?$basic_string@DU?$char_traits@D@std@@V?$allocator@D@2@@std@@P6AHH@Z@std@@@std@@@std@@@2@V?$_List_unchecked_const_iterator@V?$_List_val@U?$_List_simple_types@U?$pair@$$CBV?$basic_string@DU?$char_traits@D@std@@V?$allocator@D@2@@std@@P6AHH@Z@std@@@std@@@std@@U_Iterator_base0@2@@2@@Z 100f8860 f i SequenceProxy.obj
 0002:000498b0       ?_Max_bucket_size@?$_Hash@V?$_Umap_traits@V?$basic_string@DU?$char_traits@D@std@@V?$allocator@D@2@@std@@P6AHH@ZV?$_Uhash_compare@V?$basic_string@DU?$char_traits@D@std@@V?$allocator@D@2@@std@@U?$hash@V?$basic_string@DU?$char_traits@D@std@@V?$allocator@D@2@@std@@@2@U?$equal_to@V?$basic_string@DU?$char_traits@D@std@@V?$allocator@D@2@@std@@@2@@2@V?$allocator@U?$pair@$$CBV?$basic_string@DU?$char_traits@D@std@@V?$allocator@D@2@@std@@P6AHH@Z@std@@@2@$0A@@std@@@std@@IAEAAMXZ 100f88b0 f i SequenceProxy.obj
 0002:000498e0       ?_Max_bucket_size@?$_Hash@V?$_Umap_traits@V?$basic_string@DU?$char_traits@D@std@@V?$allocator@D@2@@std@@P6AHH@ZV?$_Uhash_compare@V?$basic_string@DU?$char_traits@D@std@@V?$allocator@D@2@@std@@U?$hash@V?$basic_string@DU?$char_traits@D@std@@V?$allocator@D@2@@std@@@2@U?$equal_to@V?$basic_string@DU?$char_traits@D@std@@V?$allocator@D@2@@std@@@2@@2@V?$allocator@U?$pair@$$CBV?$basic_string@DU?$char_traits@D@std@@V?$allocator@D@2@@std@@P6AHH@Z@std@@@2@$0A@@std@@@std@@IBEABMXZ 100f88e0 f i SequenceProxy.obj
 0002:00049910       ?_Myend@?$_Vector_alloc@U?$_Vec_base_types@V?$_List_unchecked_iterator@V?$_List_val@U?$_List_simple_types@U?$pair@$$CBV?$basic_string@DU?$char_traits@D@std@@V?$allocator@D@2@@std@@P6AHH@Z@std@@@std@@@std@@@std@@V?$allocator@V?$_List_unchecked_iterator@V?$_List_val@U?$_List_simple_types@U?$pair@$$CBV?$basic_string@DU?$char_traits@D@std@@V?$allocator@D@2@@std@@P6AHH@Z@std@@@std@@@std@@@std@@@2@@std@@@std@@QAEAAPAV?$_List_unchecked_iterator@V?$_List_val@U?$_List_simple_types@U?$pair@$$CBV?$basic_string@DU?$char_traits@D@std@@V?$allocator@D@2@@std@@P6AHH@Z@std@@@std@@@std@@@2@XZ 100f8910 f i SequenceProxy.obj
 0002:00049940       ?_Myend@?$_Vector_alloc@U?$_Vec_base_types@V?$_List_unchecked_iterator@V?$_List_val@U?$_List_simple_types@U?$pair@$$CBV?$basic_string@DU?$char_traits@D@std@@V?$allocator@D@2@@std@@P6AHH@Z@std@@@std@@@std@@@std@@V?$allocator@V?$_List_unchecked_iterator@V?$_List_val@U?$_List_simple_types@U?$pair@$$CBV?$basic_string@DU?$char_traits@D@std@@V?$allocator@D@2@@std@@P6AHH@Z@std@@@std@@@std@@@std@@@2@@std@@@std@@QBEABQAV?$_List_unchecked_iterator@V?$_List_val@U?$_List_simple_types@U?$pair@$$CBV?$basic_string@DU?$char_traits@D@std@@V?$allocator@D@2@@std@@P6AHH@Z@std@@@std@@@std@@@2@XZ 100f8940 f i SequenceProxy.obj
 0002:00049970       ?_Myfirst@?$_Vector_alloc@U?$_Vec_base_types@V?$_List_unchecked_iterator@V?$_List_val@U?$_List_simple_types@U?$pair@$$CBV?$basic_string@DU?$char_traits@D@std@@V?$allocator@D@2@@std@@P6AHH@Z@std@@@std@@@std@@@std@@V?$allocator@V?$_List_unchecked_iterator@V?$_List_val@U?$_List_simple_types@U?$pair@$$CBV?$basic_string@DU?$char_traits@D@std@@V?$allocator@D@2@@std@@P6AHH@Z@std@@@std@@@std@@@std@@@2@@std@@@std@@QAEAAPAV?$_List_unchecked_iterator@V?$_List_val@U?$_List_simple_types@U?$pair@$$CBV?$basic_string@DU?$char_traits@D@std@@V?$allocator@D@2@@std@@P6AHH@Z@std@@@std@@@std@@@2@XZ 100f8970 f i SequenceProxy.obj
 0002:000499a0       ?_Myfirst@?$_Vector_alloc@U?$_Vec_base_types@V?$_List_unchecked_iterator@V?$_List_val@U?$_List_simple_types@U?$pair@$$CBV?$basic_string@DU?$char_traits@D@std@@V?$allocator@D@2@@std@@P6AHH@Z@std@@@std@@@std@@@std@@V?$allocator@V?$_List_unchecked_iterator@V?$_List_val@U?$_List_simple_types@U?$pair@$$CBV?$basic_string@DU?$char_traits@D@std@@V?$allocator@D@2@@std@@P6AHH@Z@std@@@std@@@std@@@std@@@2@@std@@@std@@QBEABQAV?$_List_unchecked_iterator@V?$_List_val@U?$_List_simple_types@U?$pair@$$CBV?$basic_string@DU?$char_traits@D@std@@V?$allocator@D@2@@std@@P6AHH@Z@std@@@std@@@std@@@2@XZ 100f89a0 f i SequenceProxy.obj
 0002:000499d0       ?_Myhead@?$_List_alloc@U?$_List_base_types@U?$pair@$$CBV?$basic_string@DU?$char_traits@D@std@@V?$allocator@D@2@@std@@P6AHH@Z@std@@V?$allocator@U?$pair@$$CBV?$basic_string@DU?$char_traits@D@std@@V?$allocator@D@2@@std@@P6AHH@Z@std@@@2@@std@@@std@@QAEAAPAU?$_List_node@U?$pair@$$CBV?$basic_string@DU?$char_traits@D@std@@V?$allocator@D@2@@std@@P6AHH@Z@std@@PAX@2@XZ 100f89d0 f i SequenceProxy.obj
 0002:00049a00       ?_Mylast@?$_Vector_alloc@U?$_Vec_base_types@V?$_List_unchecked_iterator@V?$_List_val@U?$_List_simple_types@U?$pair@$$CBV?$basic_string@DU?$char_traits@D@std@@V?$allocator@D@2@@std@@P6AHH@Z@std@@@std@@@std@@@std@@V?$allocator@V?$_List_unchecked_iterator@V?$_List_val@U?$_List_simple_types@U?$pair@$$CBV?$basic_string@DU?$char_traits@D@std@@V?$allocator@D@2@@std@@P6AHH@Z@std@@@std@@@std@@@std@@@2@@std@@@std@@QAEAAPAV?$_List_unchecked_iterator@V?$_List_val@U?$_List_simple_types@U?$pair@$$CBV?$basic_string@DU?$char_traits@D@std@@V?$allocator@D@2@@std@@P6AHH@Z@std@@@std@@@std@@@2@XZ 100f8a00 f i SequenceProxy.obj
 0002:00049a30       ?_Mylast@?$_Vector_alloc@U?$_Vec_base_types@V?$_List_unchecked_iterator@V?$_List_val@U?$_List_simple_types@U?$pair@$$CBV?$basic_string@DU?$char_traits@D@std@@V?$allocator@D@2@@std@@P6AHH@Z@std@@@std@@@std@@@std@@V?$allocator@V?$_List_unchecked_iterator@V?$_List_val@U?$_List_simple_types@U?$pair@$$CBV?$basic_string@DU?$char_traits@D@std@@V?$allocator@D@2@@std@@P6AHH@Z@std@@@std@@@std@@@std@@@2@@std@@@std@@QBEABQAV?$_List_unchecked_iterator@V?$_List_val@U?$_List_simple_types@U?$pair@$$CBV?$basic_string@DU?$char_traits@D@std@@V?$allocator@D@2@@std@@P6AHH@Z@std@@@std@@@std@@@2@XZ 100f8a30 f i SequenceProxy.obj
 0002:00049a60       ?_Mysize@?$_List_alloc@U?$_List_base_types@U?$pair@$$CBV?$basic_string@DU?$char_traits@D@std@@V?$allocator@D@2@@std@@P6AHH@Z@std@@V?$allocator@U?$pair@$$CBV?$basic_string@DU?$char_traits@D@std@@V?$allocator@D@2@@std@@P6AHH@Z@std@@@2@@std@@@std@@QAEAAIXZ 100f8a60 f i SequenceProxy.obj
 0002:00049a90       ?_Mysize@?$_List_alloc@U?$_List_base_types@U?$pair@$$CBV?$basic_string@DU?$char_traits@D@std@@V?$allocator@D@2@@std@@P6AHH@Z@std@@V?$allocator@U?$pair@$$CBV?$basic_string@DU?$char_traits@D@std@@V?$allocator@D@2@@std@@P6AHH@Z@std@@@2@@std@@@std@@QBEABIXZ 100f8a90 f i SequenceProxy.obj
 0002:00049ac0       ?_Orphan_all@?$_Vector_alloc@U?$_Vec_base_types@V?$_List_unchecked_iterator@V?$_List_val@U?$_List_simple_types@U?$pair@$$CBV?$basic_string@DU?$char_traits@D@std@@V?$allocator@D@2@@std@@P6AHH@Z@std@@@std@@@std@@@std@@V?$allocator@V?$_List_unchecked_iterator@V?$_List_val@U?$_List_simple_types@U?$pair@$$CBV?$basic_string@DU?$char_traits@D@std@@V?$allocator@D@2@@std@@P6AHH@Z@std@@@std@@@std@@@std@@@2@@std@@@std@@QAEXXZ 100f8ac0 f i SequenceProxy.obj
 0002:00049af0       ?_Reallocate_exactly@?$vector@V?$_List_unchecked_iterator@V?$_List_val@U?$_List_simple_types@U?$pair@$$CBV?$basic_string@DU?$char_traits@D@std@@V?$allocator@D@2@@std@@P6AHH@Z@std@@@std@@@std@@@std@@V?$allocator@V?$_List_unchecked_iterator@V?$_List_val@U?$_List_simple_types@U?$pair@$$CBV?$basic_string@DU?$char_traits@D@std@@V?$allocator@D@2@@std@@P6AHH@Z@std@@@std@@@std@@@std@@@2@@std@@AAEXI@Z 100f8af0 f i SequenceProxy.obj
 0002:00049c00       ?_Reinsert@?$_Hash@V?$_Umap_traits@V?$basic_string@DU?$char_traits@D@std@@V?$allocator@D@2@@std@@P6AHH@ZV?$_Uhash_compare@V?$basic_string@DU?$char_traits@D@std@@V?$allocator@D@2@@std@@U?$hash@V?$basic_string@DU?$char_traits@D@std@@V?$allocator@D@2@@std@@@2@U?$equal_to@V?$basic_string@DU?$char_traits@D@std@@V?$allocator@D@2@@std@@@2@@2@V?$allocator@U?$pair@$$CBV?$basic_string@DU?$char_traits@D@std@@V?$allocator@D@2@@std@@P6AHH@Z@std@@@2@$0A@@std@@@std@@IAEXXZ 100f8c00 f i SequenceProxy.obj
 0002:00049ce0       ?_Tidy@?$list@U?$pair@$$CBV?$basic_string@DU?$char_traits@D@std@@V?$allocator@D@2@@std@@P6AHH@Z@std@@V?$allocator@U?$pair@$$CBV?$basic_string@DU?$char_traits@D@std@@V?$allocator@D@2@@std@@P6AHH@Z@std@@@2@@std@@QAEXXZ 100f8ce0 f i SequenceProxy.obj
 0002:00049d10       ?_Tidy@?$vector@V?$_List_unchecked_iterator@V?$_List_val@U?$_List_simple_types@U?$pair@$$CBV?$basic_string@DU?$char_traits@D@std@@V?$allocator@D@2@@std@@P6AHH@Z@std@@@std@@@std@@@std@@V?$allocator@V?$_List_unchecked_iterator@V?$_List_val@U?$_List_simple_types@U?$pair@$$CBV?$basic_string@DU?$char_traits@D@std@@V?$allocator@D@2@@std@@P6AHH@Z@std@@@std@@@std@@@std@@@2@@std@@AAEXXZ 100f8d10 f i SequenceProxy.obj
 0002:00049dd0       ?_Ufill@?$vector@V?$_List_unchecked_iterator@V?$_List_val@U?$_List_simple_types@U?$pair@$$CBV?$basic_string@DU?$char_traits@D@std@@V?$allocator@D@2@@std@@P6AHH@Z@std@@@std@@@std@@@std@@V?$allocator@V?$_List_unchecked_iterator@V?$_List_val@U?$_List_simple_types@U?$pair@$$CBV?$basic_string@DU?$char_traits@D@std@@V?$allocator@D@2@@std@@P6AHH@Z@std@@@std@@@std@@@std@@@2@@std@@AAEPAV?$_List_unchecked_iterator@V?$_List_val@U?$_List_simple_types@U?$pair@$$CBV?$basic_string@DU?$char_traits@D@std@@V?$allocator@D@2@@std@@P6AHH@Z@std@@@std@@@std@@@2@PAV32@IABV32@@Z 100f8dd0 f i SequenceProxy.obj
 0002:00049e10       ?_Umove_if_noexcept1@?$vector@V?$_List_unchecked_iterator@V?$_List_val@U?$_List_simple_types@U?$pair@$$CBV?$basic_string@DU?$char_traits@D@std@@V?$allocator@D@2@@std@@P6AHH@Z@std@@@std@@@std@@@std@@V?$allocator@V?$_List_unchecked_iterator@V?$_List_val@U?$_List_simple_types@U?$pair@$$CBV?$basic_string@DU?$char_traits@D@std@@V?$allocator@D@2@@std@@P6AHH@Z@std@@@std@@@std@@@std@@@2@@std@@AAEXPAV?$_List_unchecked_iterator@V?$_List_val@U?$_List_simple_types@U?$pair@$$CBV?$basic_string@DU?$char_traits@D@std@@V?$allocator@D@2@@std@@P6AHH@Z@std@@@std@@@std@@@2@00U?$integral_constant@_N$00@2@@Z 100f8e10 f i SequenceProxy.obj
 0002:00049e50       ?_Umove_if_noexcept@?$vector@V?$_List_unchecked_iterator@V?$_List_val@U?$_List_simple_types@U?$pair@$$CBV?$basic_string@DU?$char_traits@D@std@@V?$allocator@D@2@@std@@P6AHH@Z@std@@@std@@@std@@@std@@V?$allocator@V?$_List_unchecked_iterator@V?$_List_val@U?$_List_simple_types@U?$pair@$$CBV?$basic_string@DU?$char_traits@D@std@@V?$allocator@D@2@@std@@P6AHH@Z@std@@@std@@@std@@@std@@@2@@std@@AAEXPAV?$_List_unchecked_iterator@V?$_List_val@U?$_List_simple_types@U?$pair@$$CBV?$basic_string@DU?$char_traits@D@std@@V?$allocator@D@2@@std@@P6AHH@Z@std@@@std@@@std@@@2@00@Z 100f8e50 f i SequenceProxy.obj
 0002:00049e90       ?_Unchecked_begin@?$_Hash@V?$_Umap_traits@V?$basic_string@DU?$char_traits@D@std@@V?$allocator@D@2@@std@@P6AHH@ZV?$_Uhash_compare@V?$basic_string@DU?$char_traits@D@std@@V?$allocator@D@2@@std@@U?$hash@V?$basic_string@DU?$char_traits@D@std@@V?$allocator@D@2@@std@@@2@U?$equal_to@V?$basic_string@DU?$char_traits@D@std@@V?$allocator@D@2@@std@@@2@@2@V?$allocator@U?$pair@$$CBV?$basic_string@DU?$char_traits@D@std@@V?$allocator@D@2@@std@@P6AHH@Z@std@@@2@$0A@@std@@@std@@QAE?AV?$_List_unchecked_iterator@V?$_List_val@U?$_List_simple_types@U?$pair@$$CBV?$basic_string@DU?$char_traits@D@std@@V?$allocator@D@2@@std@@P6AHH@Z@std@@@std@@@std@@@2@XZ 100f8e90 f i SequenceProxy.obj
 0002:00049ec0       ?_Unchecked_begin@?$list@U?$pair@$$CBV?$basic_string@DU?$char_traits@D@std@@V?$allocator@D@2@@std@@P6AHH@Z@std@@V?$allocator@U?$pair@$$CBV?$basic_string@DU?$char_traits@D@std@@V?$allocator@D@2@@std@@P6AHH@Z@std@@@2@@std@@QAE?AV?$_List_unchecked_iterator@V?$_List_val@U?$_List_simple_types@U?$pair@$$CBV?$basic_string@DU?$char_traits@D@std@@V?$allocator@D@2@@std@@P6AHH@Z@std@@@std@@@std@@@2@XZ 100f8ec0 f i SequenceProxy.obj
 0002:00049f00       ?_Unchecked_end@?$_Hash@V?$_Umap_traits@V?$basic_string@DU?$char_traits@D@std@@V?$allocator@D@2@@std@@P6AHH@ZV?$_Uhash_compare@V?$basic_string@DU?$char_traits@D@std@@V?$allocator@D@2@@std@@U?$hash@V?$basic_string@DU?$char_traits@D@std@@V?$allocator@D@2@@std@@@2@U?$equal_to@V?$basic_string@DU?$char_traits@D@std@@V?$allocator@D@2@@std@@@2@@2@V?$allocator@U?$pair@$$CBV?$basic_string@DU?$char_traits@D@std@@V?$allocator@D@2@@std@@P6AHH@Z@std@@@2@$0A@@std@@@std@@QAE?AV?$_List_unchecked_iterator@V?$_List_val@U?$_List_simple_types@U?$pair@$$CBV?$basic_string@DU?$char_traits@D@std@@V?$allocator@D@2@@std@@P6AHH@Z@std@@@std@@@std@@@2@XZ 100f8f00 f i SequenceProxy.obj
 0002:00049f30       ?_Unchecked_end@?$list@U?$pair@$$CBV?$basic_string@DU?$char_traits@D@std@@V?$allocator@D@2@@std@@P6AHH@Z@std@@V?$allocator@U?$pair@$$CBV?$basic_string@DU?$char_traits@D@std@@V?$allocator@D@2@@std@@P6AHH@Z@std@@@2@@std@@QAE?AV?$_List_unchecked_iterator@V?$_List_val@U?$_List_simple_types@U?$pair@$$CBV?$basic_string@DU?$char_traits@D@std@@V?$allocator@D@2@@std@@P6AHH@Z@std@@@std@@@std@@@2@XZ 100f8f30 f i SequenceProxy.obj
 0002:00049f70       ?_Unchecked_splice@?$list@U?$pair@$$CBV?$basic_string@DU?$char_traits@D@std@@V?$allocator@D@2@@std@@P6AHH@Z@std@@V?$allocator@U?$pair@$$CBV?$basic_string@DU?$char_traits@D@std@@V?$allocator@D@2@@std@@P6AHH@Z@std@@@2@@std@@QAEXV?$_List_unchecked_const_iterator@V?$_List_val@U?$_List_simple_types@U?$pair@$$CBV?$basic_string@DU?$char_traits@D@std@@V?$allocator@D@2@@std@@P6AHH@Z@std@@@std@@@std@@U_Iterator_base0@2@@2@00@Z 100f8f70 f i SequenceProxy.obj
 0002:00049ff0       ?_Unlinknode@?$list@U?$pair@$$CBV?$basic_string@DU?$char_traits@D@std@@V?$allocator@D@2@@std@@P6AHH@Z@std@@V?$allocator@U?$pair@$$CBV?$basic_string@DU?$char_traits@D@std@@V?$allocator@D@2@@std@@P6AHH@Z@std@@@2@@std@@QAEPAU?$_List_node@U?$pair@$$CBV?$basic_string@DU?$char_traits@D@std@@V?$allocator@D@2@@std@@P6AHH@Z@std@@PAX@2@V?$_List_const_iterator@V?$_List_val@U?$_List_simple_types@U?$pair@$$CBV?$basic_string@DU?$char_traits@D@std@@V?$allocator@D@2@@std@@P6AHH@Z@std@@@std@@@std@@@2@@Z 100f8ff0 f i SequenceProxy.obj
 0002:0004a060       ?_Vec_hi@?$_Hash@V?$_Umap_traits@V?$basic_string@DU?$char_traits@D@std@@V?$allocator@D@2@@std@@P6AHH@ZV?$_Uhash_compare@V?$basic_string@DU?$char_traits@D@std@@V?$allocator@D@2@@std@@U?$hash@V?$basic_string@DU?$char_traits@D@std@@V?$allocator@D@2@@std@@@2@U?$equal_to@V?$basic_string@DU?$char_traits@D@std@@V?$allocator@D@2@@std@@@2@@2@V?$allocator@U?$pair@$$CBV?$basic_string@DU?$char_traits@D@std@@V?$allocator@D@2@@std@@P6AHH@Z@std@@@2@$0A@@std@@@std@@IAEAAV?$_List_unchecked_iterator@V?$_List_val@U?$_List_simple_types@U?$pair@$$CBV?$basic_string@DU?$char_traits@D@std@@V?$allocator@D@2@@std@@P6AHH@Z@std@@@std@@@std@@@2@I@Z 100f9060 f i SequenceProxy.obj
 0002:0004a0a0       ?_Vec_lo@?$_Hash@V?$_Umap_traits@V?$basic_string@DU?$char_traits@D@std@@V?$allocator@D@2@@std@@P6AHH@ZV?$_Uhash_compare@V?$basic_string@DU?$char_traits@D@std@@V?$allocator@D@2@@std@@U?$hash@V?$basic_string@DU?$char_traits@D@std@@V?$allocator@D@2@@std@@@2@U?$equal_to@V?$basic_string@DU?$char_traits@D@std@@V?$allocator@D@2@@std@@@2@@2@V?$allocator@U?$pair@$$CBV?$basic_string@DU?$char_traits@D@std@@V?$allocator@D@2@@std@@P6AHH@Z@std@@@2@$0A@@std@@@std@@IAEAAV?$_List_unchecked_iterator@V?$_List_val@U?$_List_simple_types@U?$pair@$$CBV?$basic_string@DU?$char_traits@D@std@@V?$allocator@D@2@@std@@P6AHH@Z@std@@@std@@@std@@@2@I@Z 100f90a0 f i SequenceProxy.obj
 0002:0004a0d0       ?_Xlength@?$vector@V?$_List_unchecked_iterator@V?$_List_val@U?$_List_simple_types@U?$pair@$$CBV?$basic_string@DU?$char_traits@D@std@@V?$allocator@D@2@@std@@P6AHH@Z@std@@@std@@@std@@@std@@V?$allocator@V?$_List_unchecked_iterator@V?$_List_val@U?$_List_simple_types@U?$pair@$$CBV?$basic_string@DU?$char_traits@D@std@@V?$allocator@D@2@@std@@P6AHH@Z@std@@@std@@@std@@@std@@@2@@std@@CAXXZ 100f90d0 f i SequenceProxy.obj
 0002:0004a0f0       ?__autoclassinit2@?$_List_const_iterator@V?$_List_val@U?$_List_simple_types@U?$pair@$$CBV?$basic_string@DU?$char_traits@D@std@@V?$allocator@D@2@@std@@P6AHH@Z@std@@@std@@@std@@@std@@QAEXI@Z 100f90f0 f i SequenceProxy.obj
 0002:0004a120       ?__autoclassinit2@?$_List_unchecked_iterator@V?$_List_val@U?$_List_simple_types@U?$pair@$$CBV?$basic_string@DU?$char_traits@D@std@@V?$allocator@D@2@@std@@P6AHH@Z@std@@@std@@@std@@@std@@QAEXI@Z 100f9120 f i SequenceProxy.obj
 0002:0004a150       ?__autoclassinit2@?$unordered_map@V?$basic_string@DU?$char_traits@D@std@@V?$allocator@D@2@@std@@P6AHH@ZU?$hash@V?$basic_string@DU?$char_traits@D@std@@V?$allocator@D@2@@std@@@2@U?$equal_to@V?$basic_string@DU?$char_traits@D@std@@V?$allocator@D@2@@std@@@2@V?$allocator@U?$pair@$$CBV?$basic_string@DU?$char_traits@D@std@@V?$allocator@D@2@@std@@P6AHH@Z@std@@@2@@std@@QAEXI@Z 100f9150 f i SequenceProxy.obj
 0002:0004a180       ?aarmxvthynonugabjrifq@dutqine@@AAE?AV?$basic_string@DU?$char_traits@D@std@@V?$allocator@D@2@@std@@NHNV23@0H00@Z 100f9180 f   SequenceProxy.obj
 0002:0004a3e0       ?allocate@?$allocator@U?$_List_node@U?$pair@$$CBV?$basic_string@DU?$char_traits@D@std@@V?$allocator@D@2@@std@@P6AHH@Z@std@@PAX@std@@@std@@QAEPAU?$_List_node@U?$pair@$$CBV?$basic_string@DU?$char_traits@D@std@@V?$allocator@D@2@@std@@P6AHH@Z@std@@PAX@2@I@Z 100f93e0 f i SequenceProxy.obj
 0002:0004a410       ?allocate@?$allocator@V?$_List_unchecked_iterator@V?$_List_val@U?$_List_simple_types@U?$pair@$$CBV?$basic_string@DU?$char_traits@D@std@@V?$allocator@D@2@@std@@P6AHH@Z@std@@@std@@@std@@@std@@@std@@QAEPAV?$_List_unchecked_iterator@V?$_List_val@U?$_List_simple_types@U?$pair@$$CBV?$basic_string@DU?$char_traits@D@std@@V?$allocator@D@2@@std@@P6AHH@Z@std@@@std@@@std@@@2@I@Z 100f9410 f i SequenceProxy.obj
 0002:0004a440       ?assign@?$vector@V?$_List_unchecked_iterator@V?$_List_val@U?$_List_simple_types@U?$pair@$$CBV?$basic_string@DU?$char_traits@D@std@@V?$allocator@D@2@@std@@P6AHH@Z@std@@@std@@@std@@@std@@V?$allocator@V?$_List_unchecked_iterator@V?$_List_val@U?$_List_simple_types@U?$pair@$$CBV?$basic_string@DU?$char_traits@D@std@@V?$allocator@D@2@@std@@P6AHH@Z@std@@@std@@@std@@@std@@@2@@std@@QAEXIABV?$_List_unchecked_iterator@V?$_List_val@U?$_List_simple_types@U?$pair@$$CBV?$basic_string@DU?$char_traits@D@std@@V?$allocator@D@2@@std@@P6AHH@Z@std@@@std@@@std@@@2@@Z 100f9440 f i SequenceProxy.obj
 0002:0004a630       ?aszrbqylorofevbpdvgzswxhr@dutqine@@IAENNNN@Z 100f9630 f   SequenceProxy.obj
 0002:0004a8c0       ?begin@?$initializer_list@U?$pair@$$CBV?$basic_string@DU?$char_traits@D@std@@V?$allocator@D@2@@std@@P6AHH@Z@std@@@std@@QBEPBU?$pair@$$CBV?$basic_string@DU?$char_traits@D@std@@V?$allocator@D@2@@std@@P6AHH@Z@2@XZ 100f98c0 f i SequenceProxy.obj
 0002:0004a8e0       ?begin@?$list@U?$pair@$$CBV?$basic_string@DU?$char_traits@D@std@@V?$allocator@D@2@@std@@P6AHH@Z@std@@V?$allocator@U?$pair@$$CBV?$basic_string@DU?$char_traits@D@std@@V?$allocator@D@2@@std@@P6AHH@Z@std@@@2@@std@@QAE?AV?$_List_iterator@V?$_List_val@U?$_List_simple_types@U?$pair@$$CBV?$basic_string@DU?$char_traits@D@std@@V?$allocator@D@2@@std@@P6AHH@Z@std@@@std@@@std@@@2@XZ 100f98e0 f i SequenceProxy.obj
 0002:0004a970       ?boxkqixpofbmwreojdwu@rwdjlky@@AAE_NNV?$basic_string@DU?$char_traits@D@std@@V?$allocator@D@2@@std@@0HH@Z 100f9970 f   SequenceProxy.obj
 0002:0004ae20       ?bucket_count@?$_Hash@V?$_Umap_traits@V?$basic_string@DU?$char_traits@D@std@@V?$allocator@D@2@@std@@P6AHH@ZV?$_Uhash_compare@V?$basic_string@DU?$char_traits@D@std@@V?$allocator@D@2@@std@@U?$hash@V?$basic_string@DU?$char_traits@D@std@@V?$allocator@D@2@@std@@@2@U?$equal_to@V?$basic_string@DU?$char_traits@D@std@@V?$allocator@D@2@@std@@@2@@2@V?$allocator@U?$pair@$$CBV?$basic_string@DU?$char_traits@D@std@@V?$allocator@D@2@@std@@P6AHH@Z@std@@@2@$0A@@std@@@std@@QBEIXZ 100f9e20 f i SequenceProxy.obj
 0002:0004ae40       ?capacity@?$vector@V?$_List_unchecked_iterator@V?$_List_val@U?$_List_simple_types@U?$pair@$$CBV?$basic_string@DU?$char_traits@D@std@@V?$allocator@D@2@@std@@P6AHH@Z@std@@@std@@@std@@@std@@V?$allocator@V?$_List_unchecked_iterator@V?$_List_val@U?$_List_simple_types@U?$pair@$$CBV?$basic_string@DU?$char_traits@D@std@@V?$allocator@D@2@@std@@P6AHH@Z@std@@@std@@@std@@@std@@@2@@std@@QBEIXZ 100f9e40 f i SequenceProxy.obj
 0002:0004ae80       ?ccommpohizorrjggttx@rwdjlky@@QAEXXZ 100f9e80 f   SequenceProxy.obj
 0002:0004b260       ?clear@?$list@U?$pair@$$CBV?$basic_string@DU?$char_traits@D@std@@V?$allocator@D@2@@std@@P6AHH@Z@std@@V?$allocator@U?$pair@$$CBV?$basic_string@DU?$char_traits@D@std@@V?$allocator@D@2@@std@@P6AHH@Z@std@@@2@@std@@QAEXXZ 100fa260 f i SequenceProxy.obj
 0002:0004b350       ?dbcizpkcbzwbojiv@dutqine@@AAEN_NNV?$basic_string@DU?$char_traits@D@std@@V?$allocator@D@2@@std@@@Z 100fa350 f   SequenceProxy.obj
 0002:0004b5d0       ?deallocate@?$_Default_allocator_traits@V?$allocator@U?$_List_node@U?$pair@$$CBV?$basic_string@DU?$char_traits@D@std@@V?$allocator@D@2@@std@@P6AHH@Z@std@@PAX@std@@@std@@@std@@SAXAAV?$allocator@U?$_List_node@U?$pair@$$CBV?$basic_string@DU?$char_traits@D@std@@V?$allocator@D@2@@std@@P6AHH@Z@std@@PAX@std@@@2@QAU?$_List_node@U?$pair@$$CBV?$basic_string@DU?$char_traits@D@std@@V?$allocator@D@2@@std@@P6AHH@Z@std@@PAX@2@I@Z 100fa5d0 f i SequenceProxy.obj
 0002:0004b600       ?deallocate@?$allocator@U?$_List_node@U?$pair@$$CBV?$basic_string@DU?$char_traits@D@std@@V?$allocator@D@2@@std@@P6AHH@Z@std@@PAX@std@@@std@@QAEXQAU?$_List_node@U?$pair@$$CBV?$basic_string@DU?$char_traits@D@std@@V?$allocator@D@2@@std@@P6AHH@Z@std@@PAX@2@I@Z 100fa600 f i SequenceProxy.obj
 0002:0004b640       ?deallocate@?$allocator@V?$_List_unchecked_iterator@V?$_List_val@U?$_List_simple_types@U?$pair@$$CBV?$basic_string@DU?$char_traits@D@std@@V?$allocator@D@2@@std@@P6AHH@Z@std@@@std@@@std@@@std@@@std@@QAEXQAV?$_List_unchecked_iterator@V?$_List_val@U?$_List_simple_types@U?$pair@$$CBV?$basic_string@DU?$char_traits@D@std@@V?$allocator@D@2@@std@@P6AHH@Z@std@@@std@@@std@@@2@I@Z 100fa640 f i SequenceProxy.obj
 0002:0004b680       ?dtffdjdyynnuogowqqbukjur@dutqine@@IAE_NNN@Z 100fa680 f   SequenceProxy.obj
 0002:0004b6a0       ?dzpxtleacikavvw@dutqine@@AAEHN_NV?$basic_string@DU?$char_traits@D@std@@V?$allocator@D@2@@std@@10H1@Z 100fa6a0 f   SequenceProxy.obj
 0002:0004b960       ?ecukgobfnvyn@dutqine@@AAEH_NNV?$basic_string@DU?$char_traits@D@std@@V?$allocator@D@2@@std@@00HN00N@Z 100fa960 f   SequenceProxy.obj
 0002:0004ba70       ?egvdohzbieqhi@dutqine@@QAEHNV?$basic_string@DU?$char_traits@D@std@@V?$allocator@D@2@@std@@N0HHHN_N0@Z 100faa70 f   SequenceProxy.obj
 0002:0004bdb0       ?ejhkxaedzs@rwdjlky@@AAEH_NN0000NHN0@Z 100fadb0 f   SequenceProxy.obj
 0002:0004bfd0       ?end@?$initializer_list@U?$pair@$$CBV?$basic_string@DU?$char_traits@D@std@@V?$allocator@D@2@@std@@P6AHH@Z@std@@@std@@QBEPBU?$pair@$$CBV?$basic_string@DU?$char_traits@D@std@@V?$allocator@D@2@@std@@P6AHH@Z@2@XZ 100fafd0 f i SequenceProxy.obj
 0002:0004bff0       ?erase@?$_Hash@V?$_Umap_traits@V?$basic_string@DU?$char_traits@D@std@@V?$allocator@D@2@@std@@P6AHH@ZV?$_Uhash_compare@V?$basic_string@DU?$char_traits@D@std@@V?$allocator@D@2@@std@@U?$hash@V?$basic_string@DU?$char_traits@D@std@@V?$allocator@D@2@@std@@@2@U?$equal_to@V?$basic_string@DU?$char_traits@D@std@@V?$allocator@D@2@@std@@@2@@2@V?$allocator@U?$pair@$$CBV?$basic_string@DU?$char_traits@D@std@@V?$allocator@D@2@@std@@P6AHH@Z@std@@@2@$0A@@std@@@std@@QAE?AV?$_List_iterator@V?$_List_val@U?$_List_simple_types@U?$pair@$$CBV?$basic_string@DU?$char_traits@D@std@@V?$allocator@D@2@@std@@P6AHH@Z@std@@@std@@@std@@@2@V?$_List_const_iterator@V?$_List_val@U?$_List_simple_types@U?$pair@$$CBV?$basic_string@DU?$char_traits@D@std@@V?$allocator@D@2@@std@@P6AHH@Z@std@@@std@@@std@@@2@@Z 100faff0 f i SequenceProxy.obj
 0002:0004c070       ?erase@?$list@U?$pair@$$CBV?$basic_string@DU?$char_traits@D@std@@V?$allocator@D@2@@std@@P6AHH@Z@std@@V?$allocator@U?$pair@$$CBV?$basic_string@DU?$char_traits@D@std@@V?$allocator@D@2@@std@@P6AHH@Z@std@@@2@@std@@QAE?AV?$_List_iterator@V?$_List_val@U?$_List_simple_types@U?$pair@$$CBV?$basic_string@DU?$char_traits@D@std@@V?$allocator@D@2@@std@@P6AHH@Z@std@@@std@@@std@@@2@V?$_List_const_iterator@V?$_List_val@U?$_List_simple_types@U?$pair@$$CBV?$basic_string@DU?$char_traits@D@std@@V?$allocator@D@2@@std@@P6AHH@Z@std@@@std@@@std@@@2@@Z 100fb070 f i SequenceProxy.obj
 0002:0004c0e0       ?ficdjrggwgtkywlyfcek@rwdjlky@@AAEHV?$basic_string@DU?$char_traits@D@std@@V?$allocator@D@2@@std@@HNH0H0@Z 100fb0e0 f   SequenceProxy.obj
 0002:0004c1c0       ?fqonuhqxkmgygopq@qhpcnmo@@QAE_NHH_N0@Z 100fb1c0 f   SequenceProxy.obj
 0002:0004c4b0       ?front@?$list@U?$pair@$$CBV?$basic_string@DU?$char_traits@D@std@@V?$allocator@D@2@@std@@P6AHH@Z@std@@V?$allocator@U?$pair@$$CBV?$basic_string@DU?$char_traits@D@std@@V?$allocator@D@2@@std@@P6AHH@Z@std@@@2@@std@@QAEAAU?$pair@$$CBV?$basic_string@DU?$char_traits@D@std@@V?$allocator@D@2@@std@@P6AHH@Z@2@XZ 100fb4b0 f i SequenceProxy.obj
 0002:0004c4e0       ?gkogcruxhuviztzgvupk@dutqine@@IAENHNNHNH_NHHN@Z 100fb4e0 f   SequenceProxy.obj
 0002:0004c830       ?gqgcgrtoqhhgedqh@qhpcnmo@@AAEHV?$basic_string@DU?$char_traits@D@std@@V?$allocator@D@2@@std@@N0_N1N1N@Z 100fb830 f   SequenceProxy.obj
 0002:0004c970       ?gxxtjcfbeumdqoyt@rwdjlky@@QAENNNHHV?$basic_string@DU?$char_traits@D@std@@V?$allocator@D@2@@std@@0HN0H@Z 100fb970 f   SequenceProxy.obj
 0002:0004cb90       ?hajsozlclrnjsqaoayaoykyff@dutqine@@AAEXH_NN@Z 100fbb90 f   SequenceProxy.obj
 0002:0004cc70       ?hcgagchcrkovyoybhgcpdvqoz@dutqine@@QAEXHH_NHNV?$basic_string@DU?$char_traits@D@std@@V?$allocator@D@2@@std@@1HNH@Z 100fbc70 f   SequenceProxy.obj
 0002:0004ccb0       ?hrarebsnktuxbuyo@rwdjlky@@IAEXHHHHNHV?$basic_string@DU?$char_traits@D@std@@V?$allocator@D@2@@std@@H@Z 100fbcb0 f   SequenceProxy.obj
 0002:0004cef0       ?htipdsbtlmzyxqgfbtsnrntl@rwdjlky@@QAENV?$basic_string@DU?$char_traits@D@std@@V?$allocator@D@2@@std@@HH@Z 100fbef0 f   SequenceProxy.obj
 0002:0004d220       ?hxivamovhhpoey@rwdjlky@@IAE?AV?$basic_string@DU?$char_traits@D@std@@V?$allocator@D@2@@std@@V23@NH_NNNNNNN@Z 100fc220 f   SequenceProxy.obj
 0002:0004d2f0       ?ifudoiheqqskhofmozugws@rwdjlky@@QAEX_NV?$basic_string@DU?$char_traits@D@std@@V?$allocator@D@2@@std@@1NHNH@Z 100fc2f0 f   SequenceProxy.obj
 0002:0004d4d0       ?insert@?$_Hash@V?$_Umap_traits@V?$basic_string@DU?$char_traits@D@std@@V?$allocator@D@2@@std@@P6AHH@ZV?$_Uhash_compare@V?$basic_string@DU?$char_traits@D@std@@V?$allocator@D@2@@std@@U?$hash@V?$basic_string@DU?$char_traits@D@std@@V?$allocator@D@2@@std@@@2@U?$equal_to@V?$basic_string@DU?$char_traits@D@std@@V?$allocator@D@2@@std@@@2@@2@V?$allocator@U?$pair@$$CBV?$basic_string@DU?$char_traits@D@std@@V?$allocator@D@2@@std@@P6AHH@Z@std@@@2@$0A@@std@@@std@@QAEXV?$initializer_list@U?$pair@$$CBV?$basic_string@DU?$char_traits@D@std@@V?$allocator@D@2@@std@@P6AHH@Z@std@@@2@@Z 100fc4d0 f i SequenceProxy.obj
 0002:0004d510       ?jbtnuzjnks@dutqine@@QAENHHN@Z 100fc510 f   SequenceProxy.obj
 0002:0004d5f0       ?jrpjtyeaqbpbrlafaml@rwdjlky@@IAENNH_NV?$basic_string@DU?$char_traits@D@std@@V?$allocator@D@2@@std@@000@Z 100fc5f0 f   SequenceProxy.obj
 0002:0004d720       ?juphqyxjvhemm@rwdjlky@@QAEXV?$basic_string@DU?$char_traits@D@std@@V?$allocator@D@2@@std@@_NN1H@Z 100fc720 f   SequenceProxy.obj
 0002:0004d880       ?koihyfdlslvtvscxceotmi@dutqine@@QAENV?$basic_string@DU?$char_traits@D@std@@V?$allocator@D@2@@std@@@Z 100fc880 f   SequenceProxy.obj
 0002:0004da40       ?kshnnyoecwkhlq@dutqine@@AAENV?$basic_string@DU?$char_traits@D@std@@V?$allocator@D@2@@std@@NH0_NN@Z 100fca40 f   SequenceProxy.obj
 0002:0004db10       ?ktunhjuwvnknuplzujwcxlxde@rwdjlky@@IAEHH_NHNNNV?$basic_string@DU?$char_traits@D@std@@V?$allocator@D@2@@std@@N1H@Z 100fcb10 f   SequenceProxy.obj
 0002:0004de90       ?ljpigruldthwbwn@dutqine@@AAENHNV?$basic_string@DU?$char_traits@D@std@@V?$allocator@D@2@@std@@_NHH@Z 100fce90 f   SequenceProxy.obj
 0002:0004e100       ?lmbwysfrlrqc@qhpcnmo@@QAEX_N00@Z 100fd100 f   SequenceProxy.obj
 0002:0004e340       ?load_factor@?$_Hash@V?$_Umap_traits@V?$basic_string@DU?$char_traits@D@std@@V?$allocator@D@2@@std@@P6AHH@ZV?$_Uhash_compare@V?$basic_string@DU?$char_traits@D@std@@V?$allocator@D@2@@std@@U?$hash@V?$basic_string@DU?$char_traits@D@std@@V?$allocator@D@2@@std@@@2@U?$equal_to@V?$basic_string@DU?$char_traits@D@std@@V?$allocator@D@2@@std@@@2@@2@V?$allocator@U?$pair@$$CBV?$basic_string@DU?$char_traits@D@std@@V?$allocator@D@2@@std@@P6AHH@Z@std@@@2@$0A@@std@@@std@@QBEMXZ 100fd340 f i SequenceProxy.obj
 0002:0004e3e0       ?max_load_factor@?$_Hash@V?$_Umap_traits@V?$basic_string@DU?$char_traits@D@std@@V?$allocator@D@2@@std@@P6AHH@ZV?$_Uhash_compare@V?$basic_string@DU?$char_traits@D@std@@V?$allocator@D@2@@std@@U?$hash@V?$basic_string@DU?$char_traits@D@std@@V?$allocator@D@2@@std@@@2@U?$equal_to@V?$basic_string@DU?$char_traits@D@std@@V?$allocator@D@2@@std@@@2@@2@V?$allocator@U?$pair@$$CBV?$basic_string@DU?$char_traits@D@std@@V?$allocator@D@2@@std@@P6AHH@Z@std@@@2@$0A@@std@@@std@@QBEMXZ 100fd3e0 f i SequenceProxy.obj
 0002:0004e410       ?max_size@?$_Default_allocator_traits@V?$allocator@U?$_List_node@U?$pair@$$CBV?$basic_string@DU?$char_traits@D@std@@V?$allocator@D@2@@std@@P6AHH@Z@std@@PAX@std@@@std@@@std@@SAIABV?$allocator@U?$_List_node@U?$pair@$$CBV?$basic_string@DU?$char_traits@D@std@@V?$allocator@D@2@@std@@P6AHH@Z@std@@PAX@std@@@2@@Z 100fd410 f i SequenceProxy.obj
 0002:0004e430       ?max_size@?$_Default_allocator_traits@V?$allocator@V?$_List_unchecked_iterator@V?$_List_val@U?$_List_simple_types@U?$pair@$$CBV?$basic_string@DU?$char_traits@D@std@@V?$allocator@D@2@@std@@P6AHH@Z@std@@@std@@@std@@@std@@@std@@@std@@SAIABV?$allocator@V?$_List_unchecked_iterator@V?$_List_val@U?$_List_simple_types@U?$pair@$$CBV?$basic_string@DU?$char_traits@D@std@@V?$allocator@D@2@@std@@P6AHH@Z@std@@@std@@@std@@@std@@@2@@Z 100fd430 f i SequenceProxy.obj
 0002:0004e450       ?max_size@?$list@U?$pair@$$CBV?$basic_string@DU?$char_traits@D@std@@V?$allocator@D@2@@std@@P6AHH@Z@std@@V?$allocator@U?$pair@$$CBV?$basic_string@DU?$char_traits@D@std@@V?$allocator@D@2@@std@@P6AHH@Z@std@@@2@@std@@QBEIXZ 100fd450 f i SequenceProxy.obj
 0002:0004e480       ?max_size@?$vector@V?$_List_unchecked_iterator@V?$_List_val@U?$_List_simple_types@U?$pair@$$CBV?$basic_string@DU?$char_traits@D@std@@V?$allocator@D@2@@std@@P6AHH@Z@std@@@std@@@std@@@std@@V?$allocator@V?$_List_unchecked_iterator@V?$_List_val@U?$_List_simple_types@U?$pair@$$CBV?$basic_string@DU?$char_traits@D@std@@V?$allocator@D@2@@std@@P6AHH@Z@std@@@std@@@std@@@std@@@2@@std@@QBEIXZ 100fd480 f i SequenceProxy.obj
 0002:0004e4e0       ?nacuwunvzcnvvlpwidefzy@dutqine@@IAEH_N@Z 100fd4e0 f   SequenceProxy.obj
 0002:0004e7e0       ?omxmbpffzkgt@dutqine@@AAE_NV?$basic_string@DU?$char_traits@D@std@@V?$allocator@D@2@@std@@H_N1N@Z 100fd7e0 f   SequenceProxy.obj
 0002:0004e830       ?pbppqwrsumviyhlsigwg@dutqine@@IAEXHV?$basic_string@DU?$char_traits@D@std@@V?$allocator@D@2@@std@@_N@Z 100fd830 f   SequenceProxy.obj
 0002:0004e970       ?pdzgtmlvgidwhuww@rwdjlky@@AAENXZ 100fd970 f   SequenceProxy.obj
 0002:0004eb20       ?pwjauemdwf@dutqine@@AAEX_NN00V?$basic_string@DU?$char_traits@D@std@@V?$allocator@D@2@@std@@NHHH1@Z 100fdb20 f   SequenceProxy.obj
 0002:0004ee10       ?qayqiqugqkocv@rwdjlky@@QAEHH_NNV?$basic_string@DU?$char_traits@D@std@@V?$allocator@D@2@@std@@HHNH@Z 100fde10 f   SequenceProxy.obj
 0002:0004ef40       ?qthyrlvtczxkuomd@qhpcnmo@@QAE?AV?$basic_string@DU?$char_traits@D@std@@V?$allocator@D@2@@std@@_N0HH0V23@1@Z 100fdf40 f   SequenceProxy.obj
 0002:0004f020       ?reserve@?$vector@V?$_List_unchecked_iterator@V?$_List_val@U?$_List_simple_types@U?$pair@$$CBV?$basic_string@DU?$char_traits@D@std@@V?$allocator@D@2@@std@@P6AHH@Z@std@@@std@@@std@@@std@@V?$allocator@V?$_List_unchecked_iterator@V?$_List_val@U?$_List_simple_types@U?$pair@$$CBV?$basic_string@DU?$char_traits@D@std@@V?$allocator@D@2@@std@@P6AHH@Z@std@@@std@@@std@@@std@@@2@@std@@QAEXI@Z 100fe020 f i SequenceProxy.obj
 0002:0004f070       ?rthpcdcgthhknmbvqsclda@dutqine@@IAEN_NNV?$basic_string@DU?$char_traits@D@std@@V?$allocator@D@2@@std@@00H1H@Z 100fe070 f   SequenceProxy.obj
 0002:0004f1b0       ?sfatfpgbfhswoeobc@qhpcnmo@@IAEHV?$basic_string@DU?$char_traits@D@std@@V?$allocator@D@2@@std@@NNNNH@Z 100fe1b0 f   SequenceProxy.obj
 0002:0004f3f0       ?size@?$_Hash@V?$_Umap_traits@V?$basic_string@DU?$char_traits@D@std@@V?$allocator@D@2@@std@@P6AHH@ZV?$_Uhash_compare@V?$basic_string@DU?$char_traits@D@std@@V?$allocator@D@2@@std@@U?$hash@V?$basic_string@DU?$char_traits@D@std@@V?$allocator@D@2@@std@@@2@U?$equal_to@V?$basic_string@DU?$char_traits@D@std@@V?$allocator@D@2@@std@@@2@@2@V?$allocator@U?$pair@$$CBV?$basic_string@DU?$char_traits@D@std@@V?$allocator@D@2@@std@@P6AHH@Z@std@@@2@$0A@@std@@@std@@QBEIXZ 100fe3f0 f i SequenceProxy.obj
 0002:0004f420       ?size@?$list@U?$pair@$$CBV?$basic_string@DU?$char_traits@D@std@@V?$allocator@D@2@@std@@P6AHH@Z@std@@V?$allocator@U?$pair@$$CBV?$basic_string@DU?$char_traits@D@std@@V?$allocator@D@2@@std@@P6AHH@Z@std@@@2@@std@@QBEIXZ 100fe420 f i SequenceProxy.obj
 0002:0004f450       ?size@?$vector@V?$_List_unchecked_iterator@V?$_List_val@U?$_List_simple_types@U?$pair@$$CBV?$basic_string@DU?$char_traits@D@std@@V?$allocator@D@2@@std@@P6AHH@Z@std@@@std@@@std@@@std@@V?$allocator@V?$_List_unchecked_iterator@V?$_List_val@U?$_List_simple_types@U?$pair@$$CBV?$basic_string@DU?$char_traits@D@std@@V?$allocator@D@2@@std@@P6AHH@Z@std@@@std@@@std@@@std@@@2@@std@@QBEIXZ 100fe450 f i SequenceProxy.obj
 0002:0004f490       ?thdpyxamohzzlepobdbqvx@qhpcnmo@@IAENV?$basic_string@DU?$char_traits@D@std@@V?$allocator@D@2@@std@@N_N@Z 100fe490 f   SequenceProxy.obj
 0002:0004f7b0       ?toieaaefpstxbgfuisdyk@rwdjlky@@IAEXNHN_N00V?$basic_string@DU?$char_traits@D@std@@V?$allocator@D@2@@std@@00@Z 100fe7b0 f   SequenceProxy.obj
 0002:0004fac0       ?tzqqakqbhylacjeatijufbwx@rwdjlky@@AAEXNV?$basic_string@DU?$char_traits@D@std@@V?$allocator@D@2@@std@@_N1HHH10N@Z 100feac0 f   SequenceProxy.obj
 0002:0004fe50       ?uobfhqpqyikkkkdvgn@dutqine@@AAE?AV?$basic_string@DU?$char_traits@D@std@@V?$allocator@D@2@@std@@_NN@Z 100fee50 f   SequenceProxy.obj
 0002:0004fea0       ?vbsqerevjkmjgszxgp@dutqine@@IAEHV?$basic_string@DU?$char_traits@D@std@@V?$allocator@D@2@@std@@NH0@Z 100feea0 f   SequenceProxy.obj
 0002:0004ffb0       ?vhtmcgjifyacp@rwdjlky@@IAEH_N0@Z 100fefb0 f   SequenceProxy.obj
 0002:0004ffd0       ?wvfmnolezpddeoldppspzhi@qhpcnmo@@QAEHV?$basic_string@DU?$char_traits@D@std@@V?$allocator@D@2@@std@@NHN_NHHNN0@Z 100fefd0 f   SequenceProxy.obj
 0002:000502c0       ?xfjrhajibdpwevkdponhgob@rwdjlky@@IAE?AV?$basic_string@DU?$char_traits@D@std@@V?$allocator@D@2@@std@@HV23@_NNHNH0@Z 100ff2c0 f   SequenceProxy.obj
 0002:000505f0       ?xjjnvbpgdg@rwdjlky@@IAEX_NH0@Z 100ff5f0 f   SequenceProxy.obj
 0002:000506f0       ?xohbazxzyvcibrkhgbhwmz@dutqine@@IAE_NH@Z 100ff6f0 f   SequenceProxy.obj
 0002:00050860       ?xwaidfpgueaqk@dutqine@@IAENV?$basic_string@DU?$char_traits@D@std@@V?$allocator@D@2@@std@@0_N@Z 100ff860 f   SequenceProxy.obj
 0002:000509b0       ?ywufvtxieqpclvpcefnbjiite@rwdjlky@@IAEHN_NHH0V?$basic_string@DU?$char_traits@D@std@@V?$allocator@D@2@@std@@0@Z 100ff9b0 f   SequenceProxy.obj
 0002:00050ae0       ??$?0$$QAH$$Z$$V@?$pair@$$CBHUWeaponItemCfg_t@@@std@@QAE@Upiecewise_construct_t@1@V?$tuple@$$QAH@1@V?$tuple@$$V@1@@Z 100ffae0 f i Skinchanger.obj
 0002:00050b20       ??$?0$$V@?$_Compressed_pair@V?$allocator@I@std@@V?$_Deque_val@U?$_Deque_simple_types@I@std@@@2@$00@std@@QAE@U_Zero_then_variadic_args_t@1@@Z 100ffb20 f i Skinchanger.obj
 0002:00050b60       ??$?0$$V@?$_Compressed_pair@V?$allocator@U?$_Tree_node@U?$pair@$$CBV?$basic_string@DU?$char_traits@D@std@@V?$allocator@D@2@@std@@V12@@std@@PAX@std@@@std@@V?$_Tree_val@U?$_Tree_simple_types@U?$pair@$$CBV?$basic_string@DU?$char_traits@D@std@@V?$allocator@D@2@@std@@V12@@std@@@std@@@2@$00@std@@QAE@U_Zero_then_variadic_args_t@1@@Z 100ffb60 f i Skinchanger.obj
 0002:00050ba0       ??$?0$$V@?$_Compressed_pair@V?$allocator@VIterator@JSONInputArchive@cereal@@@std@@V?$_Vector_val@U?$_Simple_types@VIterator@JSONInputArchive@cereal@@@std@@@2@$00@std@@QAE@U_Zero_then_variadic_args_t@1@@Z 100ffba0 f i Skinchanger.obj
 0002:00050be0       ??$?0$$V@?$_Compressed_pair@V?$allocator@W4NodeType@JSONOutputArchive@cereal@@@std@@V?$_Deque_val@U?$_Deque_simple_types@W4NodeType@JSONOutputArchive@cereal@@@std@@@2@$00@std@@QAE@U_Zero_then_variadic_args_t@1@@Z 100ffbe0 f i Skinchanger.obj
 0002:00050c20       ??$?0AAU?$equal_to@I@std@@M@?$_Compressed_pair@U?$equal_to@I@std@@M$00@std@@QAE@U_One_then_variadic_args_t@1@AAU?$equal_to@I@1@$$QAM@Z 100ffc20 f i Skinchanger.obj
 0002:00050c70       ??$?0AAU?$equal_to@PBD@std@@M@?$_Compressed_pair@U?$equal_to@PBD@std@@M$00@std@@QAE@U_One_then_variadic_args_t@1@AAU?$equal_to@PBD@1@$$QAM@Z 100ffc70 f i Skinchanger.obj
 0002:00050cc0       ??$?0AAU?$equal_to@PBX@std@@M@?$_Compressed_pair@U?$equal_to@PBX@std@@M$00@std@@QAE@U_One_then_variadic_args_t@1@AAU?$equal_to@PBX@1@$$QAM@Z 100ffcc0 f i Skinchanger.obj
 0002:00050d10       ??$?0AAU?$equal_to@Ubase_class_id@detail@traits@cereal@@@std@@M@?$_Compressed_pair@U?$equal_to@Ubase_class_id@detail@traits@cereal@@@std@@M$00@std@@QAE@U_One_then_variadic_args_t@1@AAU?$equal_to@Ubase_class_id@detail@traits@cereal@@@1@$$QAM@Z 100ffd10 f i Skinchanger.obj
 0002:00050d60       ??$?0AAU?$equal_to@_K@std@@M@?$_Compressed_pair@U?$equal_to@_K@std@@M$00@std@@QAE@U_One_then_variadic_args_t@1@AAU?$equal_to@_K@1@$$QAM@Z 100ffd60 f i Skinchanger.obj
 0002:00050db0       ??$?0AAU?$hash@I@std@@U_One_then_variadic_args_t@1@AAU?$equal_to@I@1@M@?$_Compressed_pair@U?$hash@I@std@@V?$_Compressed_pair@U?$equal_to@I@std@@M$00@2@$00@std@@QAE@U_One_then_variadic_args_t@1@AAU?$hash@I@1@$$QAU21@AAU?$equal_to@I@1@$$QAM@Z 100ffdb0 f i Skinchanger.obj
 0002:00050e20       ??$?0AAU?$hash@PBD@std@@U_One_then_variadic_args_t@1@AAU?$equal_to@PBD@1@M@?$_Compressed_pair@U?$hash@PBD@std@@V?$_Compressed_pair@U?$equal_to@PBD@std@@M$00@2@$00@std@@QAE@U_One_then_variadic_args_t@1@AAU?$hash@PBD@1@$$QAU21@AAU?$equal_to@PBD@1@$$QAM@Z 100ffe20 f i Skinchanger.obj
 0002:00050e90       ??$?0AAU?$hash@PBX@std@@U_One_then_variadic_args_t@1@AAU?$equal_to@PBX@1@M@?$_Compressed_pair@U?$hash@PBX@std@@V?$_Compressed_pair@U?$equal_to@PBX@std@@M$00@2@$00@std@@QAE@U_One_then_variadic_args_t@1@AAU?$hash@PBX@1@$$QAU21@AAU?$equal_to@PBX@1@$$QAM@Z 100ffe90 f i Skinchanger.obj
 0002:00050f00       ??$?0AAU?$hash@_K@std@@U_One_then_variadic_args_t@1@AAU?$equal_to@_K@1@M@?$_Compressed_pair@U?$hash@_K@std@@V?$_Compressed_pair@U?$equal_to@_K@std@@M$00@2@$00@std@@QAE@U_One_then_variadic_args_t@1@AAU?$hash@_K@1@$$QAU21@AAU?$equal_to@_K@1@$$QAM@Z 100fff00 f i Skinchanger.obj
 0002:00050f70       ??$?0AAUbase_class_id_hash@detail@traits@cereal@@U_One_then_variadic_args_t@std@@AAU?$equal_to@Ubase_class_id@detail@traits@cereal@@@5@M@?$_Compressed_pair@Ubase_class_id_hash@detail@traits@cereal@@V?$_Compressed_pair@U?$equal_to@Ubase_class_id@detail@traits@cereal@@@std@@M$00@std@@$00@std@@QAE@U_One_then_variadic_args_t@1@AAUbase_class_id_hash@detail@traits@cereal@@$$QAU21@AAU?$equal_to@Ubase_class_id@detail@traits@cereal@@@1@$$QAM@Z 100fff70 f i Skinchanger.obj
 0002:00050fe0       ??$?0AAV?$_List_iterator@V?$_List_val@U?$_List_simple_types@U?$pair@$$CBHUWeaponItemCfg_t@@@std@@@std@@@std@@@std@@_N$0A@@?$pair@V?$_List_iterator@V?$_List_val@U?$_List_simple_types@U?$pair@$$CBHUWeaponItemCfg_t@@@std@@@std@@@std@@@std@@_N@std@@QAE@AAV?$_List_iterator@V?$_List_val@U?$_List_simple_types@U?$pair@$$CBHUWeaponItemCfg_t@@@std@@@std@@@std@@@1@$$QA_N@Z 100fffe0 f i Skinchanger.obj
 0002:00051030       ??$?0ABH$$Z$$V@?$pair@$$CBHUWeaponItemCfg_t@@@std@@QAE@Upiecewise_construct_t@1@V?$tuple@ABH@1@V?$tuple@$$V@1@@Z 10100030 f i Skinchanger.obj
 0002:00051070       ??$?0ABH$0A@@?$tuple@ABH@std@@QAE@ABH@Z 10100070 f i Skinchanger.obj
 0002:000510b0       ??$?0ABH@?$_Tuple_val@ABH@std@@QAE@ABH@Z 101000b0 f i Skinchanger.obj
 0002:000510f0       ??$?0ABU?$less@V?$basic_string@DU?$char_traits@D@std@@V?$allocator@D@2@@std@@@std@@U_Zero_then_variadic_args_t@1@@?$_Compressed_pair@U?$less@V?$basic_string@DU?$char_traits@D@std@@V?$allocator@D@2@@std@@@std@@V?$_Compressed_pair@V?$allocator@U?$_Tree_node@U?$pair@$$CBV?$basic_string@DU?$char_traits@D@std@@V?$allocator@D@2@@std@@V12@@std@@PAX@std@@@std@@V?$_Tree_val@U?$_Tree_simple_types@U?$pair@$$CBV?$basic_string@DU?$char_traits@D@std@@V?$allocator@D@2@@std@@V12@@std@@@std@@@2@$00@2@$00@std@@QAE@U_One_then_variadic_args_t@1@ABU?$less@V?$basic_string@DU?$char_traits@D@std@@V?$allocator@D@2@@std@@@1@$$QAU_Zero_then_variadic_args_t@1@@Z 101000f0 f i Skinchanger.obj
 0002:00051140       ??$?0ABV?$allocator@U?$pair@$$CBII@std@@@std@@$$V@?$_Compressed_pair@V?$allocator@U?$_List_node@U?$pair@$$CBII@std@@PAX@std@@@std@@V?$_List_val@U?$_List_simple_types@U?$pair@$$CBII@std@@@std@@@2@$00@std@@QAE@U_One_then_variadic_args_t@1@ABV?$allocator@U?$pair@$$CBII@std@@@1@@Z 10100140 f i Skinchanger.obj
 0002:00051190       ??$?0ABV?$allocator@U?$pair@$$CBII@std@@@std@@X@?$_List_alloc@U?$_List_base_types@U?$pair@$$CBII@std@@V?$allocator@U?$pair@$$CBII@std@@@2@@std@@@std@@QAE@ABV?$allocator@U?$pair@$$CBII@std@@@1@@Z 10100190 f i Skinchanger.obj
 0002:000511f0       ??$?0ABV?$allocator@U?$pair@$$CBII@std@@@std@@X@?$_List_buy@U?$pair@$$CBII@std@@V?$allocator@U?$pair@$$CBII@std@@@2@@std@@QAE@ABV?$allocator@U?$pair@$$CBII@std@@@1@@Z 101001f0 f i Skinchanger.obj
 0002:00051230       ??$?0ABV?$allocator@U?$pair@$$CBIV?$basic_string@DU?$char_traits@D@std@@V?$allocator@D@2@@std@@@std@@@std@@$$V@?$_Compressed_pair@V?$allocator@U?$_List_node@U?$pair@$$CBIV?$basic_string@DU?$char_traits@D@std@@V?$allocator@D@2@@std@@@std@@PAX@std@@@std@@V?$_List_val@U?$_List_simple_types@U?$pair@$$CBIV?$basic_string@DU?$char_traits@D@std@@V?$allocator@D@2@@std@@@std@@@std@@@2@$00@std@@QAE@U_One_then_variadic_args_t@1@ABV?$allocator@U?$pair@$$CBIV?$basic_string@DU?$char_traits@D@std@@V?$allocator@D@2@@std@@@std@@@1@@Z 10100230 f i Skinchanger.obj
 0002:00051280       ??$?0ABV?$allocator@U?$pair@$$CBIV?$basic_string@DU?$char_traits@D@std@@V?$allocator@D@2@@std@@@std@@@std@@X@?$_List_alloc@U?$_List_base_types@U?$pair@$$CBIV?$basic_string@DU?$char_traits@D@std@@V?$allocator@D@2@@std@@@std@@V?$allocator@U?$pair@$$CBIV?$basic_string@DU?$char_traits@D@std@@V?$allocator@D@2@@std@@@std@@@2@@std@@@std@@QAE@ABV?$allocator@U?$pair@$$CBIV?$basic_string@DU?$char_traits@D@std@@V?$allocator@D@2@@std@@@std@@@1@@Z 10100280 f i Skinchanger.obj
 0002:000512e0       ??$?0ABV?$allocator@U?$pair@$$CBIV?$basic_string@DU?$char_traits@D@std@@V?$allocator@D@2@@std@@@std@@@std@@X@?$_List_buy@U?$pair@$$CBIV?$basic_string@DU?$char_traits@D@std@@V?$allocator@D@2@@std@@@std@@V?$allocator@U?$pair@$$CBIV?$basic_string@DU?$char_traits@D@std@@V?$allocator@D@2@@std@@@std@@@2@@std@@QAE@ABV?$allocator@U?$pair@$$CBIV?$basic_string@DU?$char_traits@D@std@@V?$allocator@D@2@@std@@@std@@@1@@Z 101002e0 f i Skinchanger.obj
 0002:00051320       ??$?0ABV?$allocator@U?$pair@$$CBIV?$shared_ptr@X@std@@@std@@@std@@$$V@?$_Compressed_pair@V?$allocator@U?$_List_node@U?$pair@$$CBIV?$shared_ptr@X@std@@@std@@PAX@std@@@std@@V?$_List_val@U?$_List_simple_types@U?$pair@$$CBIV?$shared_ptr@X@std@@@std@@@std@@@2@$00@std@@QAE@U_One_then_variadic_args_t@1@ABV?$allocator@U?$pair@$$CBIV?$shared_ptr@X@std@@@std@@@1@@Z 10100320 f i Skinchanger.obj
 0002:00051370       ??$?0ABV?$allocator@U?$pair@$$CBIV?$shared_ptr@X@std@@@std@@@std@@X@?$_List_alloc@U?$_List_base_types@U?$pair@$$CBIV?$shared_ptr@X@std@@@std@@V?$allocator@U?$pair@$$CBIV?$shared_ptr@X@std@@@std@@@2@@std@@@std@@QAE@ABV?$allocator@U?$pair@$$CBIV?$shared_ptr@X@std@@@std@@@1@@Z 10100370 f i Skinchanger.obj
 0002:000513d0       ??$?0ABV?$allocator@U?$pair@$$CBIV?$shared_ptr@X@std@@@std@@@std@@X@?$_List_buy@U?$pair@$$CBIV?$shared_ptr@X@std@@@std@@V?$allocator@U?$pair@$$CBIV?$shared_ptr@X@std@@@std@@@2@@std@@QAE@ABV?$allocator@U?$pair@$$CBIV?$shared_ptr@X@std@@@std@@@1@@Z 101003d0 f i Skinchanger.obj
 0002:00051410       ??$?0ABV?$allocator@U?$pair@QBDI@std@@@std@@$$V@?$_Compressed_pair@V?$allocator@U?$_List_node@U?$pair@QBDI@std@@PAX@std@@@std@@V?$_List_val@U?$_List_simple_types@U?$pair@QBDI@std@@@std@@@2@$00@std@@QAE@U_One_then_variadic_args_t@1@ABV?$allocator@U?$pair@QBDI@std@@@1@@Z 10100410 f i Skinchanger.obj
 0002:00051460       ??$?0ABV?$allocator@U?$pair@QBDI@std@@@std@@X@?$_List_alloc@U?$_List_base_types@U?$pair@QBDI@std@@V?$allocator@U?$pair@QBDI@std@@@2@@std@@@std@@QAE@ABV?$allocator@U?$pair@QBDI@std@@@1@@Z 10100460 f i Skinchanger.obj
 0002:000514c0       ??$?0ABV?$allocator@U?$pair@QBDI@std@@@std@@X@?$_List_buy@U?$pair@QBDI@std@@V?$allocator@U?$pair@QBDI@std@@@2@@std@@QAE@ABV?$allocator@U?$pair@QBDI@std@@@1@@Z 101004c0 f i Skinchanger.obj
 0002:00051500       ??$?0ABV?$allocator@U?$pair@QBXI@std@@@std@@$$V@?$_Compressed_pair@V?$allocator@U?$_List_node@U?$pair@QBXI@std@@PAX@std@@@std@@V?$_List_val@U?$_List_simple_types@U?$pair@QBXI@std@@@std@@@2@$00@std@@QAE@U_One_then_variadic_args_t@1@ABV?$allocator@U?$pair@QBXI@std@@@1@@Z 10100500 f i Skinchanger.obj
 0002:00051550       ??$?0ABV?$allocator@U?$pair@QBXI@std@@@std@@X@?$_List_alloc@U?$_List_base_types@U?$pair@QBXI@std@@V?$allocator@U?$pair@QBXI@std@@@2@@std@@@std@@QAE@ABV?$allocator@U?$pair@QBXI@std@@@1@@Z 10100550 f i Skinchanger.obj
 0002:000515b0       ??$?0ABV?$allocator@U?$pair@QBXI@std@@@std@@X@?$_List_buy@U?$pair@QBXI@std@@V?$allocator@U?$pair@QBXI@std@@@2@@std@@QAE@ABV?$allocator@U?$pair@QBXI@std@@@1@@Z 101005b0 f i Skinchanger.obj
 0002:000515f0       ??$?0ABV?$allocator@Ubase_class_id@detail@traits@cereal@@@std@@$$V@?$_Compressed_pair@V?$allocator@U?$_List_node@Ubase_class_id@detail@traits@cereal@@PAX@std@@@std@@V?$_List_val@U?$_List_simple_types@Ubase_class_id@detail@traits@cereal@@@std@@@2@$00@std@@QAE@U_One_then_variadic_args_t@1@ABV?$allocator@Ubase_class_id@detail@traits@cereal@@@1@@Z 101005f0 f i Skinchanger.obj
 0002:00051640       ??$?0ABV?$allocator@Ubase_class_id@detail@traits@cereal@@@std@@X@?$_List_alloc@U?$_List_base_types@Ubase_class_id@detail@traits@cereal@@V?$allocator@Ubase_class_id@detail@traits@cereal@@@std@@@std@@@std@@QAE@ABV?$allocator@Ubase_class_id@detail@traits@cereal@@@1@@Z 10100640 f i Skinchanger.obj
 0002:000516a0       ??$?0ABV?$allocator@Ubase_class_id@detail@traits@cereal@@@std@@X@?$_List_buy@Ubase_class_id@detail@traits@cereal@@V?$allocator@Ubase_class_id@detail@traits@cereal@@@std@@@std@@QAE@ABV?$allocator@Ubase_class_id@detail@traits@cereal@@@1@@Z 101006a0 f i Skinchanger.obj
 0002:000516e0       ??$?0ABV?$allocator@V?$_List_unchecked_const_iterator@V?$_List_val@U?$_List_simple_types@Ubase_class_id@detail@traits@cereal@@@std@@@std@@U_Iterator_base0@2@@std@@@std@@$$V@?$_Compressed_pair@V?$allocator@V?$_List_unchecked_const_iterator@V?$_List_val@U?$_List_simple_types@Ubase_class_id@detail@traits@cereal@@@std@@@std@@U_Iterator_base0@2@@std@@@std@@V?$_Vector_val@U?$_Simple_types@V?$_List_unchecked_const_iterator@V?$_List_val@U?$_List_simple_types@Ubase_class_id@detail@traits@cereal@@@std@@@std@@U_Iterator_base0@2@@std@@@std@@@2@$00@std@@QAE@U_One_then_variadic_args_t@1@ABV?$allocator@V?$_List_unchecked_const_iterator@V?$_List_val@U?$_List_simple_types@Ubase_class_id@detail@traits@cereal@@@std@@@std@@U_Iterator_base0@2@@std@@@1@@Z 101006e0 f i Skinchanger.obj
 0002:00051720       ??$?0ABV?$allocator@V?$_List_unchecked_const_iterator@V?$_List_val@U?$_List_simple_types@Ubase_class_id@detail@traits@cereal@@@std@@@std@@U_Iterator_base0@2@@std@@@std@@X@?$_Vector_alloc@U?$_Vec_base_types@V?$_List_unchecked_const_iterator@V?$_List_val@U?$_List_simple_types@Ubase_class_id@detail@traits@cereal@@@std@@@std@@U_Iterator_base0@2@@std@@V?$allocator@V?$_List_unchecked_const_iterator@V?$_List_val@U?$_List_simple_types@Ubase_class_id@detail@traits@cereal@@@std@@@std@@U_Iterator_base0@2@@std@@@2@@std@@@std@@QAE@ABV?$allocator@V?$_List_unchecked_const_iterator@V?$_List_val@U?$_List_simple_types@Ubase_class_id@detail@traits@cereal@@@std@@@std@@U_Iterator_base0@2@@std@@@1@@Z 10100720 f i Skinchanger.obj
 0002:00051760       ??$?0ABV?$allocator@V?$_List_unchecked_const_iterator@V?$_List_val@U?$_List_simple_types@_K@std@@@std@@U_Iterator_base0@2@@std@@@std@@$$V@?$_Compressed_pair@V?$allocator@V?$_List_unchecked_const_iterator@V?$_List_val@U?$_List_simple_types@_K@std@@@std@@U_Iterator_base0@2@@std@@@std@@V?$_Vector_val@U?$_Simple_types@V?$_List_unchecked_const_iterator@V?$_List_val@U?$_List_simple_types@_K@std@@@std@@U_Iterator_base0@2@@std@@@std@@@2@$00@std@@QAE@U_One_then_variadic_args_t@1@ABV?$allocator@V?$_List_unchecked_const_iterator@V?$_List_val@U?$_List_simple_types@_K@std@@@std@@U_Iterator_base0@2@@std@@@1@@Z 10100760 f i Skinchanger.obj
 0002:000517a0       ??$?0ABV?$allocator@V?$_List_unchecked_const_iterator@V?$_List_val@U?$_List_simple_types@_K@std@@@std@@U_Iterator_base0@2@@std@@@std@@X@?$_Vector_alloc@U?$_Vec_base_types@V?$_List_unchecked_const_iterator@V?$_List_val@U?$_List_simple_types@_K@std@@@std@@U_Iterator_base0@2@@std@@V?$allocator@V?$_List_unchecked_const_iterator@V?$_List_val@U?$_List_simple_types@_K@std@@@std@@U_Iterator_base0@2@@std@@@2@@std@@@std@@QAE@ABV?$allocator@V?$_List_unchecked_const_iterator@V?$_List_val@U?$_List_simple_types@_K@std@@@std@@U_Iterator_base0@2@@std@@@1@@Z 101007a0 f i Skinchanger.obj
 0002:000517e0       ??$?0ABV?$allocator@V?$_List_unchecked_iterator@V?$_List_val@U?$_List_simple_types@U?$pair@$$CBII@std@@@std@@@std@@@std@@@std@@$$V@?$_Compressed_pair@V?$allocator@V?$_List_unchecked_iterator@V?$_List_val@U?$_List_simple_types@U?$pair@$$CBII@std@@@std@@@std@@@std@@@std@@V?$_Vector_val@U?$_Simple_types@V?$_List_unchecked_iterator@V?$_List_val@U?$_List_simple_types@U?$pair@$$CBII@std@@@std@@@std@@@std@@@std@@@2@$00@std@@QAE@U_One_then_variadic_args_t@1@ABV?$allocator@V?$_List_unchecked_iterator@V?$_List_val@U?$_List_simple_types@U?$pair@$$CBII@std@@@std@@@std@@@std@@@1@@Z 101007e0 f i Skinchanger.obj
 0002:00051820       ??$?0ABV?$allocator@V?$_List_unchecked_iterator@V?$_List_val@U?$_List_simple_types@U?$pair@$$CBII@std@@@std@@@std@@@std@@@std@@X@?$_Vector_alloc@U?$_Vec_base_types@V?$_List_unchecked_iterator@V?$_List_val@U?$_List_simple_types@U?$pair@$$CBII@std@@@std@@@std@@@std@@V?$allocator@V?$_List_unchecked_iterator@V?$_List_val@U?$_List_simple_types@U?$pair@$$CBII@std@@@std@@@std@@@std@@@2@@std@@@std@@QAE@ABV?$allocator@V?$_List_unchecked_iterator@V?$_List_val@U?$_List_simple_types@U?$pair@$$CBII@std@@@std@@@std@@@std@@@1@@Z 10100820 f i Skinchanger.obj
 0002:00051860       ??$?0ABV?$allocator@V?$_List_unchecked_iterator@V?$_List_val@U?$_List_simple_types@U?$pair@$$CBIV?$basic_string@DU?$char_traits@D@std@@V?$allocator@D@2@@std@@@std@@@std@@@std@@@std@@@std@@$$V@?$_Compressed_pair@V?$allocator@V?$_List_unchecked_iterator@V?$_List_val@U?$_List_simple_types@U?$pair@$$CBIV?$basic_string@DU?$char_traits@D@std@@V?$allocator@D@2@@std@@@std@@@std@@@std@@@std@@@std@@V?$_Vector_val@U?$_Simple_types@V?$_List_unchecked_iterator@V?$_List_val@U?$_List_simple_types@U?$pair@$$CBIV?$basic_string@DU?$char_traits@D@std@@V?$allocator@D@2@@std@@@std@@@std@@@std@@@std@@@std@@@2@$00@std@@QAE@U_One_then_variadic_args_t@1@ABV?$allocator@V?$_List_unchecked_iterator@V?$_List_val@U?$_List_simple_types@U?$pair@$$CBIV?$basic_string@DU?$char_traits@D@std@@V?$allocator@D@2@@std@@@std@@@std@@@std@@@std@@@1@@Z 10100860 f i Skinchanger.obj
 0002:000518a0       ??$?0ABV?$allocator@V?$_List_unchecked_iterator@V?$_List_val@U?$_List_simple_types@U?$pair@$$CBIV?$basic_string@DU?$char_traits@D@std@@V?$allocator@D@2@@std@@@std@@@std@@@std@@@std@@@std@@X@?$_Vector_alloc@U?$_Vec_base_types@V?$_List_unchecked_iterator@V?$_List_val@U?$_List_simple_types@U?$pair@$$CBIV?$basic_string@DU?$char_traits@D@std@@V?$allocator@D@2@@std@@@std@@@std@@@std@@@std@@V?$allocator@V?$_List_unchecked_iterator@V?$_List_val@U?$_List_simple_types@U?$pair@$$CBIV?$basic_string@DU?$char_traits@D@std@@V?$allocator@D@2@@std@@@std@@@std@@@std@@@std@@@2@@std@@@std@@QAE@ABV?$allocator@V?$_List_unchecked_iterator@V?$_List_val@U?$_List_simple_types@U?$pair@$$CBIV?$basic_string@DU?$char_traits@D@std@@V?$allocator@D@2@@std@@@std@@@std@@@std@@@std@@@1@@Z 101008a0 f i Skinchanger.obj
 0002:000518e0       ??$?0ABV?$allocator@V?$_List_unchecked_iterator@V?$_List_val@U?$_List_simple_types@U?$pair@$$CBIV?$shared_ptr@X@std@@@std@@@std@@@std@@@std@@@std@@$$V@?$_Compressed_pair@V?$allocator@V?$_List_unchecked_iterator@V?$_List_val@U?$_List_simple_types@U?$pair@$$CBIV?$shared_ptr@X@std@@@std@@@std@@@std@@@std@@@std@@V?$_Vector_val@U?$_Simple_types@V?$_List_unchecked_iterator@V?$_List_val@U?$_List_simple_types@U?$pair@$$CBIV?$shared_ptr@X@std@@@std@@@std@@@std@@@std@@@std@@@2@$00@std@@QAE@U_One_then_variadic_args_t@1@ABV?$allocator@V?$_List_unchecked_iterator@V?$_List_val@U?$_List_simple_types@U?$pair@$$CBIV?$shared_ptr@X@std@@@std@@@std@@@std@@@std@@@1@@Z 101008e0 f i Skinchanger.obj
 0002:00051920       ??$?0ABV?$allocator@V?$_List_unchecked_iterator@V?$_List_val@U?$_List_simple_types@U?$pair@$$CBIV?$shared_ptr@X@std@@@std@@@std@@@std@@@std@@@std@@X@?$_Vector_alloc@U?$_Vec_base_types@V?$_List_unchecked_iterator@V?$_List_val@U?$_List_simple_types@U?$pair@$$CBIV?$shared_ptr@X@std@@@std@@@std@@@std@@@std@@V?$allocator@V?$_List_unchecked_iterator@V?$_List_val@U?$_List_simple_types@U?$pair@$$CBIV?$shared_ptr@X@std@@@std@@@std@@@std@@@std@@@2@@std@@@std@@QAE@ABV?$allocator@V?$_List_unchecked_iterator@V?$_List_val@U?$_List_simple_types@U?$pair@$$CBIV?$shared_ptr@X@std@@@std@@@std@@@std@@@std@@@1@@Z 10100920 f i Skinchanger.obj
 0002:00051960       ??$?0ABV?$allocator@V?$_List_unchecked_iterator@V?$_List_val@U?$_List_simple_types@U?$pair@QBDI@std@@@std@@@std@@@std@@@std@@$$V@?$_Compressed_pair@V?$allocator@V?$_List_unchecked_iterator@V?$_List_val@U?$_List_simple_types@U?$pair@QBDI@std@@@std@@@std@@@std@@@std@@V?$_Vector_val@U?$_Simple_types@V?$_List_unchecked_iterator@V?$_List_val@U?$_List_simple_types@U?$pair@QBDI@std@@@std@@@std@@@std@@@std@@@2@$00@std@@QAE@U_One_then_variadic_args_t@1@ABV?$allocator@V?$_List_unchecked_iterator@V?$_List_val@U?$_List_simple_types@U?$pair@QBDI@std@@@std@@@std@@@std@@@1@@Z 10100960 f i Skinchanger.obj
 0002:000519a0       ??$?0ABV?$allocator@V?$_List_unchecked_iterator@V?$_List_val@U?$_List_simple_types@U?$pair@QBDI@std@@@std@@@std@@@std@@@std@@X@?$_Vector_alloc@U?$_Vec_base_types@V?$_List_unchecked_iterator@V?$_List_val@U?$_List_simple_types@U?$pair@QBDI@std@@@std@@@std@@@std@@V?$allocator@V?$_List_unchecked_iterator@V?$_List_val@U?$_List_simple_types@U?$pair@QBDI@std@@@std@@@std@@@std@@@2@@std@@@std@@QAE@ABV?$allocator@V?$_List_unchecked_iterator@V?$_List_val@U?$_List_simple_types@U?$pair@QBDI@std@@@std@@@std@@@std@@@1@@Z 101009a0 f i Skinchanger.obj
 0002:000519e0       ??$?0ABV?$allocator@V?$_List_unchecked_iterator@V?$_List_val@U?$_List_simple_types@U?$pair@QBXI@std@@@std@@@std@@@std@@@std@@$$V@?$_Compressed_pair@V?$allocator@V?$_List_unchecked_iterator@V?$_List_val@U?$_List_simple_types@U?$pair@QBXI@std@@@std@@@std@@@std@@@std@@V?$_Vector_val@U?$_Simple_types@V?$_List_unchecked_iterator@V?$_List_val@U?$_List_simple_types@U?$pair@QBXI@std@@@std@@@std@@@std@@@std@@@2@$00@std@@QAE@U_One_then_variadic_args_t@1@ABV?$allocator@V?$_List_unchecked_iterator@V?$_List_val@U?$_List_simple_types@U?$pair@QBXI@std@@@std@@@std@@@std@@@1@@Z 101009e0 f i Skinchanger.obj
 0002:00051a20       ??$?0ABV?$allocator@V?$_List_unchecked_iterator@V?$_List_val@U?$_List_simple_types@U?$pair@QBXI@std@@@std@@@std@@@std@@@std@@X@?$_Vector_alloc@U?$_Vec_base_types@V?$_List_unchecked_iterator@V?$_List_val@U?$_List_simple_types@U?$pair@QBXI@std@@@std@@@std@@@std@@V?$allocator@V?$_List_unchecked_iterator@V?$_List_val@U?$_List_simple_types@U?$pair@QBXI@std@@@std@@@std@@@std@@@2@@std@@@std@@QAE@ABV?$allocator@V?$_List_unchecked_iterator@V?$_List_val@U?$_List_simple_types@U?$pair@QBXI@std@@@std@@@std@@@std@@@1@@Z 10100a20 f i Skinchanger.obj
 0002:00051a60       ??$?0ABV?$allocator@_K@std@@$$V@?$_Compressed_pair@V?$allocator@U?$_List_node@_KPAX@std@@@std@@V?$_List_val@U?$_List_simple_types@_K@std@@@2@$00@std@@QAE@U_One_then_variadic_args_t@1@ABV?$allocator@_K@1@@Z 10100a60 f i Skinchanger.obj
 0002:00051ab0       ??$?0ABV?$allocator@_K@std@@X@?$_List_alloc@U?$_List_base_types@_KV?$allocator@_K@std@@@std@@@std@@QAE@ABV?$allocator@_K@1@@Z 10100ab0 f i Skinchanger.obj
 0002:00051b10       ??$?0ABV?$allocator@_K@std@@X@?$_List_buy@_KV?$allocator@_K@std@@@std@@QAE@ABV?$allocator@_K@1@@Z 10100b10 f i Skinchanger.obj
 0002:00051b50       ??$?0H$$V$0A@@?$tuple@$$QAH@std@@QAE@$$QAH@Z 10100b50 f i Skinchanger.obj
 0002:00051ba0       ??$?0H@?$_Tuple_val@$$QAH@std@@QAE@$$QAH@Z 10100ba0 f i Skinchanger.obj
 0002:00051be0       ??$?0HUWeaponItemCfg_t@@$0A@@?$pair@$$CBHUWeaponItemCfg_t@@@std@@QAE@$$QAH$$QAUWeaponItemCfg_t@@@Z 10100be0 f i Skinchanger.obj
 0002:00051c40       ??$?0I@?$allocator@PAI@std@@QAE@ABV?$allocator@I@1@@Z 10100c40 f i Skinchanger.obj
 0002:00051c60       ??$?0I@?$allocator@U_Container_proxy@std@@@std@@QAE@ABV?$allocator@I@1@@Z 10100c60 f i Skinchanger.obj
 0002:00051c80       ??$?0U?$pair@$$CBII@std@@@?$allocator@U?$_List_node@U?$pair@$$CBII@std@@PAX@std@@@std@@QAE@ABV?$allocator@U?$pair@$$CBII@std@@@1@@Z 10100c80 f i Skinchanger.obj
 0002:00051ca0       ??$?0U?$pair@$$CBII@std@@@?$allocator@V?$_List_unchecked_iterator@V?$_List_val@U?$_List_simple_types@U?$pair@$$CBII@std@@@std@@@std@@@std@@@std@@QAE@ABV?$allocator@U?$pair@$$CBII@std@@@1@@Z 10100ca0 f i Skinchanger.obj
 0002:00051cc0       ??$?0U?$pair@$$CBIV?$basic_string@DU?$char_traits@D@std@@V?$allocator@D@2@@std@@@std@@@?$allocator@U?$_List_node@U?$pair@$$CBIV?$basic_string@DU?$char_traits@D@std@@V?$allocator@D@2@@std@@@std@@PAX@std@@@std@@QAE@ABV?$allocator@U?$pair@$$CBIV?$basic_string@DU?$char_traits@D@std@@V?$allocator@D@2@@std@@@std@@@1@@Z 10100cc0 f i Skinchanger.obj
 0002:00051ce0       ??$?0U?$pair@$$CBIV?$basic_string@DU?$char_traits@D@std@@V?$allocator@D@2@@std@@@std@@@?$allocator@V?$_List_unchecked_iterator@V?$_List_val@U?$_List_simple_types@U?$pair@$$CBIV?$basic_string@DU?$char_traits@D@std@@V?$allocator@D@2@@std@@@std@@@std@@@std@@@std@@@std@@QAE@ABV?$allocator@U?$pair@$$CBIV?$basic_string@DU?$char_traits@D@std@@V?$allocator@D@2@@std@@@std@@@1@@Z 10100ce0 f i Skinchanger.obj
 0002:00051d00       ??$?0U?$pair@$$CBIV?$shared_ptr@X@std@@@std@@@?$allocator@U?$_List_node@U?$pair@$$CBIV?$shared_ptr@X@std@@@std@@PAX@std@@@std@@QAE@ABV?$allocator@U?$pair@$$CBIV?$shared_ptr@X@std@@@std@@@1@@Z 10100d00 f i Skinchanger.obj
 0002:00051d20       ??$?0U?$pair@$$CBIV?$shared_ptr@X@std@@@std@@@?$allocator@V?$_List_unchecked_iterator@V?$_List_val@U?$_List_simple_types@U?$pair@$$CBIV?$shared_ptr@X@std@@@std@@@std@@@std@@@std@@@std@@QAE@ABV?$allocator@U?$pair@$$CBIV?$shared_ptr@X@std@@@std@@@1@@Z 10100d20 f i Skinchanger.obj
 0002:00051d40       ??$?0U?$pair@QBDI@std@@@?$allocator@U?$_List_node@U?$pair@QBDI@std@@PAX@std@@@std@@QAE@ABV?$allocator@U?$pair@QBDI@std@@@1@@Z 10100d40 f i Skinchanger.obj
 0002:00051d60       ??$?0U?$pair@QBDI@std@@@?$allocator@V?$_List_unchecked_iterator@V?$_List_val@U?$_List_simple_types@U?$pair@QBDI@std@@@std@@@std@@@std@@@std@@QAE@ABV?$allocator@U?$pair@QBDI@std@@@1@@Z 10100d60 f i Skinchanger.obj
 0002:00051d80       ??$?0U?$pair@QBXI@std@@@?$allocator@U?$_List_node@U?$pair@QBXI@std@@PAX@std@@@std@@QAE@ABV?$allocator@U?$pair@QBXI@std@@@1@@Z 10100d80 f i Skinchanger.obj
 0002:00051da0       ??$?0U?$pair@QBXI@std@@@?$allocator@V?$_List_unchecked_iterator@V?$_List_val@U?$_List_simple_types@U?$pair@QBXI@std@@@std@@@std@@@std@@@std@@QAE@ABV?$allocator@U?$pair@QBXI@std@@@1@@Z 10100da0 f i Skinchanger.obj
 0002:00051dc0       ??$?0U_Exact_args_t@std@@ABH$$V$0A@@?$tuple@ABH@std@@QAE@U_Exact_args_t@1@ABH@Z 10100dc0 f i Skinchanger.obj
 0002:00051e10       ??$?0U_Exact_args_t@std@@H$$V$0A@@?$tuple@$$QAH@std@@QAE@U_Exact_args_t@1@$$QAH@Z 10100e10 f i Skinchanger.obj
 0002:00051e60       ??$?0Ubase_class_id@detail@traits@cereal@@@?$allocator@U?$_List_node@Ubase_class_id@detail@traits@cereal@@PAX@std@@@std@@QAE@ABV?$allocator@Ubase_class_id@detail@traits@cereal@@@1@@Z 10100e60 f i Skinchanger.obj
 0002:00051e80       ??$?0Ubase_class_id@detail@traits@cereal@@@?$allocator@V?$_List_unchecked_const_iterator@V?$_List_val@U?$_List_simple_types@Ubase_class_id@detail@traits@cereal@@@std@@@std@@U_Iterator_base0@2@@std@@@std@@QAE@ABV?$allocator@Ubase_class_id@detail@traits@cereal@@@1@@Z 10100e80 f i Skinchanger.obj
 0002:00051ea0       ??$?0V?$_List_iterator@V?$_List_val@U?$_List_simple_types@U?$pair@$$CBHUWeaponItemCfg_t@@@std@@@std@@@std@@@std@@_N$0A@@?$pair@V?$_List_iterator@V?$_List_val@U?$_List_simple_types@U?$pair@$$CBHUWeaponItemCfg_t@@@std@@@std@@@std@@@std@@_N@std@@QAE@$$QAV?$_List_iterator@V?$_List_val@U?$_List_simple_types@U?$pair@$$CBHUWeaponItemCfg_t@@@std@@@std@@@std@@@1@$$QA_N@Z 10100ea0 f i Skinchanger.obj
 0002:00051ef0       ??$?0V?$tuple@$$QAH@std@@V?$tuple@$$V@1@$0A@$$Z$S@?$pair@$$CBHUWeaponItemCfg_t@@@std@@QAE@AAV?$tuple@$$QAH@1@AAV?$tuple@$$V@1@U?$integer_sequence@I$0A@@1@U?$integer_sequence@I$S@1@@Z 10100ef0 f i Skinchanger.obj
 0002:00051f60       ??$?0V?$tuple@ABH@std@@V?$tuple@$$V@1@$0A@$$Z$S@?$pair@$$CBHUWeaponItemCfg_t@@@std@@QAE@AAV?$tuple@ABH@1@AAV?$tuple@$$V@1@U?$integer_sequence@I$0A@@1@U?$integer_sequence@I$S@1@@Z 10100f60 f i Skinchanger.obj
 0002:00051fd0       ??$?0W4NodeType@JSONOutputArchive@cereal@@@?$allocator@PAW4NodeType@JSONOutputArchive@cereal@@@std@@QAE@ABV?$allocator@W4NodeType@JSONOutputArchive@cereal@@@1@@Z 10100fd0 f i Skinchanger.obj
 0002:00051ff0       ??$?0W4NodeType@JSONOutputArchive@cereal@@@?$allocator@U_Container_proxy@std@@@std@@QAE@ABV?$allocator@W4NodeType@JSONOutputArchive@cereal@@@1@@Z 10100ff0 f i Skinchanger.obj
 0002:00052010       ??$?0_K@?$allocator@U?$_List_node@_KPAX@std@@@std@@QAE@ABV?$allocator@_K@1@@Z 10101010 f i Skinchanger.obj
 0002:00052030       ??$?0_K@?$allocator@V?$_List_unchecked_const_iterator@V?$_List_val@U?$_List_simple_types@_K@std@@@std@@U_Iterator_base0@2@@std@@@std@@QAE@ABV?$allocator@_K@1@@Z 10101030 f i Skinchanger.obj
 0002:00052050       ??$?0_N@?$GenericValue@U?$UTF8@D@rapidjson@@V?$MemoryPoolAllocator@VCrtAllocator@rapidjson@@@2@@rapidjson@@QAE@_NPAX@Z 10101050 f i Skinchanger.obj
 0002:000520b0       ??$?8DU?$char_traits@D@std@@V?$allocator@D@1@@std@@YA_NABV?$basic_string@DU?$char_traits@D@std@@V?$allocator@D@2@@0@QBD@Z 101010b0 f i Skinchanger.obj
 0002:000520e0       ??$?RAAH@?$InputArchive@VJSONInputArchive@cereal@@$0A@@cereal@@QAEAAVJSONInputArchive@1@AAH@Z 101010e0 f i Skinchanger.obj
 0002:00052120       ??$?RAAH@?$OutputArchive@VJSONOutputArchive@cereal@@$0A@@cereal@@QAEAAVJSONOutputArchive@1@AAH@Z 10101120 f i Skinchanger.obj
 0002:00052160       ??$?RAAM@?$InputArchive@VJSONInputArchive@cereal@@$0A@@cereal@@QAEAAVJSONInputArchive@1@AAM@Z 10101160 f i Skinchanger.obj
 0002:000521a0       ??$?RAAM@?$OutputArchive@VJSONOutputArchive@cereal@@$0A@@cereal@@QAEAAVJSONOutputArchive@1@AAM@Z 101011a0 f i Skinchanger.obj
 0002:000521e0       ??$?RAAUGloveItemCfg_t@@@?$InputArchive@VJSONInputArchive@cereal@@$0A@@cereal@@QAEAAVJSONInputArchive@1@AAUGloveItemCfg_t@@@Z 101011e0 f i Skinchanger.obj
 0002:00052220       ??$?RAAUGloveItemCfg_t@@@?$OutputArchive@VJSONOutputArchive@cereal@@$0A@@cereal@@QAEAAVJSONOutputArchive@1@AAUGloveItemCfg_t@@@Z 10101220 f i Skinchanger.obj
 0002:00052260       ??$?RAAUKnifeItemCfg_t@@@?$InputArchive@VJSONInputArchive@cereal@@$0A@@cereal@@QAEAAVJSONInputArchive@1@AAUKnifeItemCfg_t@@@Z 10101260 f i Skinchanger.obj
 0002:000522a0       ??$?RAAUKnifeItemCfg_t@@@?$OutputArchive@VJSONOutputArchive@cereal@@$0A@@cereal@@QAEAAVJSONOutputArchive@1@AAUKnifeItemCfg_t@@@Z 101012a0 f i Skinchanger.obj
 0002:000522e0       ??$?RAAUStickerCfg_t@@@?$InputArchive@VJSONInputArchive@cereal@@$0A@@cereal@@QAEAAVJSONInputArchive@1@AAUStickerCfg_t@@@Z 101012e0 f i Skinchanger.obj
 0002:00052320       ??$?RAAUWeaponItemCfg_t@@@?$InputArchive@VJSONInputArchive@cereal@@$0A@@cereal@@QAEAAVJSONInputArchive@1@AAUWeaponItemCfg_t@@@Z 10101320 f i Skinchanger.obj
 0002:00052360       ??$?RAAV?$array@UStickerCfg_t@@$03@std@@@?$InputArchive@VJSONInputArchive@cereal@@$0A@@cereal@@QAEAAVJSONInputArchive@1@AAV?$array@UStickerCfg_t@@$03@std@@@Z 10101360 f i Skinchanger.obj
 0002:000523a0       ??$?RAAV?$array@UStickerCfg_t@@$03@std@@@?$OutputArchive@VJSONOutputArchive@cereal@@$0A@@cereal@@QAEAAVJSONOutputArchive@1@AAV?$array@UStickerCfg_t@@$03@std@@@Z 101013a0 f i Skinchanger.obj
 0002:000523e0       ??$?RAAV?$basic_string@DU?$char_traits@D@std@@V?$allocator@D@2@@std@@@?$InputArchive@VJSONInputArchive@cereal@@$0A@@cereal@@QAEAAVJSONInputArchive@1@AAV?$basic_string@DU?$char_traits@D@std@@V?$allocator@D@2@@std@@@Z 101013e0 f i Skinchanger.obj
 0002:00052420       ??$?RAAV?$basic_string@DU?$char_traits@D@std@@V?$allocator@D@2@@std@@@?$OutputArchive@VJSONOutputArchive@cereal@@$0A@@cereal@@QAEAAVJSONOutputArchive@1@AAV?$basic_string@DU?$char_traits@D@std@@V?$allocator@D@2@@std@@@Z 10101420 f i Skinchanger.obj
 0002:00052460       ??$?RAAV?$unordered_map@HUWeaponItemCfg_t@@U?$hash@H@std@@U?$equal_to@H@3@V?$allocator@U?$pair@$$CBHUWeaponItemCfg_t@@@std@@@3@@std@@@?$InputArchive@VJSONInputArchive@cereal@@$0A@@cereal@@QAEAAVJSONInputArchive@1@AAV?$unordered_map@HUWeaponItemCfg_t@@U?$hash@H@std@@U?$equal_to@H@3@V?$allocator@U?$pair@$$CBHUWeaponItemCfg_t@@@std@@@3@@std@@@Z 10101460 f i Skinchanger.obj
 0002:000524a0       ??$?RAAV?$unordered_map@HUWeaponItemCfg_t@@U?$hash@H@std@@U?$equal_to@H@3@V?$allocator@U?$pair@$$CBHUWeaponItemCfg_t@@@std@@@3@@std@@@?$OutputArchive@VJSONOutputArchive@cereal@@$0A@@cereal@@QAEAAVJSONOutputArchive@1@AAV?$unordered_map@HUWeaponItemCfg_t@@U?$hash@H@std@@U?$equal_to@H@3@V?$allocator@U?$pair@$$CBHUWeaponItemCfg_t@@@std@@@3@@std@@@Z 101014a0 f i Skinchanger.obj
 0002:000524e0       ??$?RABH@?$OutputArchive@VJSONOutputArchive@cereal@@$0A@@cereal@@QAEAAVJSONOutputArchive@1@ABH@Z 101014e0 f i Skinchanger.obj
 0002:00052520       ??$?RABUStickerCfg_t@@@?$OutputArchive@VJSONOutputArchive@cereal@@$0A@@cereal@@QAEAAVJSONOutputArchive@1@ABUStickerCfg_t@@@Z 10101520 f i Skinchanger.obj
 0002:00052560       ??$?RABUWeaponItemCfg_t@@@?$OutputArchive@VJSONOutputArchive@cereal@@$0A@@cereal@@QAEAAVJSONOutputArchive@1@ABUWeaponItemCfg_t@@@Z 10101560 f i Skinchanger.obj
 0002:000525a0       ??$?RU?$MapItem@AAHAAUWeaponItemCfg_t@@@cereal@@@?$InputArchive@VJSONInputArchive@cereal@@$0A@@cereal@@QAEAAVJSONInputArchive@1@$$QAU?$MapItem@AAHAAUWeaponItemCfg_t@@@1@@Z 101015a0 f i Skinchanger.obj
 0002:000525e0       ??$?RU?$MapItem@ABHABUWeaponItemCfg_t@@@cereal@@@?$OutputArchive@VJSONOutputArchive@cereal@@$0A@@cereal@@QAEAAVJSONOutputArchive@1@$$QAU?$MapItem@ABHABUWeaponItemCfg_t@@@1@@Z 101015e0 f i Skinchanger.obj
 0002:00052620       ??$?RV?$NameValuePair@AAH@cereal@@V01@V01@V?$NameValuePair@AAM@1@V01@V?$NameValuePair@AAV?$basic_string@DU?$char_traits@D@std@@V?$allocator@D@2@@std@@@1@@?$InputArchive@VJSONInputArchive@cereal@@$0A@@cereal@@QAEAAVJSONInputArchive@1@$$QAV?$NameValuePair@AAH@1@00$$QAV?$NameValuePair@AAM@1@0$$QAV?$NameValuePair@AAV?$basic_string@DU?$char_traits@D@std@@V?$allocator@D@2@@std@@@1@@Z 10101620 f i Skinchanger.obj
 0002:000526b0       ??$?RV?$NameValuePair@AAH@cereal@@V01@V01@V?$NameValuePair@AAM@1@V01@V?$NameValuePair@AAV?$basic_string@DU?$char_traits@D@std@@V?$allocator@D@2@@std@@@1@@?$OutputArchive@VJSONOutputArchive@cereal@@$0A@@cereal@@QAEAAVJSONOutputArchive@1@$$QAV?$NameValuePair@AAH@1@00$$QAV?$NameValuePair@AAM@1@0$$QAV?$NameValuePair@AAV?$basic_string@DU?$char_traits@D@std@@V?$allocator@D@2@@std@@@1@@Z 101016b0 f i Skinchanger.obj
 0002:00052750       ??$?RV?$NameValuePair@AAH@cereal@@V01@V?$NameValuePair@AAM@1@@?$InputArchive@VJSONInputArchive@cereal@@$0A@@cereal@@QAEAAVJSONInputArchive@1@$$QAV?$NameValuePair@AAH@1@0$$QAV?$NameValuePair@AAM@1@@Z 10101750 f i Skinchanger.obj
 0002:000527b0       ??$?RV?$NameValuePair@AAH@cereal@@V01@V?$NameValuePair@AAM@1@@?$OutputArchive@VJSONOutputArchive@cereal@@$0A@@cereal@@QAEAAVJSONOutputArchive@1@$$QAV?$NameValuePair@AAH@1@0$$QAV?$NameValuePair@AAM@1@@Z 101017b0 f i Skinchanger.obj
 0002:00052810       ??$?RV?$NameValuePair@AAH@cereal@@V01@V?$NameValuePair@AAM@1@V01@V?$NameValuePair@AAV?$basic_string@DU?$char_traits@D@std@@V?$allocator@D@2@@std@@@1@V?$NameValuePair@AAV?$array@UStickerCfg_t@@$03@std@@@1@@?$InputArchive@VJSONInputArchive@cereal@@$0A@@cereal@@QAEAAVJSONInputArchive@1@$$QAV?$NameValuePair@AAH@1@0$$QAV?$NameValuePair@AAM@1@0$$QAV?$NameValuePair@AAV?$basic_string@DU?$char_traits@D@std@@V?$allocator@D@2@@std@@@1@$$QAV?$NameValuePair@AAV?$array@UStickerCfg_t@@$03@std@@@1@@Z 10101810 f i Skinchanger.obj
 0002:000528a0       ??$?RV?$NameValuePair@AAH@cereal@@V01@V?$NameValuePair@AAM@1@V01@V?$NameValuePair@AAV?$basic_string@DU?$char_traits@D@std@@V?$allocator@D@2@@std@@@1@V?$NameValuePair@AAV?$array@UStickerCfg_t@@$03@std@@@1@@?$OutputArchive@VJSONOutputArchive@cereal@@$0A@@cereal@@QAEAAVJSONOutputArchive@1@$$QAV?$NameValuePair@AAH@1@0$$QAV?$NameValuePair@AAM@1@0$$QAV?$NameValuePair@AAV?$basic_string@DU?$char_traits@D@std@@V?$allocator@D@2@@std@@@1@$$QAV?$NameValuePair@AAV?$array@UStickerCfg_t@@$03@std@@@1@@Z 101018a0 f i Skinchanger.obj
 0002:00052940       ??$?RV?$NameValuePair@AAH@cereal@@V?$NameValuePair@AAM@1@V21@V21@@?$InputArchive@VJSONInputArchive@cereal@@$0A@@cereal@@QAEAAVJSONInputArchive@1@$$QAV?$NameValuePair@AAH@1@$$QAV?$NameValuePair@AAM@1@11@Z 10101940 f i Skinchanger.obj
 0002:000529b0       ??$?RV?$NameValuePair@AAH@cereal@@V?$NameValuePair@AAM@1@V21@V21@@?$OutputArchive@VJSONOutputArchive@cereal@@$0A@@cereal@@QAEAAVJSONOutputArchive@1@$$QAV?$NameValuePair@AAH@1@$$QAV?$NameValuePair@AAM@1@11@Z 101019b0 f i Skinchanger.obj
 0002:00052a20       ??$?RV?$NameValuePair@AAH@cereal@@V?$NameValuePair@AAUWeaponItemCfg_t@@@1@@?$InputArchive@VJSONInputArchive@cereal@@$0A@@cereal@@QAEAAVJSONInputArchive@1@$$QAV?$NameValuePair@AAH@1@$$QAV?$NameValuePair@AAUWeaponItemCfg_t@@@1@@Z 10101a20 f i Skinchanger.obj
 0002:00052a70       ??$?RV?$NameValuePair@AAV?$unordered_map@HUWeaponItemCfg_t@@U?$hash@H@std@@U?$equal_to@H@3@V?$allocator@U?$pair@$$CBHUWeaponItemCfg_t@@@std@@@3@@std@@@cereal@@V?$NameValuePair@AAUKnifeItemCfg_t@@@1@V?$NameValuePair@AAUGloveItemCfg_t@@@1@@?$InputArchive@VJSONInputArchive@cereal@@$0A@@cereal@@QAEAAVJSONInputArchive@1@$$QAV?$NameValuePair@AAV?$unordered_map@HUWeaponItemCfg_t@@U?$hash@H@std@@U?$equal_to@H@3@V?$allocator@U?$pair@$$CBHUWeaponItemCfg_t@@@std@@@3@@std@@@1@$$QAV?$NameValuePair@AAUKnifeItemCfg_t@@@1@$$QAV?$NameValuePair@AAUGloveItemCfg_t@@@1@@Z 10101a70 f i Skinchanger.obj
 0002:00052ad0       ??$?RV?$NameValuePair@AAV?$unordered_map@HUWeaponItemCfg_t@@U?$hash@H@std@@U?$equal_to@H@3@V?$allocator@U?$pair@$$CBHUWeaponItemCfg_t@@@std@@@3@@std@@@cereal@@V?$NameValuePair@AAUKnifeItemCfg_t@@@1@V?$NameValuePair@AAUGloveItemCfg_t@@@1@@?$OutputArchive@VJSONOutputArchive@cereal@@$0A@@cereal@@QAEAAVJSONOutputArchive@1@$$QAV?$NameValuePair@AAV?$unordered_map@HUWeaponItemCfg_t@@U?$hash@H@std@@U?$equal_to@H@3@V?$allocator@U?$pair@$$CBHUWeaponItemCfg_t@@@std@@@3@@std@@@1@$$QAV?$NameValuePair@AAUKnifeItemCfg_t@@@1@$$QAV?$NameValuePair@AAUGloveItemCfg_t@@@1@@Z 10101ad0 f i Skinchanger.obj
 0002:00052b30       ??$?RV?$NameValuePair@ABH@cereal@@V?$NameValuePair@ABUWeaponItemCfg_t@@@1@@?$OutputArchive@VJSONOutputArchive@cereal@@$0A@@cereal@@QAEAAVJSONOutputArchive@1@$$QAV?$NameValuePair@ABH@1@$$QAV?$NameValuePair@ABUWeaponItemCfg_t@@@1@@Z 10101b30 f i Skinchanger.obj
 0002:00052b80       ??$?RV?$SizeTag@AA_K@cereal@@@?$InputArchive@VJSONInputArchive@cereal@@$0A@@cereal@@QAEAAVJSONInputArchive@1@$$QAV?$SizeTag@AA_K@1@@Z 10101b80 f i Skinchanger.obj
 0002:00052bc0       ??$?RV?$SizeTag@_K@cereal@@@?$OutputArchive@VJSONOutputArchive@cereal@@$0A@@cereal@@QAEAAVJSONOutputArchive@1@$$QAV?$SizeTag@_K@1@@Z 10101bc0 f i Skinchanger.obj
 0002:00052c00       ??$Consume@V?$BasicIStreamWrapper@V?$basic_istream@DU?$char_traits@D@std@@@std@@@rapidjson@@@?$GenericReader@U?$UTF8@D@rapidjson@@U12@VCrtAllocator@2@@rapidjson@@CA_NAAV?$BasicIStreamWrapper@V?$basic_istream@DU?$char_traits@D@std@@@std@@@1@D@Z 10101c00 f i Skinchanger.obj
 0002:00052c40       ??$Consume@V?$NumberStream@V?$BasicIStreamWrapper@V?$basic_istream@DU?$char_traits@D@std@@@std@@@rapidjson@@$00$0A@@?$GenericReader@U?$UTF8@D@rapidjson@@U12@VCrtAllocator@2@@rapidjson@@@?$GenericReader@U?$UTF8@D@rapidjson@@U12@VCrtAllocator@2@@rapidjson@@CA_NAAV?$NumberStream@V?$BasicIStreamWrapper@V?$basic_istream@DU?$char_traits@D@std@@@std@@@rapidjson@@$00$0A@@01@D@Z 10101c40 f i Skinchanger.obj
 0002:00052c80       ??$Decode@U?$GenericStringStream@U?$UTF8@D@rapidjson@@@rapidjson@@@?$UTF8@D@rapidjson@@SA_NAAU?$GenericStringStream@U?$UTF8@D@rapidjson@@@1@PAI@Z 10101c80 f i Skinchanger.obj
 0002:00053400       ??$Encode@V?$BasicIStreamWrapper@V?$basic_istream@DU?$char_traits@D@std@@@std@@@rapidjson@@@?$UTF8@D@rapidjson@@SAXAAV?$BasicIStreamWrapper@V?$basic_istream@DU?$char_traits@D@std@@@std@@@1@I@Z 10102400 f i Skinchanger.obj
 0002:00053590       ??$Encode@V?$StackStream@D@?$GenericReader@U?$UTF8@D@rapidjson@@U12@VCrtAllocator@2@@rapidjson@@@?$UTF8@D@rapidjson@@SAXAAV?$StackStream@D@?$GenericReader@U?$UTF8@D@rapidjson@@U12@VCrtAllocator@2@@1@I@Z 10102590 f i Skinchanger.obj
 0002:00053720       ??$Expand@D@?$Stack@VCrtAllocator@rapidjson@@@internal@rapidjson@@AAEXI@Z 10102720 f i Skinchanger.obj
 0002:000537f0       ??$Expand@I@?$Stack@VCrtAllocator@rapidjson@@@internal@rapidjson@@AAEXI@Z 101027f0 f i Skinchanger.obj
 0002:000538d0       ??$Expand@ULevel@?$Writer@V?$BasicOStreamWrapper@V?$basic_ostream@DU?$char_traits@D@std@@@std@@@rapidjson@@U?$UTF8@D@2@U32@VCrtAllocator@2@$01@rapidjson@@@?$Stack@VCrtAllocator@rapidjson@@@internal@rapidjson@@AAEXI@Z 101028d0 f i Skinchanger.obj
 0002:000539b0       ??$Expand@V?$GenericValue@U?$UTF8@D@rapidjson@@V?$MemoryPoolAllocator@VCrtAllocator@rapidjson@@@2@@rapidjson@@@?$Stack@VCrtAllocator@rapidjson@@@internal@rapidjson@@AAEXI@Z 101029b0 f i Skinchanger.obj
 0002:00053a90       ??$HandleError@V?$BasicIStreamWrapper@V?$basic_istream@DU?$char_traits@D@std@@@std@@@rapidjson@@@?$GenericReader@U?$UTF8@D@rapidjson@@U12@VCrtAllocator@2@@rapidjson@@AAEXW4IterativeParsingState@01@AAV?$BasicIStreamWrapper@V?$basic_istream@DU?$char_traits@D@std@@@std@@@1@@Z 10102a90 f i Skinchanger.obj
 0002:00053ec0       ??$IterativeParse@$0BBA@V?$BasicIStreamWrapper@V?$basic_istream@DU?$char_traits@D@std@@@std@@@rapidjson@@V?$GenericDocument@U?$UTF8@D@rapidjson@@V?$MemoryPoolAllocator@VCrtAllocator@rapidjson@@@2@VCrtAllocator@2@@2@@?$GenericReader@U?$UTF8@D@rapidjson@@U12@VCrtAllocator@2@@rapidjson@@AAE?AUParseResult@1@AAV?$BasicIStreamWrapper@V?$basic_istream@DU?$char_traits@D@std@@@std@@@1@AAV?$GenericDocument@U?$UTF8@D@rapidjson@@V?$MemoryPoolAllocator@VCrtAllocator@rapidjson@@@2@VCrtAllocator@2@@1@@Z 10102ec0 f i Skinchanger.obj
 0002:000540f0       ??$Min3@H@internal@rapidjson@@YAHHHH@Z 101030f0 f i Skinchanger.obj
 0002:00054140       ??$Parse@$0BBA@V?$BasicIStreamWrapper@V?$basic_istream@DU?$char_traits@D@std@@@std@@@rapidjson@@V?$GenericDocument@U?$UTF8@D@rapidjson@@V?$MemoryPoolAllocator@VCrtAllocator@rapidjson@@@2@VCrtAllocator@2@@2@@?$GenericReader@U?$UTF8@D@rapidjson@@U12@VCrtAllocator@2@@rapidjson@@QAE?AUParseResult@1@AAV?$BasicIStreamWrapper@V?$basic_istream@DU?$char_traits@D@std@@@std@@@1@AAV?$GenericDocument@U?$UTF8@D@rapidjson@@V?$MemoryPoolAllocator@VCrtAllocator@rapidjson@@@2@VCrtAllocator@2@@1@@Z 10103140 f i Skinchanger.obj
 0002:000544a0       ??$ParseArray@$0BBA@V?$BasicIStreamWrapper@V?$basic_istream@DU?$char_traits@D@std@@@std@@@rapidjson@@V?$GenericDocument@U?$UTF8@D@rapidjson@@V?$MemoryPoolAllocator@VCrtAllocator@rapidjson@@@2@VCrtAllocator@2@@2@@?$GenericReader@U?$UTF8@D@rapidjson@@U12@VCrtAllocator@2@@rapidjson@@AAEXAAV?$BasicIStreamWrapper@V?$basic_istream@DU?$char_traits@D@std@@@std@@@1@AAV?$GenericDocument@U?$UTF8@D@rapidjson@@V?$MemoryPoolAllocator@VCrtAllocator@rapidjson@@@2@VCrtAllocator@2@@1@@Z 101034a0 f i Skinchanger.obj
 0002:00054910       ??$ParseFalse@$0BBA@V?$BasicIStreamWrapper@V?$basic_istream@DU?$char_traits@D@std@@@std@@@rapidjson@@V?$GenericDocument@U?$UTF8@D@rapidjson@@V?$MemoryPoolAllocator@VCrtAllocator@rapidjson@@@2@VCrtAllocator@2@@2@@?$GenericReader@U?$UTF8@D@rapidjson@@U12@VCrtAllocator@2@@rapidjson@@AAEXAAV?$BasicIStreamWrapper@V?$basic_istream@DU?$char_traits@D@std@@@std@@@1@AAV?$GenericDocument@U?$UTF8@D@rapidjson@@V?$MemoryPoolAllocator@VCrtAllocator@rapidjson@@@2@VCrtAllocator@2@@1@@Z 10103910 f i Skinchanger.obj
 0002:00054ae0       ??$ParseHex4@V?$BasicIStreamWrapper@V?$basic_istream@DU?$char_traits@D@std@@@std@@@rapidjson@@@?$GenericReader@U?$UTF8@D@rapidjson@@U12@VCrtAllocator@2@@rapidjson@@AAEIAAV?$BasicIStreamWrapper@V?$basic_istream@DU?$char_traits@D@std@@@std@@@1@I@Z 10103ae0 f i Skinchanger.obj
 0002:00054c40       ??$ParseNull@$0BBA@V?$BasicIStreamWrapper@V?$basic_istream@DU?$char_traits@D@std@@@std@@@rapidjson@@V?$GenericDocument@U?$UTF8@D@rapidjson@@V?$MemoryPoolAllocator@VCrtAllocator@rapidjson@@@2@VCrtAllocator@2@@2@@?$GenericReader@U?$UTF8@D@rapidjson@@U12@VCrtAllocator@2@@rapidjson@@AAEXAAV?$BasicIStreamWrapper@V?$basic_istream@DU?$char_traits@D@std@@@std@@@1@AAV?$GenericDocument@U?$UTF8@D@rapidjson@@V?$MemoryPoolAllocator@VCrtAllocator@rapidjson@@@2@VCrtAllocator@2@@1@@Z 10103c40 f i Skinchanger.obj
 0002:00054df0       ??$ParseNumber@$0BBA@V?$BasicIStreamWrapper@V?$basic_istream@DU?$char_traits@D@std@@@std@@@rapidjson@@V?$GenericDocument@U?$UTF8@D@rapidjson@@V?$MemoryPoolAllocator@VCrtAllocator@rapidjson@@@2@VCrtAllocator@2@@2@@?$GenericReader@U?$UTF8@D@rapidjson@@U12@VCrtAllocator@2@@rapidjson@@AAEXAAV?$BasicIStreamWrapper@V?$basic_istream@DU?$char_traits@D@std@@@std@@@1@AAV?$GenericDocument@U?$UTF8@D@rapidjson@@V?$MemoryPoolAllocator@VCrtAllocator@rapidjson@@@2@VCrtAllocator@2@@1@@Z 10103df0 f i Skinchanger.obj
